
TP_PdM_Emma.elf:     file format elf32-littlearm

Sections:
Idx Name          Size      VMA       LMA       File off  Algn
  0 .isr_vector   000001ac  08000000  08000000  00010000  2**0
                  CONTENTS, ALLOC, LOAD, READONLY, DATA
  1 .text         000069a4  080001b0  080001b0  000101b0  2**4
                  CONTENTS, ALLOC, LOAD, READONLY, CODE
  2 .rodata       0000053c  08006b58  08006b58  00016b58  2**3
                  CONTENTS, ALLOC, LOAD, READONLY, DATA
  3 .ARM.extab    00000000  08007094  08007094  000201ec  2**0
                  CONTENTS
  4 .ARM          00000008  08007094  08007094  00017094  2**2
                  CONTENTS, ALLOC, LOAD, READONLY, DATA
  5 .preinit_array 00000000  0800709c  0800709c  000201ec  2**0
                  CONTENTS, ALLOC, LOAD, DATA
  6 .init_array   00000004  0800709c  0800709c  0001709c  2**2
                  CONTENTS, ALLOC, LOAD, DATA
  7 .fini_array   00000004  080070a0  080070a0  000170a0  2**2
                  CONTENTS, ALLOC, LOAD, DATA
  8 .data         000001ec  20000000  080070a4  00020000  2**2
                  CONTENTS, ALLOC, LOAD, DATA
  9 .ccmram       00000000  10000000  10000000  000201ec  2**0
                  CONTENTS
 10 .bss          00000130  200001ec  200001ec  000201ec  2**2
                  ALLOC
 11 ._user_heap_stack 00000604  2000031c  2000031c  000201ec  2**0
                  ALLOC
 12 .ARM.attributes 00000030  00000000  00000000  000201ec  2**0
                  CONTENTS, READONLY
 13 .debug_info   0000c591  00000000  00000000  0002021c  2**0
                  CONTENTS, READONLY, DEBUGGING, OCTETS
 14 .debug_abbrev 000024b1  00000000  00000000  0002c7ad  2**0
                  CONTENTS, READONLY, DEBUGGING, OCTETS
 15 .debug_aranges 00000a48  00000000  00000000  0002ec60  2**3
                  CONTENTS, READONLY, DEBUGGING, OCTETS
 16 .debug_ranges 00000930  00000000  00000000  0002f6a8  2**3
                  CONTENTS, READONLY, DEBUGGING, OCTETS
 17 .debug_macro  0002867e  00000000  00000000  0002ffd8  2**0
                  CONTENTS, READONLY, DEBUGGING, OCTETS
 18 .debug_line   00010d39  00000000  00000000  00058656  2**0
                  CONTENTS, READONLY, DEBUGGING, OCTETS
 19 .debug_str    000f0133  00000000  00000000  0006938f  2**0
                  CONTENTS, READONLY, DEBUGGING, OCTETS
 20 .comment      00000050  00000000  00000000  001594c2  2**0
                  CONTENTS, READONLY
 21 .debug_frame  00003810  00000000  00000000  00159514  2**2
                  CONTENTS, READONLY, DEBUGGING, OCTETS

Disassembly of section .text:

080001b0 <__do_global_dtors_aux>:
 80001b0:	b510      	push	{r4, lr}
 80001b2:	4c05      	ldr	r4, [pc, #20]	; (80001c8 <__do_global_dtors_aux+0x18>)
 80001b4:	7823      	ldrb	r3, [r4, #0]
 80001b6:	b933      	cbnz	r3, 80001c6 <__do_global_dtors_aux+0x16>
 80001b8:	4b04      	ldr	r3, [pc, #16]	; (80001cc <__do_global_dtors_aux+0x1c>)
 80001ba:	b113      	cbz	r3, 80001c2 <__do_global_dtors_aux+0x12>
 80001bc:	4804      	ldr	r0, [pc, #16]	; (80001d0 <__do_global_dtors_aux+0x20>)
 80001be:	f3af 8000 	nop.w
 80001c2:	2301      	movs	r3, #1
 80001c4:	7023      	strb	r3, [r4, #0]
 80001c6:	bd10      	pop	{r4, pc}
 80001c8:	200001ec 	.word	0x200001ec
 80001cc:	00000000 	.word	0x00000000
 80001d0:	08006b3c 	.word	0x08006b3c

080001d4 <frame_dummy>:
 80001d4:	b508      	push	{r3, lr}
 80001d6:	4b03      	ldr	r3, [pc, #12]	; (80001e4 <frame_dummy+0x10>)
 80001d8:	b11b      	cbz	r3, 80001e2 <frame_dummy+0xe>
 80001da:	4903      	ldr	r1, [pc, #12]	; (80001e8 <frame_dummy+0x14>)
 80001dc:	4803      	ldr	r0, [pc, #12]	; (80001ec <frame_dummy+0x18>)
 80001de:	f3af 8000 	nop.w
 80001e2:	bd08      	pop	{r3, pc}
 80001e4:	00000000 	.word	0x00000000
 80001e8:	200001f0 	.word	0x200001f0
 80001ec:	08006b3c 	.word	0x08006b3c

080001f0 <strlen>:
 80001f0:	4603      	mov	r3, r0
 80001f2:	f813 2b01 	ldrb.w	r2, [r3], #1
 80001f6:	2a00      	cmp	r2, #0
 80001f8:	d1fb      	bne.n	80001f2 <strlen+0x2>
 80001fa:	1a18      	subs	r0, r3, r0
 80001fc:	3801      	subs	r0, #1
 80001fe:	4770      	bx	lr

08000200 <memchr>:
 8000200:	f001 01ff 	and.w	r1, r1, #255	; 0xff
 8000204:	2a10      	cmp	r2, #16
 8000206:	db2b      	blt.n	8000260 <memchr+0x60>
 8000208:	f010 0f07 	tst.w	r0, #7
 800020c:	d008      	beq.n	8000220 <memchr+0x20>
 800020e:	f810 3b01 	ldrb.w	r3, [r0], #1
 8000212:	3a01      	subs	r2, #1
 8000214:	428b      	cmp	r3, r1
 8000216:	d02d      	beq.n	8000274 <memchr+0x74>
 8000218:	f010 0f07 	tst.w	r0, #7
 800021c:	b342      	cbz	r2, 8000270 <memchr+0x70>
 800021e:	d1f6      	bne.n	800020e <memchr+0xe>
 8000220:	b4f0      	push	{r4, r5, r6, r7}
 8000222:	ea41 2101 	orr.w	r1, r1, r1, lsl #8
 8000226:	ea41 4101 	orr.w	r1, r1, r1, lsl #16
 800022a:	f022 0407 	bic.w	r4, r2, #7
 800022e:	f07f 0700 	mvns.w	r7, #0
 8000232:	2300      	movs	r3, #0
 8000234:	e8f0 5602 	ldrd	r5, r6, [r0], #8
 8000238:	3c08      	subs	r4, #8
 800023a:	ea85 0501 	eor.w	r5, r5, r1
 800023e:	ea86 0601 	eor.w	r6, r6, r1
 8000242:	fa85 f547 	uadd8	r5, r5, r7
 8000246:	faa3 f587 	sel	r5, r3, r7
 800024a:	fa86 f647 	uadd8	r6, r6, r7
 800024e:	faa5 f687 	sel	r6, r5, r7
 8000252:	b98e      	cbnz	r6, 8000278 <memchr+0x78>
 8000254:	d1ee      	bne.n	8000234 <memchr+0x34>
 8000256:	bcf0      	pop	{r4, r5, r6, r7}
 8000258:	f001 01ff 	and.w	r1, r1, #255	; 0xff
 800025c:	f002 0207 	and.w	r2, r2, #7
 8000260:	b132      	cbz	r2, 8000270 <memchr+0x70>
 8000262:	f810 3b01 	ldrb.w	r3, [r0], #1
 8000266:	3a01      	subs	r2, #1
 8000268:	ea83 0301 	eor.w	r3, r3, r1
 800026c:	b113      	cbz	r3, 8000274 <memchr+0x74>
 800026e:	d1f8      	bne.n	8000262 <memchr+0x62>
 8000270:	2000      	movs	r0, #0
 8000272:	4770      	bx	lr
 8000274:	3801      	subs	r0, #1
 8000276:	4770      	bx	lr
 8000278:	2d00      	cmp	r5, #0
 800027a:	bf06      	itte	eq
 800027c:	4635      	moveq	r5, r6
 800027e:	3803      	subeq	r0, #3
 8000280:	3807      	subne	r0, #7
 8000282:	f015 0f01 	tst.w	r5, #1
 8000286:	d107      	bne.n	8000298 <memchr+0x98>
 8000288:	3001      	adds	r0, #1
 800028a:	f415 7f80 	tst.w	r5, #256	; 0x100
 800028e:	bf02      	ittt	eq
 8000290:	3001      	addeq	r0, #1
 8000292:	f415 3fc0 	tsteq.w	r5, #98304	; 0x18000
 8000296:	3001      	addeq	r0, #1
 8000298:	bcf0      	pop	{r4, r5, r6, r7}
 800029a:	3801      	subs	r0, #1
 800029c:	4770      	bx	lr
 800029e:	bf00      	nop

080002a0 <__aeabi_drsub>:
 80002a0:	f081 4100 	eor.w	r1, r1, #2147483648	; 0x80000000
 80002a4:	e002      	b.n	80002ac <__adddf3>
 80002a6:	bf00      	nop

080002a8 <__aeabi_dsub>:
 80002a8:	f083 4300 	eor.w	r3, r3, #2147483648	; 0x80000000

080002ac <__adddf3>:
 80002ac:	b530      	push	{r4, r5, lr}
 80002ae:	ea4f 0441 	mov.w	r4, r1, lsl #1
 80002b2:	ea4f 0543 	mov.w	r5, r3, lsl #1
 80002b6:	ea94 0f05 	teq	r4, r5
 80002ba:	bf08      	it	eq
 80002bc:	ea90 0f02 	teqeq	r0, r2
 80002c0:	bf1f      	itttt	ne
 80002c2:	ea54 0c00 	orrsne.w	ip, r4, r0
 80002c6:	ea55 0c02 	orrsne.w	ip, r5, r2
 80002ca:	ea7f 5c64 	mvnsne.w	ip, r4, asr #21
 80002ce:	ea7f 5c65 	mvnsne.w	ip, r5, asr #21
 80002d2:	f000 80e2 	beq.w	800049a <__adddf3+0x1ee>
 80002d6:	ea4f 5454 	mov.w	r4, r4, lsr #21
 80002da:	ebd4 5555 	rsbs	r5, r4, r5, lsr #21
 80002de:	bfb8      	it	lt
 80002e0:	426d      	neglt	r5, r5
 80002e2:	dd0c      	ble.n	80002fe <__adddf3+0x52>
 80002e4:	442c      	add	r4, r5
 80002e6:	ea80 0202 	eor.w	r2, r0, r2
 80002ea:	ea81 0303 	eor.w	r3, r1, r3
 80002ee:	ea82 0000 	eor.w	r0, r2, r0
 80002f2:	ea83 0101 	eor.w	r1, r3, r1
 80002f6:	ea80 0202 	eor.w	r2, r0, r2
 80002fa:	ea81 0303 	eor.w	r3, r1, r3
 80002fe:	2d36      	cmp	r5, #54	; 0x36
 8000300:	bf88      	it	hi
 8000302:	bd30      	pophi	{r4, r5, pc}
 8000304:	f011 4f00 	tst.w	r1, #2147483648	; 0x80000000
 8000308:	ea4f 3101 	mov.w	r1, r1, lsl #12
 800030c:	f44f 1c80 	mov.w	ip, #1048576	; 0x100000
 8000310:	ea4c 3111 	orr.w	r1, ip, r1, lsr #12
 8000314:	d002      	beq.n	800031c <__adddf3+0x70>
 8000316:	4240      	negs	r0, r0
 8000318:	eb61 0141 	sbc.w	r1, r1, r1, lsl #1
 800031c:	f013 4f00 	tst.w	r3, #2147483648	; 0x80000000
 8000320:	ea4f 3303 	mov.w	r3, r3, lsl #12
 8000324:	ea4c 3313 	orr.w	r3, ip, r3, lsr #12
 8000328:	d002      	beq.n	8000330 <__adddf3+0x84>
 800032a:	4252      	negs	r2, r2
 800032c:	eb63 0343 	sbc.w	r3, r3, r3, lsl #1
 8000330:	ea94 0f05 	teq	r4, r5
 8000334:	f000 80a7 	beq.w	8000486 <__adddf3+0x1da>
 8000338:	f1a4 0401 	sub.w	r4, r4, #1
 800033c:	f1d5 0e20 	rsbs	lr, r5, #32
 8000340:	db0d      	blt.n	800035e <__adddf3+0xb2>
 8000342:	fa02 fc0e 	lsl.w	ip, r2, lr
 8000346:	fa22 f205 	lsr.w	r2, r2, r5
 800034a:	1880      	adds	r0, r0, r2
 800034c:	f141 0100 	adc.w	r1, r1, #0
 8000350:	fa03 f20e 	lsl.w	r2, r3, lr
 8000354:	1880      	adds	r0, r0, r2
 8000356:	fa43 f305 	asr.w	r3, r3, r5
 800035a:	4159      	adcs	r1, r3
 800035c:	e00e      	b.n	800037c <__adddf3+0xd0>
 800035e:	f1a5 0520 	sub.w	r5, r5, #32
 8000362:	f10e 0e20 	add.w	lr, lr, #32
 8000366:	2a01      	cmp	r2, #1
 8000368:	fa03 fc0e 	lsl.w	ip, r3, lr
 800036c:	bf28      	it	cs
 800036e:	f04c 0c02 	orrcs.w	ip, ip, #2
 8000372:	fa43 f305 	asr.w	r3, r3, r5
 8000376:	18c0      	adds	r0, r0, r3
 8000378:	eb51 71e3 	adcs.w	r1, r1, r3, asr #31
 800037c:	f001 4500 	and.w	r5, r1, #2147483648	; 0x80000000
 8000380:	d507      	bpl.n	8000392 <__adddf3+0xe6>
 8000382:	f04f 0e00 	mov.w	lr, #0
 8000386:	f1dc 0c00 	rsbs	ip, ip, #0
 800038a:	eb7e 0000 	sbcs.w	r0, lr, r0
 800038e:	eb6e 0101 	sbc.w	r1, lr, r1
 8000392:	f5b1 1f80 	cmp.w	r1, #1048576	; 0x100000
 8000396:	d31b      	bcc.n	80003d0 <__adddf3+0x124>
 8000398:	f5b1 1f00 	cmp.w	r1, #2097152	; 0x200000
 800039c:	d30c      	bcc.n	80003b8 <__adddf3+0x10c>
 800039e:	0849      	lsrs	r1, r1, #1
 80003a0:	ea5f 0030 	movs.w	r0, r0, rrx
 80003a4:	ea4f 0c3c 	mov.w	ip, ip, rrx
 80003a8:	f104 0401 	add.w	r4, r4, #1
 80003ac:	ea4f 5244 	mov.w	r2, r4, lsl #21
 80003b0:	f512 0f80 	cmn.w	r2, #4194304	; 0x400000
 80003b4:	f080 809a 	bcs.w	80004ec <__adddf3+0x240>
 80003b8:	f1bc 4f00 	cmp.w	ip, #2147483648	; 0x80000000
 80003bc:	bf08      	it	eq
 80003be:	ea5f 0c50 	movseq.w	ip, r0, lsr #1
 80003c2:	f150 0000 	adcs.w	r0, r0, #0
 80003c6:	eb41 5104 	adc.w	r1, r1, r4, lsl #20
 80003ca:	ea41 0105 	orr.w	r1, r1, r5
 80003ce:	bd30      	pop	{r4, r5, pc}
 80003d0:	ea5f 0c4c 	movs.w	ip, ip, lsl #1
 80003d4:	4140      	adcs	r0, r0
 80003d6:	eb41 0101 	adc.w	r1, r1, r1
 80003da:	3c01      	subs	r4, #1
 80003dc:	bf28      	it	cs
 80003de:	f5b1 1f80 	cmpcs.w	r1, #1048576	; 0x100000
 80003e2:	d2e9      	bcs.n	80003b8 <__adddf3+0x10c>
 80003e4:	f091 0f00 	teq	r1, #0
 80003e8:	bf04      	itt	eq
 80003ea:	4601      	moveq	r1, r0
 80003ec:	2000      	moveq	r0, #0
 80003ee:	fab1 f381 	clz	r3, r1
 80003f2:	bf08      	it	eq
 80003f4:	3320      	addeq	r3, #32
 80003f6:	f1a3 030b 	sub.w	r3, r3, #11
 80003fa:	f1b3 0220 	subs.w	r2, r3, #32
 80003fe:	da0c      	bge.n	800041a <__adddf3+0x16e>
 8000400:	320c      	adds	r2, #12
 8000402:	dd08      	ble.n	8000416 <__adddf3+0x16a>
 8000404:	f102 0c14 	add.w	ip, r2, #20
 8000408:	f1c2 020c 	rsb	r2, r2, #12
 800040c:	fa01 f00c 	lsl.w	r0, r1, ip
 8000410:	fa21 f102 	lsr.w	r1, r1, r2
 8000414:	e00c      	b.n	8000430 <__adddf3+0x184>
 8000416:	f102 0214 	add.w	r2, r2, #20
 800041a:	bfd8      	it	le
 800041c:	f1c2 0c20 	rsble	ip, r2, #32
 8000420:	fa01 f102 	lsl.w	r1, r1, r2
 8000424:	fa20 fc0c 	lsr.w	ip, r0, ip
 8000428:	bfdc      	itt	le
 800042a:	ea41 010c 	orrle.w	r1, r1, ip
 800042e:	4090      	lslle	r0, r2
 8000430:	1ae4      	subs	r4, r4, r3
 8000432:	bfa2      	ittt	ge
 8000434:	eb01 5104 	addge.w	r1, r1, r4, lsl #20
 8000438:	4329      	orrge	r1, r5
 800043a:	bd30      	popge	{r4, r5, pc}
 800043c:	ea6f 0404 	mvn.w	r4, r4
 8000440:	3c1f      	subs	r4, #31
 8000442:	da1c      	bge.n	800047e <__adddf3+0x1d2>
 8000444:	340c      	adds	r4, #12
 8000446:	dc0e      	bgt.n	8000466 <__adddf3+0x1ba>
 8000448:	f104 0414 	add.w	r4, r4, #20
 800044c:	f1c4 0220 	rsb	r2, r4, #32
 8000450:	fa20 f004 	lsr.w	r0, r0, r4
 8000454:	fa01 f302 	lsl.w	r3, r1, r2
 8000458:	ea40 0003 	orr.w	r0, r0, r3
 800045c:	fa21 f304 	lsr.w	r3, r1, r4
 8000460:	ea45 0103 	orr.w	r1, r5, r3
 8000464:	bd30      	pop	{r4, r5, pc}
 8000466:	f1c4 040c 	rsb	r4, r4, #12
 800046a:	f1c4 0220 	rsb	r2, r4, #32
 800046e:	fa20 f002 	lsr.w	r0, r0, r2
 8000472:	fa01 f304 	lsl.w	r3, r1, r4
 8000476:	ea40 0003 	orr.w	r0, r0, r3
 800047a:	4629      	mov	r1, r5
 800047c:	bd30      	pop	{r4, r5, pc}
 800047e:	fa21 f004 	lsr.w	r0, r1, r4
 8000482:	4629      	mov	r1, r5
 8000484:	bd30      	pop	{r4, r5, pc}
 8000486:	f094 0f00 	teq	r4, #0
 800048a:	f483 1380 	eor.w	r3, r3, #1048576	; 0x100000
 800048e:	bf06      	itte	eq
 8000490:	f481 1180 	eoreq.w	r1, r1, #1048576	; 0x100000
 8000494:	3401      	addeq	r4, #1
 8000496:	3d01      	subne	r5, #1
 8000498:	e74e      	b.n	8000338 <__adddf3+0x8c>
 800049a:	ea7f 5c64 	mvns.w	ip, r4, asr #21
 800049e:	bf18      	it	ne
 80004a0:	ea7f 5c65 	mvnsne.w	ip, r5, asr #21
 80004a4:	d029      	beq.n	80004fa <__adddf3+0x24e>
 80004a6:	ea94 0f05 	teq	r4, r5
 80004aa:	bf08      	it	eq
 80004ac:	ea90 0f02 	teqeq	r0, r2
 80004b0:	d005      	beq.n	80004be <__adddf3+0x212>
 80004b2:	ea54 0c00 	orrs.w	ip, r4, r0
 80004b6:	bf04      	itt	eq
 80004b8:	4619      	moveq	r1, r3
 80004ba:	4610      	moveq	r0, r2
 80004bc:	bd30      	pop	{r4, r5, pc}
 80004be:	ea91 0f03 	teq	r1, r3
 80004c2:	bf1e      	ittt	ne
 80004c4:	2100      	movne	r1, #0
 80004c6:	2000      	movne	r0, #0
 80004c8:	bd30      	popne	{r4, r5, pc}
 80004ca:	ea5f 5c54 	movs.w	ip, r4, lsr #21
 80004ce:	d105      	bne.n	80004dc <__adddf3+0x230>
 80004d0:	0040      	lsls	r0, r0, #1
 80004d2:	4149      	adcs	r1, r1
 80004d4:	bf28      	it	cs
 80004d6:	f041 4100 	orrcs.w	r1, r1, #2147483648	; 0x80000000
 80004da:	bd30      	pop	{r4, r5, pc}
 80004dc:	f514 0480 	adds.w	r4, r4, #4194304	; 0x400000
 80004e0:	bf3c      	itt	cc
 80004e2:	f501 1180 	addcc.w	r1, r1, #1048576	; 0x100000
 80004e6:	bd30      	popcc	{r4, r5, pc}
 80004e8:	f001 4500 	and.w	r5, r1, #2147483648	; 0x80000000
 80004ec:	f045 41fe 	orr.w	r1, r5, #2130706432	; 0x7f000000
 80004f0:	f441 0170 	orr.w	r1, r1, #15728640	; 0xf00000
 80004f4:	f04f 0000 	mov.w	r0, #0
 80004f8:	bd30      	pop	{r4, r5, pc}
 80004fa:	ea7f 5c64 	mvns.w	ip, r4, asr #21
 80004fe:	bf1a      	itte	ne
 8000500:	4619      	movne	r1, r3
 8000502:	4610      	movne	r0, r2
 8000504:	ea7f 5c65 	mvnseq.w	ip, r5, asr #21
 8000508:	bf1c      	itt	ne
 800050a:	460b      	movne	r3, r1
 800050c:	4602      	movne	r2, r0
 800050e:	ea50 3401 	orrs.w	r4, r0, r1, lsl #12
 8000512:	bf06      	itte	eq
 8000514:	ea52 3503 	orrseq.w	r5, r2, r3, lsl #12
 8000518:	ea91 0f03 	teqeq	r1, r3
 800051c:	f441 2100 	orrne.w	r1, r1, #524288	; 0x80000
 8000520:	bd30      	pop	{r4, r5, pc}
 8000522:	bf00      	nop

08000524 <__aeabi_ui2d>:
 8000524:	f090 0f00 	teq	r0, #0
 8000528:	bf04      	itt	eq
 800052a:	2100      	moveq	r1, #0
 800052c:	4770      	bxeq	lr
 800052e:	b530      	push	{r4, r5, lr}
 8000530:	f44f 6480 	mov.w	r4, #1024	; 0x400
 8000534:	f104 0432 	add.w	r4, r4, #50	; 0x32
 8000538:	f04f 0500 	mov.w	r5, #0
 800053c:	f04f 0100 	mov.w	r1, #0
 8000540:	e750      	b.n	80003e4 <__adddf3+0x138>
 8000542:	bf00      	nop

08000544 <__aeabi_i2d>:
 8000544:	f090 0f00 	teq	r0, #0
 8000548:	bf04      	itt	eq
 800054a:	2100      	moveq	r1, #0
 800054c:	4770      	bxeq	lr
 800054e:	b530      	push	{r4, r5, lr}
 8000550:	f44f 6480 	mov.w	r4, #1024	; 0x400
 8000554:	f104 0432 	add.w	r4, r4, #50	; 0x32
 8000558:	f010 4500 	ands.w	r5, r0, #2147483648	; 0x80000000
 800055c:	bf48      	it	mi
 800055e:	4240      	negmi	r0, r0
 8000560:	f04f 0100 	mov.w	r1, #0
 8000564:	e73e      	b.n	80003e4 <__adddf3+0x138>
 8000566:	bf00      	nop

08000568 <__aeabi_f2d>:
 8000568:	0042      	lsls	r2, r0, #1
 800056a:	ea4f 01e2 	mov.w	r1, r2, asr #3
 800056e:	ea4f 0131 	mov.w	r1, r1, rrx
 8000572:	ea4f 7002 	mov.w	r0, r2, lsl #28
 8000576:	bf1f      	itttt	ne
 8000578:	f012 437f 	andsne.w	r3, r2, #4278190080	; 0xff000000
 800057c:	f093 4f7f 	teqne	r3, #4278190080	; 0xff000000
 8000580:	f081 5160 	eorne.w	r1, r1, #939524096	; 0x38000000
 8000584:	4770      	bxne	lr
 8000586:	f032 427f 	bics.w	r2, r2, #4278190080	; 0xff000000
 800058a:	bf08      	it	eq
 800058c:	4770      	bxeq	lr
 800058e:	f093 4f7f 	teq	r3, #4278190080	; 0xff000000
 8000592:	bf04      	itt	eq
 8000594:	f441 2100 	orreq.w	r1, r1, #524288	; 0x80000
 8000598:	4770      	bxeq	lr
 800059a:	b530      	push	{r4, r5, lr}
 800059c:	f44f 7460 	mov.w	r4, #896	; 0x380
 80005a0:	f001 4500 	and.w	r5, r1, #2147483648	; 0x80000000
 80005a4:	f021 4100 	bic.w	r1, r1, #2147483648	; 0x80000000
 80005a8:	e71c      	b.n	80003e4 <__adddf3+0x138>
 80005aa:	bf00      	nop

080005ac <__aeabi_ul2d>:
 80005ac:	ea50 0201 	orrs.w	r2, r0, r1
 80005b0:	bf08      	it	eq
 80005b2:	4770      	bxeq	lr
 80005b4:	b530      	push	{r4, r5, lr}
 80005b6:	f04f 0500 	mov.w	r5, #0
 80005ba:	e00a      	b.n	80005d2 <__aeabi_l2d+0x16>

080005bc <__aeabi_l2d>:
 80005bc:	ea50 0201 	orrs.w	r2, r0, r1
 80005c0:	bf08      	it	eq
 80005c2:	4770      	bxeq	lr
 80005c4:	b530      	push	{r4, r5, lr}
 80005c6:	f011 4500 	ands.w	r5, r1, #2147483648	; 0x80000000
 80005ca:	d502      	bpl.n	80005d2 <__aeabi_l2d+0x16>
 80005cc:	4240      	negs	r0, r0
 80005ce:	eb61 0141 	sbc.w	r1, r1, r1, lsl #1
 80005d2:	f44f 6480 	mov.w	r4, #1024	; 0x400
 80005d6:	f104 0432 	add.w	r4, r4, #50	; 0x32
 80005da:	ea5f 5c91 	movs.w	ip, r1, lsr #22
 80005de:	f43f aed8 	beq.w	8000392 <__adddf3+0xe6>
 80005e2:	f04f 0203 	mov.w	r2, #3
 80005e6:	ea5f 0cdc 	movs.w	ip, ip, lsr #3
 80005ea:	bf18      	it	ne
 80005ec:	3203      	addne	r2, #3
 80005ee:	ea5f 0cdc 	movs.w	ip, ip, lsr #3
 80005f2:	bf18      	it	ne
 80005f4:	3203      	addne	r2, #3
 80005f6:	eb02 02dc 	add.w	r2, r2, ip, lsr #3
 80005fa:	f1c2 0320 	rsb	r3, r2, #32
 80005fe:	fa00 fc03 	lsl.w	ip, r0, r3
 8000602:	fa20 f002 	lsr.w	r0, r0, r2
 8000606:	fa01 fe03 	lsl.w	lr, r1, r3
 800060a:	ea40 000e 	orr.w	r0, r0, lr
 800060e:	fa21 f102 	lsr.w	r1, r1, r2
 8000612:	4414      	add	r4, r2
 8000614:	e6bd      	b.n	8000392 <__adddf3+0xe6>
 8000616:	bf00      	nop

08000618 <__aeabi_dmul>:
 8000618:	b570      	push	{r4, r5, r6, lr}
 800061a:	f04f 0cff 	mov.w	ip, #255	; 0xff
 800061e:	f44c 6ce0 	orr.w	ip, ip, #1792	; 0x700
 8000622:	ea1c 5411 	ands.w	r4, ip, r1, lsr #20
 8000626:	bf1d      	ittte	ne
 8000628:	ea1c 5513 	andsne.w	r5, ip, r3, lsr #20
 800062c:	ea94 0f0c 	teqne	r4, ip
 8000630:	ea95 0f0c 	teqne	r5, ip
 8000634:	f000 f8de 	bleq	80007f4 <__aeabi_dmul+0x1dc>
 8000638:	442c      	add	r4, r5
 800063a:	ea81 0603 	eor.w	r6, r1, r3
 800063e:	ea21 514c 	bic.w	r1, r1, ip, lsl #21
 8000642:	ea23 534c 	bic.w	r3, r3, ip, lsl #21
 8000646:	ea50 3501 	orrs.w	r5, r0, r1, lsl #12
 800064a:	bf18      	it	ne
 800064c:	ea52 3503 	orrsne.w	r5, r2, r3, lsl #12
 8000650:	f441 1180 	orr.w	r1, r1, #1048576	; 0x100000
 8000654:	f443 1380 	orr.w	r3, r3, #1048576	; 0x100000
 8000658:	d038      	beq.n	80006cc <__aeabi_dmul+0xb4>
 800065a:	fba0 ce02 	umull	ip, lr, r0, r2
 800065e:	f04f 0500 	mov.w	r5, #0
 8000662:	fbe1 e502 	umlal	lr, r5, r1, r2
 8000666:	f006 4200 	and.w	r2, r6, #2147483648	; 0x80000000
 800066a:	fbe0 e503 	umlal	lr, r5, r0, r3
 800066e:	f04f 0600 	mov.w	r6, #0
 8000672:	fbe1 5603 	umlal	r5, r6, r1, r3
 8000676:	f09c 0f00 	teq	ip, #0
 800067a:	bf18      	it	ne
 800067c:	f04e 0e01 	orrne.w	lr, lr, #1
 8000680:	f1a4 04ff 	sub.w	r4, r4, #255	; 0xff
 8000684:	f5b6 7f00 	cmp.w	r6, #512	; 0x200
 8000688:	f564 7440 	sbc.w	r4, r4, #768	; 0x300
 800068c:	d204      	bcs.n	8000698 <__aeabi_dmul+0x80>
 800068e:	ea5f 0e4e 	movs.w	lr, lr, lsl #1
 8000692:	416d      	adcs	r5, r5
 8000694:	eb46 0606 	adc.w	r6, r6, r6
 8000698:	ea42 21c6 	orr.w	r1, r2, r6, lsl #11
 800069c:	ea41 5155 	orr.w	r1, r1, r5, lsr #21
 80006a0:	ea4f 20c5 	mov.w	r0, r5, lsl #11
 80006a4:	ea40 505e 	orr.w	r0, r0, lr, lsr #21
 80006a8:	ea4f 2ece 	mov.w	lr, lr, lsl #11
 80006ac:	f1b4 0cfd 	subs.w	ip, r4, #253	; 0xfd
 80006b0:	bf88      	it	hi
 80006b2:	f5bc 6fe0 	cmphi.w	ip, #1792	; 0x700
 80006b6:	d81e      	bhi.n	80006f6 <__aeabi_dmul+0xde>
 80006b8:	f1be 4f00 	cmp.w	lr, #2147483648	; 0x80000000
 80006bc:	bf08      	it	eq
 80006be:	ea5f 0e50 	movseq.w	lr, r0, lsr #1
 80006c2:	f150 0000 	adcs.w	r0, r0, #0
 80006c6:	eb41 5104 	adc.w	r1, r1, r4, lsl #20
 80006ca:	bd70      	pop	{r4, r5, r6, pc}
 80006cc:	f006 4600 	and.w	r6, r6, #2147483648	; 0x80000000
 80006d0:	ea46 0101 	orr.w	r1, r6, r1
 80006d4:	ea40 0002 	orr.w	r0, r0, r2
 80006d8:	ea81 0103 	eor.w	r1, r1, r3
 80006dc:	ebb4 045c 	subs.w	r4, r4, ip, lsr #1
 80006e0:	bfc2      	ittt	gt
 80006e2:	ebd4 050c 	rsbsgt	r5, r4, ip
 80006e6:	ea41 5104 	orrgt.w	r1, r1, r4, lsl #20
 80006ea:	bd70      	popgt	{r4, r5, r6, pc}
 80006ec:	f441 1180 	orr.w	r1, r1, #1048576	; 0x100000
 80006f0:	f04f 0e00 	mov.w	lr, #0
 80006f4:	3c01      	subs	r4, #1
 80006f6:	f300 80ab 	bgt.w	8000850 <__aeabi_dmul+0x238>
 80006fa:	f114 0f36 	cmn.w	r4, #54	; 0x36
 80006fe:	bfde      	ittt	le
 8000700:	2000      	movle	r0, #0
 8000702:	f001 4100 	andle.w	r1, r1, #2147483648	; 0x80000000
 8000706:	bd70      	pople	{r4, r5, r6, pc}
 8000708:	f1c4 0400 	rsb	r4, r4, #0
 800070c:	3c20      	subs	r4, #32
 800070e:	da35      	bge.n	800077c <__aeabi_dmul+0x164>
 8000710:	340c      	adds	r4, #12
 8000712:	dc1b      	bgt.n	800074c <__aeabi_dmul+0x134>
 8000714:	f104 0414 	add.w	r4, r4, #20
 8000718:	f1c4 0520 	rsb	r5, r4, #32
 800071c:	fa00 f305 	lsl.w	r3, r0, r5
 8000720:	fa20 f004 	lsr.w	r0, r0, r4
 8000724:	fa01 f205 	lsl.w	r2, r1, r5
 8000728:	ea40 0002 	orr.w	r0, r0, r2
 800072c:	f001 4200 	and.w	r2, r1, #2147483648	; 0x80000000
 8000730:	f021 4100 	bic.w	r1, r1, #2147483648	; 0x80000000
 8000734:	eb10 70d3 	adds.w	r0, r0, r3, lsr #31
 8000738:	fa21 f604 	lsr.w	r6, r1, r4
 800073c:	eb42 0106 	adc.w	r1, r2, r6
 8000740:	ea5e 0e43 	orrs.w	lr, lr, r3, lsl #1
 8000744:	bf08      	it	eq
 8000746:	ea20 70d3 	biceq.w	r0, r0, r3, lsr #31
 800074a:	bd70      	pop	{r4, r5, r6, pc}
 800074c:	f1c4 040c 	rsb	r4, r4, #12
 8000750:	f1c4 0520 	rsb	r5, r4, #32
 8000754:	fa00 f304 	lsl.w	r3, r0, r4
 8000758:	fa20 f005 	lsr.w	r0, r0, r5
 800075c:	fa01 f204 	lsl.w	r2, r1, r4
 8000760:	ea40 0002 	orr.w	r0, r0, r2
 8000764:	f001 4100 	and.w	r1, r1, #2147483648	; 0x80000000
 8000768:	eb10 70d3 	adds.w	r0, r0, r3, lsr #31
 800076c:	f141 0100 	adc.w	r1, r1, #0
 8000770:	ea5e 0e43 	orrs.w	lr, lr, r3, lsl #1
 8000774:	bf08      	it	eq
 8000776:	ea20 70d3 	biceq.w	r0, r0, r3, lsr #31
 800077a:	bd70      	pop	{r4, r5, r6, pc}
 800077c:	f1c4 0520 	rsb	r5, r4, #32
 8000780:	fa00 f205 	lsl.w	r2, r0, r5
 8000784:	ea4e 0e02 	orr.w	lr, lr, r2
 8000788:	fa20 f304 	lsr.w	r3, r0, r4
 800078c:	fa01 f205 	lsl.w	r2, r1, r5
 8000790:	ea43 0302 	orr.w	r3, r3, r2
 8000794:	fa21 f004 	lsr.w	r0, r1, r4
 8000798:	f001 4100 	and.w	r1, r1, #2147483648	; 0x80000000
 800079c:	fa21 f204 	lsr.w	r2, r1, r4
 80007a0:	ea20 0002 	bic.w	r0, r0, r2
 80007a4:	eb00 70d3 	add.w	r0, r0, r3, lsr #31
 80007a8:	ea5e 0e43 	orrs.w	lr, lr, r3, lsl #1
 80007ac:	bf08      	it	eq
 80007ae:	ea20 70d3 	biceq.w	r0, r0, r3, lsr #31
 80007b2:	bd70      	pop	{r4, r5, r6, pc}
 80007b4:	f094 0f00 	teq	r4, #0
 80007b8:	d10f      	bne.n	80007da <__aeabi_dmul+0x1c2>
 80007ba:	f001 4600 	and.w	r6, r1, #2147483648	; 0x80000000
 80007be:	0040      	lsls	r0, r0, #1
 80007c0:	eb41 0101 	adc.w	r1, r1, r1
 80007c4:	f411 1f80 	tst.w	r1, #1048576	; 0x100000
 80007c8:	bf08      	it	eq
 80007ca:	3c01      	subeq	r4, #1
 80007cc:	d0f7      	beq.n	80007be <__aeabi_dmul+0x1a6>
 80007ce:	ea41 0106 	orr.w	r1, r1, r6
 80007d2:	f095 0f00 	teq	r5, #0
 80007d6:	bf18      	it	ne
 80007d8:	4770      	bxne	lr
 80007da:	f003 4600 	and.w	r6, r3, #2147483648	; 0x80000000
 80007de:	0052      	lsls	r2, r2, #1
 80007e0:	eb43 0303 	adc.w	r3, r3, r3
 80007e4:	f413 1f80 	tst.w	r3, #1048576	; 0x100000
 80007e8:	bf08      	it	eq
 80007ea:	3d01      	subeq	r5, #1
 80007ec:	d0f7      	beq.n	80007de <__aeabi_dmul+0x1c6>
 80007ee:	ea43 0306 	orr.w	r3, r3, r6
 80007f2:	4770      	bx	lr
 80007f4:	ea94 0f0c 	teq	r4, ip
 80007f8:	ea0c 5513 	and.w	r5, ip, r3, lsr #20
 80007fc:	bf18      	it	ne
 80007fe:	ea95 0f0c 	teqne	r5, ip
 8000802:	d00c      	beq.n	800081e <__aeabi_dmul+0x206>
 8000804:	ea50 0641 	orrs.w	r6, r0, r1, lsl #1
 8000808:	bf18      	it	ne
 800080a:	ea52 0643 	orrsne.w	r6, r2, r3, lsl #1
 800080e:	d1d1      	bne.n	80007b4 <__aeabi_dmul+0x19c>
 8000810:	ea81 0103 	eor.w	r1, r1, r3
 8000814:	f001 4100 	and.w	r1, r1, #2147483648	; 0x80000000
 8000818:	f04f 0000 	mov.w	r0, #0
 800081c:	bd70      	pop	{r4, r5, r6, pc}
 800081e:	ea50 0641 	orrs.w	r6, r0, r1, lsl #1
 8000822:	bf06      	itte	eq
 8000824:	4610      	moveq	r0, r2
 8000826:	4619      	moveq	r1, r3
 8000828:	ea52 0643 	orrsne.w	r6, r2, r3, lsl #1
 800082c:	d019      	beq.n	8000862 <__aeabi_dmul+0x24a>
 800082e:	ea94 0f0c 	teq	r4, ip
 8000832:	d102      	bne.n	800083a <__aeabi_dmul+0x222>
 8000834:	ea50 3601 	orrs.w	r6, r0, r1, lsl #12
 8000838:	d113      	bne.n	8000862 <__aeabi_dmul+0x24a>
 800083a:	ea95 0f0c 	teq	r5, ip
 800083e:	d105      	bne.n	800084c <__aeabi_dmul+0x234>
 8000840:	ea52 3603 	orrs.w	r6, r2, r3, lsl #12
 8000844:	bf1c      	itt	ne
 8000846:	4610      	movne	r0, r2
 8000848:	4619      	movne	r1, r3
 800084a:	d10a      	bne.n	8000862 <__aeabi_dmul+0x24a>
 800084c:	ea81 0103 	eor.w	r1, r1, r3
 8000850:	f001 4100 	and.w	r1, r1, #2147483648	; 0x80000000
 8000854:	f041 41fe 	orr.w	r1, r1, #2130706432	; 0x7f000000
 8000858:	f441 0170 	orr.w	r1, r1, #15728640	; 0xf00000
 800085c:	f04f 0000 	mov.w	r0, #0
 8000860:	bd70      	pop	{r4, r5, r6, pc}
 8000862:	f041 41fe 	orr.w	r1, r1, #2130706432	; 0x7f000000
 8000866:	f441 0178 	orr.w	r1, r1, #16252928	; 0xf80000
 800086a:	bd70      	pop	{r4, r5, r6, pc}

0800086c <__aeabi_ddiv>:
 800086c:	b570      	push	{r4, r5, r6, lr}
 800086e:	f04f 0cff 	mov.w	ip, #255	; 0xff
 8000872:	f44c 6ce0 	orr.w	ip, ip, #1792	; 0x700
 8000876:	ea1c 5411 	ands.w	r4, ip, r1, lsr #20
 800087a:	bf1d      	ittte	ne
 800087c:	ea1c 5513 	andsne.w	r5, ip, r3, lsr #20
 8000880:	ea94 0f0c 	teqne	r4, ip
 8000884:	ea95 0f0c 	teqne	r5, ip
 8000888:	f000 f8a7 	bleq	80009da <__aeabi_ddiv+0x16e>
 800088c:	eba4 0405 	sub.w	r4, r4, r5
 8000890:	ea81 0e03 	eor.w	lr, r1, r3
 8000894:	ea52 3503 	orrs.w	r5, r2, r3, lsl #12
 8000898:	ea4f 3101 	mov.w	r1, r1, lsl #12
 800089c:	f000 8088 	beq.w	80009b0 <__aeabi_ddiv+0x144>
 80008a0:	ea4f 3303 	mov.w	r3, r3, lsl #12
 80008a4:	f04f 5580 	mov.w	r5, #268435456	; 0x10000000
 80008a8:	ea45 1313 	orr.w	r3, r5, r3, lsr #4
 80008ac:	ea43 6312 	orr.w	r3, r3, r2, lsr #24
 80008b0:	ea4f 2202 	mov.w	r2, r2, lsl #8
 80008b4:	ea45 1511 	orr.w	r5, r5, r1, lsr #4
 80008b8:	ea45 6510 	orr.w	r5, r5, r0, lsr #24
 80008bc:	ea4f 2600 	mov.w	r6, r0, lsl #8
 80008c0:	f00e 4100 	and.w	r1, lr, #2147483648	; 0x80000000
 80008c4:	429d      	cmp	r5, r3
 80008c6:	bf08      	it	eq
 80008c8:	4296      	cmpeq	r6, r2
 80008ca:	f144 04fd 	adc.w	r4, r4, #253	; 0xfd
 80008ce:	f504 7440 	add.w	r4, r4, #768	; 0x300
 80008d2:	d202      	bcs.n	80008da <__aeabi_ddiv+0x6e>
 80008d4:	085b      	lsrs	r3, r3, #1
 80008d6:	ea4f 0232 	mov.w	r2, r2, rrx
 80008da:	1ab6      	subs	r6, r6, r2
 80008dc:	eb65 0503 	sbc.w	r5, r5, r3
 80008e0:	085b      	lsrs	r3, r3, #1
 80008e2:	ea4f 0232 	mov.w	r2, r2, rrx
 80008e6:	f44f 1080 	mov.w	r0, #1048576	; 0x100000
 80008ea:	f44f 2c00 	mov.w	ip, #524288	; 0x80000
 80008ee:	ebb6 0e02 	subs.w	lr, r6, r2
 80008f2:	eb75 0e03 	sbcs.w	lr, r5, r3
 80008f6:	bf22      	ittt	cs
 80008f8:	1ab6      	subcs	r6, r6, r2
 80008fa:	4675      	movcs	r5, lr
 80008fc:	ea40 000c 	orrcs.w	r0, r0, ip
 8000900:	085b      	lsrs	r3, r3, #1
 8000902:	ea4f 0232 	mov.w	r2, r2, rrx
 8000906:	ebb6 0e02 	subs.w	lr, r6, r2
 800090a:	eb75 0e03 	sbcs.w	lr, r5, r3
 800090e:	bf22      	ittt	cs
 8000910:	1ab6      	subcs	r6, r6, r2
 8000912:	4675      	movcs	r5, lr
 8000914:	ea40 005c 	orrcs.w	r0, r0, ip, lsr #1
 8000918:	085b      	lsrs	r3, r3, #1
 800091a:	ea4f 0232 	mov.w	r2, r2, rrx
 800091e:	ebb6 0e02 	subs.w	lr, r6, r2
 8000922:	eb75 0e03 	sbcs.w	lr, r5, r3
 8000926:	bf22      	ittt	cs
 8000928:	1ab6      	subcs	r6, r6, r2
 800092a:	4675      	movcs	r5, lr
 800092c:	ea40 009c 	orrcs.w	r0, r0, ip, lsr #2
 8000930:	085b      	lsrs	r3, r3, #1
 8000932:	ea4f 0232 	mov.w	r2, r2, rrx
 8000936:	ebb6 0e02 	subs.w	lr, r6, r2
 800093a:	eb75 0e03 	sbcs.w	lr, r5, r3
 800093e:	bf22      	ittt	cs
 8000940:	1ab6      	subcs	r6, r6, r2
 8000942:	4675      	movcs	r5, lr
 8000944:	ea40 00dc 	orrcs.w	r0, r0, ip, lsr #3
 8000948:	ea55 0e06 	orrs.w	lr, r5, r6
 800094c:	d018      	beq.n	8000980 <__aeabi_ddiv+0x114>
 800094e:	ea4f 1505 	mov.w	r5, r5, lsl #4
 8000952:	ea45 7516 	orr.w	r5, r5, r6, lsr #28
 8000956:	ea4f 1606 	mov.w	r6, r6, lsl #4
 800095a:	ea4f 03c3 	mov.w	r3, r3, lsl #3
 800095e:	ea43 7352 	orr.w	r3, r3, r2, lsr #29
 8000962:	ea4f 02c2 	mov.w	r2, r2, lsl #3
 8000966:	ea5f 1c1c 	movs.w	ip, ip, lsr #4
 800096a:	d1c0      	bne.n	80008ee <__aeabi_ddiv+0x82>
 800096c:	f411 1f80 	tst.w	r1, #1048576	; 0x100000
 8000970:	d10b      	bne.n	800098a <__aeabi_ddiv+0x11e>
 8000972:	ea41 0100 	orr.w	r1, r1, r0
 8000976:	f04f 0000 	mov.w	r0, #0
 800097a:	f04f 4c00 	mov.w	ip, #2147483648	; 0x80000000
 800097e:	e7b6      	b.n	80008ee <__aeabi_ddiv+0x82>
 8000980:	f411 1f80 	tst.w	r1, #1048576	; 0x100000
 8000984:	bf04      	itt	eq
 8000986:	4301      	orreq	r1, r0
 8000988:	2000      	moveq	r0, #0
 800098a:	f1b4 0cfd 	subs.w	ip, r4, #253	; 0xfd
 800098e:	bf88      	it	hi
 8000990:	f5bc 6fe0 	cmphi.w	ip, #1792	; 0x700
 8000994:	f63f aeaf 	bhi.w	80006f6 <__aeabi_dmul+0xde>
 8000998:	ebb5 0c03 	subs.w	ip, r5, r3
 800099c:	bf04      	itt	eq
 800099e:	ebb6 0c02 	subseq.w	ip, r6, r2
 80009a2:	ea5f 0c50 	movseq.w	ip, r0, lsr #1
 80009a6:	f150 0000 	adcs.w	r0, r0, #0
 80009aa:	eb41 5104 	adc.w	r1, r1, r4, lsl #20
 80009ae:	bd70      	pop	{r4, r5, r6, pc}
 80009b0:	f00e 4e00 	and.w	lr, lr, #2147483648	; 0x80000000
 80009b4:	ea4e 3111 	orr.w	r1, lr, r1, lsr #12
 80009b8:	eb14 045c 	adds.w	r4, r4, ip, lsr #1
 80009bc:	bfc2      	ittt	gt
 80009be:	ebd4 050c 	rsbsgt	r5, r4, ip
 80009c2:	ea41 5104 	orrgt.w	r1, r1, r4, lsl #20
 80009c6:	bd70      	popgt	{r4, r5, r6, pc}
 80009c8:	f441 1180 	orr.w	r1, r1, #1048576	; 0x100000
 80009cc:	f04f 0e00 	mov.w	lr, #0
 80009d0:	3c01      	subs	r4, #1
 80009d2:	e690      	b.n	80006f6 <__aeabi_dmul+0xde>
 80009d4:	ea45 0e06 	orr.w	lr, r5, r6
 80009d8:	e68d      	b.n	80006f6 <__aeabi_dmul+0xde>
 80009da:	ea0c 5513 	and.w	r5, ip, r3, lsr #20
 80009de:	ea94 0f0c 	teq	r4, ip
 80009e2:	bf08      	it	eq
 80009e4:	ea95 0f0c 	teqeq	r5, ip
 80009e8:	f43f af3b 	beq.w	8000862 <__aeabi_dmul+0x24a>
 80009ec:	ea94 0f0c 	teq	r4, ip
 80009f0:	d10a      	bne.n	8000a08 <__aeabi_ddiv+0x19c>
 80009f2:	ea50 3401 	orrs.w	r4, r0, r1, lsl #12
 80009f6:	f47f af34 	bne.w	8000862 <__aeabi_dmul+0x24a>
 80009fa:	ea95 0f0c 	teq	r5, ip
 80009fe:	f47f af25 	bne.w	800084c <__aeabi_dmul+0x234>
 8000a02:	4610      	mov	r0, r2
 8000a04:	4619      	mov	r1, r3
 8000a06:	e72c      	b.n	8000862 <__aeabi_dmul+0x24a>
 8000a08:	ea95 0f0c 	teq	r5, ip
 8000a0c:	d106      	bne.n	8000a1c <__aeabi_ddiv+0x1b0>
 8000a0e:	ea52 3503 	orrs.w	r5, r2, r3, lsl #12
 8000a12:	f43f aefd 	beq.w	8000810 <__aeabi_dmul+0x1f8>
 8000a16:	4610      	mov	r0, r2
 8000a18:	4619      	mov	r1, r3
 8000a1a:	e722      	b.n	8000862 <__aeabi_dmul+0x24a>
 8000a1c:	ea50 0641 	orrs.w	r6, r0, r1, lsl #1
 8000a20:	bf18      	it	ne
 8000a22:	ea52 0643 	orrsne.w	r6, r2, r3, lsl #1
 8000a26:	f47f aec5 	bne.w	80007b4 <__aeabi_dmul+0x19c>
 8000a2a:	ea50 0441 	orrs.w	r4, r0, r1, lsl #1
 8000a2e:	f47f af0d 	bne.w	800084c <__aeabi_dmul+0x234>
 8000a32:	ea52 0543 	orrs.w	r5, r2, r3, lsl #1
 8000a36:	f47f aeeb 	bne.w	8000810 <__aeabi_dmul+0x1f8>
 8000a3a:	e712      	b.n	8000862 <__aeabi_dmul+0x24a>

08000a3c <__gedf2>:
 8000a3c:	f04f 3cff 	mov.w	ip, #4294967295
 8000a40:	e006      	b.n	8000a50 <__cmpdf2+0x4>
 8000a42:	bf00      	nop

08000a44 <__ledf2>:
 8000a44:	f04f 0c01 	mov.w	ip, #1
 8000a48:	e002      	b.n	8000a50 <__cmpdf2+0x4>
 8000a4a:	bf00      	nop

08000a4c <__cmpdf2>:
 8000a4c:	f04f 0c01 	mov.w	ip, #1
 8000a50:	f84d cd04 	str.w	ip, [sp, #-4]!
 8000a54:	ea4f 0c41 	mov.w	ip, r1, lsl #1
 8000a58:	ea7f 5c6c 	mvns.w	ip, ip, asr #21
 8000a5c:	ea4f 0c43 	mov.w	ip, r3, lsl #1
 8000a60:	bf18      	it	ne
 8000a62:	ea7f 5c6c 	mvnsne.w	ip, ip, asr #21
 8000a66:	d01b      	beq.n	8000aa0 <__cmpdf2+0x54>
 8000a68:	b001      	add	sp, #4
 8000a6a:	ea50 0c41 	orrs.w	ip, r0, r1, lsl #1
 8000a6e:	bf0c      	ite	eq
 8000a70:	ea52 0c43 	orrseq.w	ip, r2, r3, lsl #1
 8000a74:	ea91 0f03 	teqne	r1, r3
 8000a78:	bf02      	ittt	eq
 8000a7a:	ea90 0f02 	teqeq	r0, r2
 8000a7e:	2000      	moveq	r0, #0
 8000a80:	4770      	bxeq	lr
 8000a82:	f110 0f00 	cmn.w	r0, #0
 8000a86:	ea91 0f03 	teq	r1, r3
 8000a8a:	bf58      	it	pl
 8000a8c:	4299      	cmppl	r1, r3
 8000a8e:	bf08      	it	eq
 8000a90:	4290      	cmpeq	r0, r2
 8000a92:	bf2c      	ite	cs
 8000a94:	17d8      	asrcs	r0, r3, #31
 8000a96:	ea6f 70e3 	mvncc.w	r0, r3, asr #31
 8000a9a:	f040 0001 	orr.w	r0, r0, #1
 8000a9e:	4770      	bx	lr
 8000aa0:	ea4f 0c41 	mov.w	ip, r1, lsl #1
 8000aa4:	ea7f 5c6c 	mvns.w	ip, ip, asr #21
 8000aa8:	d102      	bne.n	8000ab0 <__cmpdf2+0x64>
 8000aaa:	ea50 3c01 	orrs.w	ip, r0, r1, lsl #12
 8000aae:	d107      	bne.n	8000ac0 <__cmpdf2+0x74>
 8000ab0:	ea4f 0c43 	mov.w	ip, r3, lsl #1
 8000ab4:	ea7f 5c6c 	mvns.w	ip, ip, asr #21
 8000ab8:	d1d6      	bne.n	8000a68 <__cmpdf2+0x1c>
 8000aba:	ea52 3c03 	orrs.w	ip, r2, r3, lsl #12
 8000abe:	d0d3      	beq.n	8000a68 <__cmpdf2+0x1c>
 8000ac0:	f85d 0b04 	ldr.w	r0, [sp], #4
 8000ac4:	4770      	bx	lr
 8000ac6:	bf00      	nop

08000ac8 <__aeabi_cdrcmple>:
 8000ac8:	4684      	mov	ip, r0
 8000aca:	4610      	mov	r0, r2
 8000acc:	4662      	mov	r2, ip
 8000ace:	468c      	mov	ip, r1
 8000ad0:	4619      	mov	r1, r3
 8000ad2:	4663      	mov	r3, ip
 8000ad4:	e000      	b.n	8000ad8 <__aeabi_cdcmpeq>
 8000ad6:	bf00      	nop

08000ad8 <__aeabi_cdcmpeq>:
 8000ad8:	b501      	push	{r0, lr}
 8000ada:	f7ff ffb7 	bl	8000a4c <__cmpdf2>
 8000ade:	2800      	cmp	r0, #0
 8000ae0:	bf48      	it	mi
 8000ae2:	f110 0f00 	cmnmi.w	r0, #0
 8000ae6:	bd01      	pop	{r0, pc}

08000ae8 <__aeabi_dcmpeq>:
 8000ae8:	f84d ed08 	str.w	lr, [sp, #-8]!
 8000aec:	f7ff fff4 	bl	8000ad8 <__aeabi_cdcmpeq>
 8000af0:	bf0c      	ite	eq
 8000af2:	2001      	moveq	r0, #1
 8000af4:	2000      	movne	r0, #0
 8000af6:	f85d fb08 	ldr.w	pc, [sp], #8
 8000afa:	bf00      	nop

08000afc <__aeabi_dcmplt>:
 8000afc:	f84d ed08 	str.w	lr, [sp, #-8]!
 8000b00:	f7ff ffea 	bl	8000ad8 <__aeabi_cdcmpeq>
 8000b04:	bf34      	ite	cc
 8000b06:	2001      	movcc	r0, #1
 8000b08:	2000      	movcs	r0, #0
 8000b0a:	f85d fb08 	ldr.w	pc, [sp], #8
 8000b0e:	bf00      	nop

08000b10 <__aeabi_dcmple>:
 8000b10:	f84d ed08 	str.w	lr, [sp, #-8]!
 8000b14:	f7ff ffe0 	bl	8000ad8 <__aeabi_cdcmpeq>
 8000b18:	bf94      	ite	ls
 8000b1a:	2001      	movls	r0, #1
 8000b1c:	2000      	movhi	r0, #0
 8000b1e:	f85d fb08 	ldr.w	pc, [sp], #8
 8000b22:	bf00      	nop

08000b24 <__aeabi_dcmpge>:
 8000b24:	f84d ed08 	str.w	lr, [sp, #-8]!
 8000b28:	f7ff ffce 	bl	8000ac8 <__aeabi_cdrcmple>
 8000b2c:	bf94      	ite	ls
 8000b2e:	2001      	movls	r0, #1
 8000b30:	2000      	movhi	r0, #0
 8000b32:	f85d fb08 	ldr.w	pc, [sp], #8
 8000b36:	bf00      	nop

08000b38 <__aeabi_dcmpgt>:
 8000b38:	f84d ed08 	str.w	lr, [sp, #-8]!
 8000b3c:	f7ff ffc4 	bl	8000ac8 <__aeabi_cdrcmple>
 8000b40:	bf34      	ite	cc
 8000b42:	2001      	movcc	r0, #1
 8000b44:	2000      	movcs	r0, #0
 8000b46:	f85d fb08 	ldr.w	pc, [sp], #8
 8000b4a:	bf00      	nop

08000b4c <__aeabi_dcmpun>:
 8000b4c:	ea4f 0c41 	mov.w	ip, r1, lsl #1
 8000b50:	ea7f 5c6c 	mvns.w	ip, ip, asr #21
 8000b54:	d102      	bne.n	8000b5c <__aeabi_dcmpun+0x10>
 8000b56:	ea50 3c01 	orrs.w	ip, r0, r1, lsl #12
 8000b5a:	d10a      	bne.n	8000b72 <__aeabi_dcmpun+0x26>
 8000b5c:	ea4f 0c43 	mov.w	ip, r3, lsl #1
 8000b60:	ea7f 5c6c 	mvns.w	ip, ip, asr #21
 8000b64:	d102      	bne.n	8000b6c <__aeabi_dcmpun+0x20>
 8000b66:	ea52 3c03 	orrs.w	ip, r2, r3, lsl #12
 8000b6a:	d102      	bne.n	8000b72 <__aeabi_dcmpun+0x26>
 8000b6c:	f04f 0000 	mov.w	r0, #0
 8000b70:	4770      	bx	lr
 8000b72:	f04f 0001 	mov.w	r0, #1
 8000b76:	4770      	bx	lr

08000b78 <__aeabi_d2iz>:
 8000b78:	ea4f 0241 	mov.w	r2, r1, lsl #1
 8000b7c:	f512 1200 	adds.w	r2, r2, #2097152	; 0x200000
 8000b80:	d215      	bcs.n	8000bae <__aeabi_d2iz+0x36>
 8000b82:	d511      	bpl.n	8000ba8 <__aeabi_d2iz+0x30>
 8000b84:	f46f 7378 	mvn.w	r3, #992	; 0x3e0
 8000b88:	ebb3 5262 	subs.w	r2, r3, r2, asr #21
 8000b8c:	d912      	bls.n	8000bb4 <__aeabi_d2iz+0x3c>
 8000b8e:	ea4f 23c1 	mov.w	r3, r1, lsl #11
 8000b92:	f043 4300 	orr.w	r3, r3, #2147483648	; 0x80000000
 8000b96:	ea43 5350 	orr.w	r3, r3, r0, lsr #21
 8000b9a:	f011 4f00 	tst.w	r1, #2147483648	; 0x80000000
 8000b9e:	fa23 f002 	lsr.w	r0, r3, r2
 8000ba2:	bf18      	it	ne
 8000ba4:	4240      	negne	r0, r0
 8000ba6:	4770      	bx	lr
 8000ba8:	f04f 0000 	mov.w	r0, #0
 8000bac:	4770      	bx	lr
 8000bae:	ea50 3001 	orrs.w	r0, r0, r1, lsl #12
 8000bb2:	d105      	bne.n	8000bc0 <__aeabi_d2iz+0x48>
 8000bb4:	f011 4000 	ands.w	r0, r1, #2147483648	; 0x80000000
 8000bb8:	bf08      	it	eq
 8000bba:	f06f 4000 	mvneq.w	r0, #2147483648	; 0x80000000
 8000bbe:	4770      	bx	lr
 8000bc0:	f04f 0000 	mov.w	r0, #0
 8000bc4:	4770      	bx	lr
 8000bc6:	bf00      	nop

08000bc8 <__aeabi_uldivmod>:
 8000bc8:	b953      	cbnz	r3, 8000be0 <__aeabi_uldivmod+0x18>
 8000bca:	b94a      	cbnz	r2, 8000be0 <__aeabi_uldivmod+0x18>
 8000bcc:	2900      	cmp	r1, #0
 8000bce:	bf08      	it	eq
 8000bd0:	2800      	cmpeq	r0, #0
 8000bd2:	bf1c      	itt	ne
 8000bd4:	f04f 31ff 	movne.w	r1, #4294967295
 8000bd8:	f04f 30ff 	movne.w	r0, #4294967295
 8000bdc:	f000 b974 	b.w	8000ec8 <__aeabi_idiv0>
 8000be0:	f1ad 0c08 	sub.w	ip, sp, #8
 8000be4:	e96d ce04 	strd	ip, lr, [sp, #-16]!
 8000be8:	f000 f806 	bl	8000bf8 <__udivmoddi4>
 8000bec:	f8dd e004 	ldr.w	lr, [sp, #4]
 8000bf0:	e9dd 2302 	ldrd	r2, r3, [sp, #8]
 8000bf4:	b004      	add	sp, #16
 8000bf6:	4770      	bx	lr

08000bf8 <__udivmoddi4>:
 8000bf8:	e92d 47f0 	stmdb	sp!, {r4, r5, r6, r7, r8, r9, sl, lr}
 8000bfc:	9d08      	ldr	r5, [sp, #32]
 8000bfe:	4604      	mov	r4, r0
 8000c00:	468e      	mov	lr, r1
 8000c02:	2b00      	cmp	r3, #0
 8000c04:	d14d      	bne.n	8000ca2 <__udivmoddi4+0xaa>
 8000c06:	428a      	cmp	r2, r1
 8000c08:	4694      	mov	ip, r2
 8000c0a:	d969      	bls.n	8000ce0 <__udivmoddi4+0xe8>
 8000c0c:	fab2 f282 	clz	r2, r2
 8000c10:	b152      	cbz	r2, 8000c28 <__udivmoddi4+0x30>
 8000c12:	fa01 f302 	lsl.w	r3, r1, r2
 8000c16:	f1c2 0120 	rsb	r1, r2, #32
 8000c1a:	fa20 f101 	lsr.w	r1, r0, r1
 8000c1e:	fa0c fc02 	lsl.w	ip, ip, r2
 8000c22:	ea41 0e03 	orr.w	lr, r1, r3
 8000c26:	4094      	lsls	r4, r2
 8000c28:	ea4f 481c 	mov.w	r8, ip, lsr #16
 8000c2c:	0c21      	lsrs	r1, r4, #16
 8000c2e:	fbbe f6f8 	udiv	r6, lr, r8
 8000c32:	fa1f f78c 	uxth.w	r7, ip
 8000c36:	fb08 e316 	mls	r3, r8, r6, lr
 8000c3a:	ea41 4303 	orr.w	r3, r1, r3, lsl #16
 8000c3e:	fb06 f107 	mul.w	r1, r6, r7
 8000c42:	4299      	cmp	r1, r3
 8000c44:	d90a      	bls.n	8000c5c <__udivmoddi4+0x64>
 8000c46:	eb1c 0303 	adds.w	r3, ip, r3
 8000c4a:	f106 30ff 	add.w	r0, r6, #4294967295
 8000c4e:	f080 811f 	bcs.w	8000e90 <__udivmoddi4+0x298>
 8000c52:	4299      	cmp	r1, r3
 8000c54:	f240 811c 	bls.w	8000e90 <__udivmoddi4+0x298>
 8000c58:	3e02      	subs	r6, #2
 8000c5a:	4463      	add	r3, ip
 8000c5c:	1a5b      	subs	r3, r3, r1
 8000c5e:	b2a4      	uxth	r4, r4
 8000c60:	fbb3 f0f8 	udiv	r0, r3, r8
 8000c64:	fb08 3310 	mls	r3, r8, r0, r3
 8000c68:	ea44 4403 	orr.w	r4, r4, r3, lsl #16
 8000c6c:	fb00 f707 	mul.w	r7, r0, r7
 8000c70:	42a7      	cmp	r7, r4
 8000c72:	d90a      	bls.n	8000c8a <__udivmoddi4+0x92>
 8000c74:	eb1c 0404 	adds.w	r4, ip, r4
 8000c78:	f100 33ff 	add.w	r3, r0, #4294967295
 8000c7c:	f080 810a 	bcs.w	8000e94 <__udivmoddi4+0x29c>
 8000c80:	42a7      	cmp	r7, r4
 8000c82:	f240 8107 	bls.w	8000e94 <__udivmoddi4+0x29c>
 8000c86:	4464      	add	r4, ip
 8000c88:	3802      	subs	r0, #2
 8000c8a:	ea40 4006 	orr.w	r0, r0, r6, lsl #16
 8000c8e:	1be4      	subs	r4, r4, r7
 8000c90:	2600      	movs	r6, #0
 8000c92:	b11d      	cbz	r5, 8000c9c <__udivmoddi4+0xa4>
 8000c94:	40d4      	lsrs	r4, r2
 8000c96:	2300      	movs	r3, #0
 8000c98:	e9c5 4300 	strd	r4, r3, [r5]
 8000c9c:	4631      	mov	r1, r6
 8000c9e:	e8bd 87f0 	ldmia.w	sp!, {r4, r5, r6, r7, r8, r9, sl, pc}
 8000ca2:	428b      	cmp	r3, r1
 8000ca4:	d909      	bls.n	8000cba <__udivmoddi4+0xc2>
 8000ca6:	2d00      	cmp	r5, #0
 8000ca8:	f000 80ef 	beq.w	8000e8a <__udivmoddi4+0x292>
 8000cac:	2600      	movs	r6, #0
 8000cae:	e9c5 0100 	strd	r0, r1, [r5]
 8000cb2:	4630      	mov	r0, r6
 8000cb4:	4631      	mov	r1, r6
 8000cb6:	e8bd 87f0 	ldmia.w	sp!, {r4, r5, r6, r7, r8, r9, sl, pc}
 8000cba:	fab3 f683 	clz	r6, r3
 8000cbe:	2e00      	cmp	r6, #0
 8000cc0:	d14a      	bne.n	8000d58 <__udivmoddi4+0x160>
 8000cc2:	428b      	cmp	r3, r1
 8000cc4:	d302      	bcc.n	8000ccc <__udivmoddi4+0xd4>
 8000cc6:	4282      	cmp	r2, r0
 8000cc8:	f200 80f9 	bhi.w	8000ebe <__udivmoddi4+0x2c6>
 8000ccc:	1a84      	subs	r4, r0, r2
 8000cce:	eb61 0303 	sbc.w	r3, r1, r3
 8000cd2:	2001      	movs	r0, #1
 8000cd4:	469e      	mov	lr, r3
 8000cd6:	2d00      	cmp	r5, #0
 8000cd8:	d0e0      	beq.n	8000c9c <__udivmoddi4+0xa4>
 8000cda:	e9c5 4e00 	strd	r4, lr, [r5]
 8000cde:	e7dd      	b.n	8000c9c <__udivmoddi4+0xa4>
 8000ce0:	b902      	cbnz	r2, 8000ce4 <__udivmoddi4+0xec>
 8000ce2:	deff      	udf	#255	; 0xff
 8000ce4:	fab2 f282 	clz	r2, r2
 8000ce8:	2a00      	cmp	r2, #0
 8000cea:	f040 8092 	bne.w	8000e12 <__udivmoddi4+0x21a>
 8000cee:	eba1 010c 	sub.w	r1, r1, ip
 8000cf2:	ea4f 471c 	mov.w	r7, ip, lsr #16
 8000cf6:	fa1f fe8c 	uxth.w	lr, ip
 8000cfa:	2601      	movs	r6, #1
 8000cfc:	0c20      	lsrs	r0, r4, #16
 8000cfe:	fbb1 f3f7 	udiv	r3, r1, r7
 8000d02:	fb07 1113 	mls	r1, r7, r3, r1
 8000d06:	ea40 4101 	orr.w	r1, r0, r1, lsl #16
 8000d0a:	fb0e f003 	mul.w	r0, lr, r3
 8000d0e:	4288      	cmp	r0, r1
 8000d10:	d908      	bls.n	8000d24 <__udivmoddi4+0x12c>
 8000d12:	eb1c 0101 	adds.w	r1, ip, r1
 8000d16:	f103 38ff 	add.w	r8, r3, #4294967295
 8000d1a:	d202      	bcs.n	8000d22 <__udivmoddi4+0x12a>
 8000d1c:	4288      	cmp	r0, r1
 8000d1e:	f200 80cb 	bhi.w	8000eb8 <__udivmoddi4+0x2c0>
 8000d22:	4643      	mov	r3, r8
 8000d24:	1a09      	subs	r1, r1, r0
 8000d26:	b2a4      	uxth	r4, r4
 8000d28:	fbb1 f0f7 	udiv	r0, r1, r7
 8000d2c:	fb07 1110 	mls	r1, r7, r0, r1
 8000d30:	ea44 4401 	orr.w	r4, r4, r1, lsl #16
 8000d34:	fb0e fe00 	mul.w	lr, lr, r0
 8000d38:	45a6      	cmp	lr, r4
 8000d3a:	d908      	bls.n	8000d4e <__udivmoddi4+0x156>
 8000d3c:	eb1c 0404 	adds.w	r4, ip, r4
 8000d40:	f100 31ff 	add.w	r1, r0, #4294967295
 8000d44:	d202      	bcs.n	8000d4c <__udivmoddi4+0x154>
 8000d46:	45a6      	cmp	lr, r4
 8000d48:	f200 80bb 	bhi.w	8000ec2 <__udivmoddi4+0x2ca>
 8000d4c:	4608      	mov	r0, r1
 8000d4e:	eba4 040e 	sub.w	r4, r4, lr
 8000d52:	ea40 4003 	orr.w	r0, r0, r3, lsl #16
 8000d56:	e79c      	b.n	8000c92 <__udivmoddi4+0x9a>
 8000d58:	f1c6 0720 	rsb	r7, r6, #32
 8000d5c:	40b3      	lsls	r3, r6
 8000d5e:	fa22 fc07 	lsr.w	ip, r2, r7
 8000d62:	ea4c 0c03 	orr.w	ip, ip, r3
 8000d66:	fa20 f407 	lsr.w	r4, r0, r7
 8000d6a:	fa01 f306 	lsl.w	r3, r1, r6
 8000d6e:	431c      	orrs	r4, r3
 8000d70:	40f9      	lsrs	r1, r7
 8000d72:	ea4f 491c 	mov.w	r9, ip, lsr #16
 8000d76:	fa00 f306 	lsl.w	r3, r0, r6
 8000d7a:	fbb1 f8f9 	udiv	r8, r1, r9
 8000d7e:	0c20      	lsrs	r0, r4, #16
 8000d80:	fa1f fe8c 	uxth.w	lr, ip
 8000d84:	fb09 1118 	mls	r1, r9, r8, r1
 8000d88:	ea40 4101 	orr.w	r1, r0, r1, lsl #16
 8000d8c:	fb08 f00e 	mul.w	r0, r8, lr
 8000d90:	4288      	cmp	r0, r1
 8000d92:	fa02 f206 	lsl.w	r2, r2, r6
 8000d96:	d90b      	bls.n	8000db0 <__udivmoddi4+0x1b8>
 8000d98:	eb1c 0101 	adds.w	r1, ip, r1
 8000d9c:	f108 3aff 	add.w	sl, r8, #4294967295
 8000da0:	f080 8088 	bcs.w	8000eb4 <__udivmoddi4+0x2bc>
 8000da4:	4288      	cmp	r0, r1
 8000da6:	f240 8085 	bls.w	8000eb4 <__udivmoddi4+0x2bc>
 8000daa:	f1a8 0802 	sub.w	r8, r8, #2
 8000dae:	4461      	add	r1, ip
 8000db0:	1a09      	subs	r1, r1, r0
 8000db2:	b2a4      	uxth	r4, r4
 8000db4:	fbb1 f0f9 	udiv	r0, r1, r9
 8000db8:	fb09 1110 	mls	r1, r9, r0, r1
 8000dbc:	ea44 4101 	orr.w	r1, r4, r1, lsl #16
 8000dc0:	fb00 fe0e 	mul.w	lr, r0, lr
 8000dc4:	458e      	cmp	lr, r1
 8000dc6:	d908      	bls.n	8000dda <__udivmoddi4+0x1e2>
 8000dc8:	eb1c 0101 	adds.w	r1, ip, r1
 8000dcc:	f100 34ff 	add.w	r4, r0, #4294967295
 8000dd0:	d26c      	bcs.n	8000eac <__udivmoddi4+0x2b4>
 8000dd2:	458e      	cmp	lr, r1
 8000dd4:	d96a      	bls.n	8000eac <__udivmoddi4+0x2b4>
 8000dd6:	3802      	subs	r0, #2
 8000dd8:	4461      	add	r1, ip
 8000dda:	ea40 4008 	orr.w	r0, r0, r8, lsl #16
 8000dde:	fba0 9402 	umull	r9, r4, r0, r2
 8000de2:	eba1 010e 	sub.w	r1, r1, lr
 8000de6:	42a1      	cmp	r1, r4
 8000de8:	46c8      	mov	r8, r9
 8000dea:	46a6      	mov	lr, r4
 8000dec:	d356      	bcc.n	8000e9c <__udivmoddi4+0x2a4>
 8000dee:	d053      	beq.n	8000e98 <__udivmoddi4+0x2a0>
 8000df0:	b15d      	cbz	r5, 8000e0a <__udivmoddi4+0x212>
 8000df2:	ebb3 0208 	subs.w	r2, r3, r8
 8000df6:	eb61 010e 	sbc.w	r1, r1, lr
 8000dfa:	fa01 f707 	lsl.w	r7, r1, r7
 8000dfe:	fa22 f306 	lsr.w	r3, r2, r6
 8000e02:	40f1      	lsrs	r1, r6
 8000e04:	431f      	orrs	r7, r3
 8000e06:	e9c5 7100 	strd	r7, r1, [r5]
 8000e0a:	2600      	movs	r6, #0
 8000e0c:	4631      	mov	r1, r6
 8000e0e:	e8bd 87f0 	ldmia.w	sp!, {r4, r5, r6, r7, r8, r9, sl, pc}
 8000e12:	f1c2 0320 	rsb	r3, r2, #32
 8000e16:	40d8      	lsrs	r0, r3
 8000e18:	fa0c fc02 	lsl.w	ip, ip, r2
 8000e1c:	fa21 f303 	lsr.w	r3, r1, r3
 8000e20:	4091      	lsls	r1, r2
 8000e22:	4301      	orrs	r1, r0
 8000e24:	ea4f 471c 	mov.w	r7, ip, lsr #16
 8000e28:	fa1f fe8c 	uxth.w	lr, ip
 8000e2c:	fbb3 f0f7 	udiv	r0, r3, r7
 8000e30:	fb07 3610 	mls	r6, r7, r0, r3
 8000e34:	0c0b      	lsrs	r3, r1, #16
 8000e36:	ea43 4306 	orr.w	r3, r3, r6, lsl #16
 8000e3a:	fb00 f60e 	mul.w	r6, r0, lr
 8000e3e:	429e      	cmp	r6, r3
 8000e40:	fa04 f402 	lsl.w	r4, r4, r2
 8000e44:	d908      	bls.n	8000e58 <__udivmoddi4+0x260>
 8000e46:	eb1c 0303 	adds.w	r3, ip, r3
 8000e4a:	f100 38ff 	add.w	r8, r0, #4294967295
 8000e4e:	d22f      	bcs.n	8000eb0 <__udivmoddi4+0x2b8>
 8000e50:	429e      	cmp	r6, r3
 8000e52:	d92d      	bls.n	8000eb0 <__udivmoddi4+0x2b8>
 8000e54:	3802      	subs	r0, #2
 8000e56:	4463      	add	r3, ip
 8000e58:	1b9b      	subs	r3, r3, r6
 8000e5a:	b289      	uxth	r1, r1
 8000e5c:	fbb3 f6f7 	udiv	r6, r3, r7
 8000e60:	fb07 3316 	mls	r3, r7, r6, r3
 8000e64:	ea41 4103 	orr.w	r1, r1, r3, lsl #16
 8000e68:	fb06 f30e 	mul.w	r3, r6, lr
 8000e6c:	428b      	cmp	r3, r1
 8000e6e:	d908      	bls.n	8000e82 <__udivmoddi4+0x28a>
 8000e70:	eb1c 0101 	adds.w	r1, ip, r1
 8000e74:	f106 38ff 	add.w	r8, r6, #4294967295
 8000e78:	d216      	bcs.n	8000ea8 <__udivmoddi4+0x2b0>
 8000e7a:	428b      	cmp	r3, r1
 8000e7c:	d914      	bls.n	8000ea8 <__udivmoddi4+0x2b0>
 8000e7e:	3e02      	subs	r6, #2
 8000e80:	4461      	add	r1, ip
 8000e82:	1ac9      	subs	r1, r1, r3
 8000e84:	ea46 4600 	orr.w	r6, r6, r0, lsl #16
 8000e88:	e738      	b.n	8000cfc <__udivmoddi4+0x104>
 8000e8a:	462e      	mov	r6, r5
 8000e8c:	4628      	mov	r0, r5
 8000e8e:	e705      	b.n	8000c9c <__udivmoddi4+0xa4>
 8000e90:	4606      	mov	r6, r0
 8000e92:	e6e3      	b.n	8000c5c <__udivmoddi4+0x64>
 8000e94:	4618      	mov	r0, r3
 8000e96:	e6f8      	b.n	8000c8a <__udivmoddi4+0x92>
 8000e98:	454b      	cmp	r3, r9
 8000e9a:	d2a9      	bcs.n	8000df0 <__udivmoddi4+0x1f8>
 8000e9c:	ebb9 0802 	subs.w	r8, r9, r2
 8000ea0:	eb64 0e0c 	sbc.w	lr, r4, ip
 8000ea4:	3801      	subs	r0, #1
 8000ea6:	e7a3      	b.n	8000df0 <__udivmoddi4+0x1f8>
 8000ea8:	4646      	mov	r6, r8
 8000eaa:	e7ea      	b.n	8000e82 <__udivmoddi4+0x28a>
 8000eac:	4620      	mov	r0, r4
 8000eae:	e794      	b.n	8000dda <__udivmoddi4+0x1e2>
 8000eb0:	4640      	mov	r0, r8
 8000eb2:	e7d1      	b.n	8000e58 <__udivmoddi4+0x260>
 8000eb4:	46d0      	mov	r8, sl
 8000eb6:	e77b      	b.n	8000db0 <__udivmoddi4+0x1b8>
 8000eb8:	3b02      	subs	r3, #2
 8000eba:	4461      	add	r1, ip
 8000ebc:	e732      	b.n	8000d24 <__udivmoddi4+0x12c>
 8000ebe:	4630      	mov	r0, r6
 8000ec0:	e709      	b.n	8000cd6 <__udivmoddi4+0xde>
 8000ec2:	4464      	add	r4, ip
 8000ec4:	3802      	subs	r0, #2
 8000ec6:	e742      	b.n	8000d4e <__udivmoddi4+0x156>

08000ec8 <__aeabi_idiv0>:
 8000ec8:	4770      	bx	lr
 8000eca:	bf00      	nop

08000ecc <iniciaADC>:

/* Variable used to get converted value */
__IO uint16_t uhADCxConvertedValue = 0;

void iniciaADC()
{
 8000ecc:	b580      	push	{r7, lr}
 8000ece:	b084      	sub	sp, #16
 8000ed0:	af00      	add	r7, sp, #0
	ADC_ChannelConfTypeDef sConfig;

	//##-1- Configure the ADC peripheral #######################################
	AdcHandle.Instance                   = ADC1;
 8000ed2:	4b1e      	ldr	r3, [pc, #120]	; (8000f4c <iniciaADC+0x80>)
 8000ed4:	4a1e      	ldr	r2, [pc, #120]	; (8000f50 <iniciaADC+0x84>)
 8000ed6:	601a      	str	r2, [r3, #0]
	AdcHandle.Init.ClockPrescaler        = ADC_CLOCKPRESCALER_PCLK_DIV2;
 8000ed8:	4b1c      	ldr	r3, [pc, #112]	; (8000f4c <iniciaADC+0x80>)
 8000eda:	2200      	movs	r2, #0
 8000edc:	605a      	str	r2, [r3, #4]
	AdcHandle.Init.Resolution            = ADC_RESOLUTION12b;
 8000ede:	4b1b      	ldr	r3, [pc, #108]	; (8000f4c <iniciaADC+0x80>)
 8000ee0:	2200      	movs	r2, #0
 8000ee2:	609a      	str	r2, [r3, #8]
	AdcHandle.Init.ScanConvMode          = DISABLE;                       // Sequencer disabled (ADC conversion on only 1 channel: channel set on rank 1)
 8000ee4:	4b19      	ldr	r3, [pc, #100]	; (8000f4c <iniciaADC+0x80>)
 8000ee6:	2200      	movs	r2, #0
 8000ee8:	611a      	str	r2, [r3, #16]
	AdcHandle.Init.ContinuousConvMode    = ENABLE;                        // Continuous mode disabled to have only 1 conversion at each conversion trig
 8000eea:	4b18      	ldr	r3, [pc, #96]	; (8000f4c <iniciaADC+0x80>)
 8000eec:	2201      	movs	r2, #1
 8000eee:	761a      	strb	r2, [r3, #24]
	AdcHandle.Init.DiscontinuousConvMode = DISABLE;                       // Parameter discarded because sequencer is disabled
 8000ef0:	4b16      	ldr	r3, [pc, #88]	; (8000f4c <iniciaADC+0x80>)
 8000ef2:	2200      	movs	r2, #0
 8000ef4:	f883 2020 	strb.w	r2, [r3, #32]
	AdcHandle.Init.NbrOfDiscConversion   = 0;
 8000ef8:	4b14      	ldr	r3, [pc, #80]	; (8000f4c <iniciaADC+0x80>)
 8000efa:	2200      	movs	r2, #0
 8000efc:	625a      	str	r2, [r3, #36]	; 0x24
	AdcHandle.Init.ExternalTrigConvEdge  = ADC_EXTERNALTRIGCONVEDGE_NONE;        // Conversion start trigged at each external event
 8000efe:	4b13      	ldr	r3, [pc, #76]	; (8000f4c <iniciaADC+0x80>)
 8000f00:	2200      	movs	r2, #0
 8000f02:	62da      	str	r2, [r3, #44]	; 0x2c
	AdcHandle.Init.ExternalTrigConv      = ADC_EXTERNALTRIGCONV_T1_CC1;
 8000f04:	4b11      	ldr	r3, [pc, #68]	; (8000f4c <iniciaADC+0x80>)
 8000f06:	2200      	movs	r2, #0
 8000f08:	629a      	str	r2, [r3, #40]	; 0x28
	AdcHandle.Init.DataAlign             = ADC_DATAALIGN_RIGHT;
 8000f0a:	4b10      	ldr	r3, [pc, #64]	; (8000f4c <iniciaADC+0x80>)
 8000f0c:	2200      	movs	r2, #0
 8000f0e:	60da      	str	r2, [r3, #12]
	AdcHandle.Init.NbrOfConversion       = 1;
 8000f10:	4b0e      	ldr	r3, [pc, #56]	; (8000f4c <iniciaADC+0x80>)
 8000f12:	2201      	movs	r2, #1
 8000f14:	61da      	str	r2, [r3, #28]
	AdcHandle.Init.DMAContinuousRequests = ENABLE;
 8000f16:	4b0d      	ldr	r3, [pc, #52]	; (8000f4c <iniciaADC+0x80>)
 8000f18:	2201      	movs	r2, #1
 8000f1a:	f883 2030 	strb.w	r2, [r3, #48]	; 0x30
	AdcHandle.Init.EOCSelection          = DISABLE;
 8000f1e:	4b0b      	ldr	r3, [pc, #44]	; (8000f4c <iniciaADC+0x80>)
 8000f20:	2200      	movs	r2, #0
 8000f22:	615a      	str	r2, [r3, #20]

	if (HAL_ADC_Init(&AdcHandle) != HAL_OK)
 8000f24:	4809      	ldr	r0, [pc, #36]	; (8000f4c <iniciaADC+0x80>)
 8000f26:	f000 fc07 	bl	8001738 <HAL_ADC_Init>
	}

	//printf("HAL_ADC_Init OK\r\n");

	//##-2- Configure ADC regular channel ######################################
	sConfig.Channel      = ADC_CHANNEL_3;
 8000f2a:	2303      	movs	r3, #3
 8000f2c:	603b      	str	r3, [r7, #0]
	sConfig.Rank         = 1;
 8000f2e:	2301      	movs	r3, #1
 8000f30:	607b      	str	r3, [r7, #4]
	sConfig.SamplingTime = ADC_SAMPLETIME_3CYCLES;
 8000f32:	2300      	movs	r3, #0
 8000f34:	60bb      	str	r3, [r7, #8]
	sConfig.Offset       = 0;
 8000f36:	2300      	movs	r3, #0
 8000f38:	60fb      	str	r3, [r7, #12]

	if (HAL_ADC_ConfigChannel(&AdcHandle, &sConfig) != HAL_OK)
 8000f3a:	463b      	mov	r3, r7
 8000f3c:	4619      	mov	r1, r3
 8000f3e:	4803      	ldr	r0, [pc, #12]	; (8000f4c <iniciaADC+0x80>)
 8000f40:	f000 fddc 	bl	8001afc <HAL_ADC_ConfigChannel>
	//{
		 //Start Conversation Error
		//Error_Handler();
	//}
	//printf("HAL_ADC_Start_DMA OK\r\n");
}
 8000f44:	bf00      	nop
 8000f46:	3710      	adds	r7, #16
 8000f48:	46bd      	mov	sp, r7
 8000f4a:	bd80      	pop	{r7, pc}
 8000f4c:	20000208 	.word	0x20000208
 8000f50:	40012000 	.word	0x40012000

08000f54 <myADCread>:

uint32_t myADCread()
{
 8000f54:	b580      	push	{r7, lr}
 8000f56:	b082      	sub	sp, #8
 8000f58:	af00      	add	r7, sp, #0
	uint32_t valorLeidoADC;
	valorLeidoADC = HAL_ADC_GetValue(&AdcHandle);
 8000f5a:	480c      	ldr	r0, [pc, #48]	; (8000f8c <myADCread+0x38>)
 8000f5c:	f000 fdc0 	bl	8001ae0 <HAL_ADC_GetValue>
 8000f60:	6078      	str	r0, [r7, #4]
	HAL_ADC_Start(&AdcHandle);
 8000f62:	480a      	ldr	r0, [pc, #40]	; (8000f8c <myADCread+0x38>)
 8000f64:	f000 fc2c 	bl	80017c0 <HAL_ADC_Start>
	HAL_ADC_PollForConversion(&AdcHandle,0xFFF);
 8000f68:	f640 71ff 	movw	r1, #4095	; 0xfff
 8000f6c:	4807      	ldr	r0, [pc, #28]	; (8000f8c <myADCread+0x38>)
 8000f6e:	f000 fd2c 	bl	80019ca <HAL_ADC_PollForConversion>
	valorLeidoADC = HAL_ADC_GetValue(&AdcHandle);
 8000f72:	4806      	ldr	r0, [pc, #24]	; (8000f8c <myADCread+0x38>)
 8000f74:	f000 fdb4 	bl	8001ae0 <HAL_ADC_GetValue>
 8000f78:	6078      	str	r0, [r7, #4]
	HAL_ADC_Stop(&AdcHandle);
 8000f7a:	4804      	ldr	r0, [pc, #16]	; (8000f8c <myADCread+0x38>)
 8000f7c:	f000 fcf2 	bl	8001964 <HAL_ADC_Stop>
	return valorLeidoADC;
 8000f80:	687b      	ldr	r3, [r7, #4]
}
 8000f82:	4618      	mov	r0, r3
 8000f84:	3708      	adds	r7, #8
 8000f86:	46bd      	mov	sp, r7
 8000f88:	bd80      	pop	{r7, pc}
 8000f8a:	bf00      	nop
 8000f8c:	20000208 	.word	0x20000208

08000f90 <lecturakV_Update>:

void lecturakV_Update()
{
 8000f90:	b580      	push	{r7, lr}
 8000f92:	b082      	sub	sp, #8
 8000f94:	af00      	add	r7, sp, #0
	uint32_t valorLeidoADC = 0;
 8000f96:	2300      	movs	r3, #0
 8000f98:	607b      	str	r3, [r7, #4]
	valorLeidoADC = myADCread();
 8000f9a:	f7ff ffdb 	bl	8000f54 <myADCread>
 8000f9e:	6078      	str	r0, [r7, #4]
	float valor = (float) valorLeidoADC/4095.0; //Escala 0 a 1
 8000fa0:	687b      	ldr	r3, [r7, #4]
 8000fa2:	ee07 3a90 	vmov	s15, r3
 8000fa6:	eeb8 7a67 	vcvt.f32.u32	s14, s15
 8000faa:	eddf 6a19 	vldr	s13, [pc, #100]	; 8001010 <lecturakV_Update+0x80>
 8000fae:	eec7 7a26 	vdiv.f32	s15, s14, s13
 8000fb2:	edc7 7a00 	vstr	s15, [r7]
	if(valor<0.4)
 8000fb6:	6838      	ldr	r0, [r7, #0]
 8000fb8:	f7ff fad6 	bl	8000568 <__aeabi_f2d>
 8000fbc:	a312      	add	r3, pc, #72	; (adr r3, 8001008 <lecturakV_Update+0x78>)
 8000fbe:	e9d3 2300 	ldrd	r2, r3, [r3]
 8000fc2:	f7ff fd9b 	bl	8000afc <__aeabi_dcmplt>
 8000fc6:	4603      	mov	r3, r0
 8000fc8:	2b00      	cmp	r3, #0
 8000fca:	d003      	beq.n	8000fd4 <lecturakV_Update+0x44>
	{
		printf("Tension de trabajo insuficiente\r\n");
 8000fcc:	4811      	ldr	r0, [pc, #68]	; (8001014 <lecturakV_Update+0x84>)
 8000fce:	f003 fd01 	bl	80049d4 <puts>
	}
	else
	{
		printf("Tension de trabajo = %dkV\r\n", (int) (valor*110.0));
	}
}
 8000fd2:	e012      	b.n	8000ffa <lecturakV_Update+0x6a>
		printf("Tension de trabajo = %dkV\r\n", (int) (valor*110.0));
 8000fd4:	6838      	ldr	r0, [r7, #0]
 8000fd6:	f7ff fac7 	bl	8000568 <__aeabi_f2d>
 8000fda:	f04f 0200 	mov.w	r2, #0
 8000fde:	4b0e      	ldr	r3, [pc, #56]	; (8001018 <lecturakV_Update+0x88>)
 8000fe0:	f7ff fb1a 	bl	8000618 <__aeabi_dmul>
 8000fe4:	4602      	mov	r2, r0
 8000fe6:	460b      	mov	r3, r1
 8000fe8:	4610      	mov	r0, r2
 8000fea:	4619      	mov	r1, r3
 8000fec:	f7ff fdc4 	bl	8000b78 <__aeabi_d2iz>
 8000ff0:	4603      	mov	r3, r0
 8000ff2:	4619      	mov	r1, r3
 8000ff4:	4809      	ldr	r0, [pc, #36]	; (800101c <lecturakV_Update+0x8c>)
 8000ff6:	f003 fc67 	bl	80048c8 <iprintf>
}
 8000ffa:	bf00      	nop
 8000ffc:	3708      	adds	r7, #8
 8000ffe:	46bd      	mov	sp, r7
 8001000:	bd80      	pop	{r7, pc}
 8001002:	bf00      	nop
 8001004:	f3af 8000 	nop.w
 8001008:	9999999a 	.word	0x9999999a
 800100c:	3fd99999 	.word	0x3fd99999
 8001010:	457ff000 	.word	0x457ff000
 8001014:	08006b58 	.word	0x08006b58
 8001018:	405b8000 	.word	0x405b8000
 800101c:	08006b7c 	.word	0x08006b7c

08001020 <debounceFSM_update>:
//Entrada: ninguna
//Salida: ninguna
//Nota: es una funcin pblica porque se llama desde fuera del mdulo (main)
static bool_t flancoDescendente = 0;
void debounceFSM_update()
{
 8001020:	b580      	push	{r7, lr}
 8001022:	af00      	add	r7, sp, #0
	if ( BUTTON_menosTiempo_PRESSED )
 8001024:	4b0e      	ldr	r3, [pc, #56]	; (8001060 <debounceFSM_update+0x40>)
 8001026:	691b      	ldr	r3, [r3, #16]
 8001028:	f003 0301 	and.w	r3, r3, #1
 800102c:	2b00      	cmp	r3, #0
 800102e:	d002      	beq.n	8001036 <debounceFSM_update+0x16>
	{
		BSP_LED_Toggle(LED1);
 8001030:	2000      	movs	r0, #0
 8001032:	f000 f94b 	bl	80012cc <BSP_LED_Toggle>
	}
	if ( BUTTON_masTiempo_PRESSED )
 8001036:	4b0a      	ldr	r3, [pc, #40]	; (8001060 <debounceFSM_update+0x40>)
 8001038:	691b      	ldr	r3, [r3, #16]
 800103a:	f003 0302 	and.w	r3, r3, #2
 800103e:	2b00      	cmp	r3, #0
 8001040:	d002      	beq.n	8001048 <debounceFSM_update+0x28>
	{
		BSP_LED_Toggle(LED2);
 8001042:	2001      	movs	r0, #1
 8001044:	f000 f942 	bl	80012cc <BSP_LED_Toggle>
	}
	if ( BUTTON_Disparo_PRESSED )
 8001048:	4b06      	ldr	r3, [pc, #24]	; (8001064 <debounceFSM_update+0x44>)
 800104a:	691b      	ldr	r3, [r3, #16]
 800104c:	f403 5300 	and.w	r3, r3, #8192	; 0x2000
 8001050:	2b00      	cmp	r3, #0
 8001052:	d002      	beq.n	800105a <debounceFSM_update+0x3a>
	{
		BSP_LED_Toggle(LED3);
 8001054:	2002      	movs	r0, #2
 8001056:	f000 f939 	bl	80012cc <BSP_LED_Toggle>
					}
					break;
		default:
					break;
	}*/
}
 800105a:	bf00      	nop
 800105c:	bd80      	pop	{r7, pc}
 800105e:	bf00      	nop
 8001060:	40021800 	.word	0x40021800
 8001064:	40020800 	.word	0x40020800

08001068 <debounceFSM_init>:
//Funcin: carga el estado inicial
//Entrada: ninguna
//Salida:  ninguna
//Nota: es una funcin pblica porque se llama desde fuera del mdulo (main)
void debounceFSM_init()
{
 8001068:	b580      	push	{r7, lr}
 800106a:	af00      	add	r7, sp, #0
	delayInit(&delayAntiRebote, TIME_ANTIREBOTE);
 800106c:	2128      	movs	r1, #40	; 0x28
 800106e:	4804      	ldr	r0, [pc, #16]	; (8001080 <debounceFSM_init+0x18>)
 8001070:	f000 f80a 	bl	8001088 <delayInit>
	actualState = BUTTON_UP;
 8001074:	4b03      	ldr	r3, [pc, #12]	; (8001084 <debounceFSM_init+0x1c>)
 8001076:	2200      	movs	r2, #0
 8001078:	701a      	strb	r2, [r3, #0]
}
 800107a:	bf00      	nop
 800107c:	bd80      	pop	{r7, pc}
 800107e:	bf00      	nop
 8001080:	20000250 	.word	0x20000250
 8001084:	2000025c 	.word	0x2000025c

08001088 <delayInit>:

// Entrada: Puntero al delay y su duracin en ms
// Salida: Ninguna
// Funcin: Inicializa los parmetros internos del delay
void delayInit( delay_t * delay, tick_t duration )
{
 8001088:	b480      	push	{r7}
 800108a:	b083      	sub	sp, #12
 800108c:	af00      	add	r7, sp, #0
 800108e:	6078      	str	r0, [r7, #4]
 8001090:	6039      	str	r1, [r7, #0]
	if((delay != NULL) && (duration > 0))			// Verifica que el puntero sea valido y que la duracion sea un valor positivo
 8001092:	687b      	ldr	r3, [r7, #4]
 8001094:	2b00      	cmp	r3, #0
 8001096:	d00b      	beq.n	80010b0 <delayInit+0x28>
 8001098:	683b      	ldr	r3, [r7, #0]
 800109a:	2b00      	cmp	r3, #0
 800109c:	d008      	beq.n	80010b0 <delayInit+0x28>
	{
		delay->startTime = 0;
 800109e:	687b      	ldr	r3, [r7, #4]
 80010a0:	2200      	movs	r2, #0
 80010a2:	601a      	str	r2, [r3, #0]
		delay->duration = duration;
 80010a4:	687b      	ldr	r3, [r7, #4]
 80010a6:	683a      	ldr	r2, [r7, #0]
 80010a8:	605a      	str	r2, [r3, #4]
		delay->running = false;						// Inicializa el delay detenido
 80010aa:	687b      	ldr	r3, [r7, #4]
 80010ac:	2200      	movs	r2, #0
 80010ae:	721a      	strb	r2, [r3, #8]
	}
}
 80010b0:	bf00      	nop
 80010b2:	370c      	adds	r7, #12
 80010b4:	46bd      	mov	sp, r7
 80010b6:	f85d 7b04 	ldr.w	r7, [sp], #4
 80010ba:	4770      	bx	lr

080010bc <inputsInit>:

// Entrada: Ninguna
// Salida: Ninguna
// Funcin: Inicializacin de los leds de mi placa (diferente a Nucleo)
void inputsInit()
{
 80010bc:	b580      	push	{r7, lr}
 80010be:	af00      	add	r7, sp, #0
	/* Initialize BSP PB for BUTTON_USER */
	BSP_PB_Init(BUTTON_USER, BUTTON_MODE_GPIO);
 80010c0:	2100      	movs	r1, #0
 80010c2:	2000      	movs	r0, #0
 80010c4:	f000 f91c 	bl	8001300 <BSP_PB_Init>

	/* Initialize Button for -Time & +Time */
	RCC->AHB1ENR |= (1<<6); //Habilita puerto G
 80010c8:	4b15      	ldr	r3, [pc, #84]	; (8001120 <inputsInit+0x64>)
 80010ca:	6b1b      	ldr	r3, [r3, #48]	; 0x30
 80010cc:	4a14      	ldr	r2, [pc, #80]	; (8001120 <inputsInit+0x64>)
 80010ce:	f043 0340 	orr.w	r3, r3, #64	; 0x40
 80010d2:	6313      	str	r3, [r2, #48]	; 0x30

	//PG0 -Time
	GPIOG->MODER &=~ (3<<0);   			//00 --> entrada
 80010d4:	4b13      	ldr	r3, [pc, #76]	; (8001124 <inputsInit+0x68>)
 80010d6:	681b      	ldr	r3, [r3, #0]
 80010d8:	4a12      	ldr	r2, [pc, #72]	; (8001124 <inputsInit+0x68>)
 80010da:	f023 0303 	bic.w	r3, r3, #3
 80010de:	6013      	str	r3, [r2, #0]
	GPIOG->PUPDR &=~ (1<<0);			//10 --> pull down
 80010e0:	4b10      	ldr	r3, [pc, #64]	; (8001124 <inputsInit+0x68>)
 80010e2:	68db      	ldr	r3, [r3, #12]
 80010e4:	4a0f      	ldr	r2, [pc, #60]	; (8001124 <inputsInit+0x68>)
 80010e6:	f023 0301 	bic.w	r3, r3, #1
 80010ea:	60d3      	str	r3, [r2, #12]
	GPIOG->PUPDR |=  (1<<1);
 80010ec:	4b0d      	ldr	r3, [pc, #52]	; (8001124 <inputsInit+0x68>)
 80010ee:	68db      	ldr	r3, [r3, #12]
 80010f0:	4a0c      	ldr	r2, [pc, #48]	; (8001124 <inputsInit+0x68>)
 80010f2:	f043 0302 	orr.w	r3, r3, #2
 80010f6:	60d3      	str	r3, [r2, #12]

	//PG1 +Time
	GPIOG->MODER &=~ (3<<2);   			//00 --> entrada
 80010f8:	4b0a      	ldr	r3, [pc, #40]	; (8001124 <inputsInit+0x68>)
 80010fa:	681b      	ldr	r3, [r3, #0]
 80010fc:	4a09      	ldr	r2, [pc, #36]	; (8001124 <inputsInit+0x68>)
 80010fe:	f023 030c 	bic.w	r3, r3, #12
 8001102:	6013      	str	r3, [r2, #0]
	GPIOG->PUPDR &=~ (1<<2);			//10 --> pull down
 8001104:	4b07      	ldr	r3, [pc, #28]	; (8001124 <inputsInit+0x68>)
 8001106:	68db      	ldr	r3, [r3, #12]
 8001108:	4a06      	ldr	r2, [pc, #24]	; (8001124 <inputsInit+0x68>)
 800110a:	f023 0304 	bic.w	r3, r3, #4
 800110e:	60d3      	str	r3, [r2, #12]
	GPIOG->PUPDR |=  (1<<3);
 8001110:	4b04      	ldr	r3, [pc, #16]	; (8001124 <inputsInit+0x68>)
 8001112:	68db      	ldr	r3, [r3, #12]
 8001114:	4a03      	ldr	r2, [pc, #12]	; (8001124 <inputsInit+0x68>)
 8001116:	f043 0308 	orr.w	r3, r3, #8
 800111a:	60d3      	str	r3, [r2, #12]
}
 800111c:	bf00      	nop
 800111e:	bd80      	pop	{r7, pc}
 8001120:	40023800 	.word	0x40023800
 8001124:	40021800 	.word	0x40021800

08001128 <outputsInit>:

void outputsInit()
{
 8001128:	b580      	push	{r7, lr}
 800112a:	af00      	add	r7, sp, #0
	/* Initialize BSP Led for LED1 */
	BSP_LED_Init(LED1);
 800112c:	2000      	movs	r0, #0
 800112e:	f000 f863 	bl	80011f8 <BSP_LED_Init>
	/* Initialize BSP Led for LED2 */
	BSP_LED_Init(LED2);
 8001132:	2001      	movs	r0, #1
 8001134:	f000 f860 	bl	80011f8 <BSP_LED_Init>
	/* Initialize BSP Led for LED1 */
	BSP_LED_Init(LED3);
 8001138:	2002      	movs	r0, #2
 800113a:	f000 f85d 	bl	80011f8 <BSP_LED_Init>
}
 800113e:	bf00      	nop
 8001140:	bd80      	pop	{r7, pc}
	...

08001144 <uartinit>:
 	 Salida: booleando TRUE si se inicializ correctamente, FALSE si fall
*/
#define myBaudRate 9600
#define UARTn 3
bool_t uartinit()
{
 8001144:	b580      	push	{r7, lr}
 8001146:	af00      	add	r7, sp, #0
	UartHandle.Instance        = USART3; //uart 1 para placa discovery
 8001148:	4b1b      	ldr	r3, [pc, #108]	; (80011b8 <uartinit+0x74>)
 800114a:	4a1c      	ldr	r2, [pc, #112]	; (80011bc <uartinit+0x78>)
 800114c:	601a      	str	r2, [r3, #0]
	UartHandle.Init.BaudRate   = myBaudRate;
 800114e:	4b1a      	ldr	r3, [pc, #104]	; (80011b8 <uartinit+0x74>)
 8001150:	f44f 5216 	mov.w	r2, #9600	; 0x2580
 8001154:	605a      	str	r2, [r3, #4]
	UartHandle.Init.WordLength = UART_WORDLENGTH_8B;
 8001156:	4b18      	ldr	r3, [pc, #96]	; (80011b8 <uartinit+0x74>)
 8001158:	2200      	movs	r2, #0
 800115a:	609a      	str	r2, [r3, #8]
	UartHandle.Init.StopBits   = UART_STOPBITS_1;
 800115c:	4b16      	ldr	r3, [pc, #88]	; (80011b8 <uartinit+0x74>)
 800115e:	2200      	movs	r2, #0
 8001160:	60da      	str	r2, [r3, #12]
	UartHandle.Init.Parity     = UART_PARITY_ODD;
 8001162:	4b15      	ldr	r3, [pc, #84]	; (80011b8 <uartinit+0x74>)
 8001164:	f44f 62c0 	mov.w	r2, #1536	; 0x600
 8001168:	611a      	str	r2, [r3, #16]
	UartHandle.Init.HwFlowCtl  = UART_HWCONTROL_NONE;
 800116a:	4b13      	ldr	r3, [pc, #76]	; (80011b8 <uartinit+0x74>)
 800116c:	2200      	movs	r2, #0
 800116e:	619a      	str	r2, [r3, #24]
	UartHandle.Init.Mode       = UART_MODE_TX_RX;
 8001170:	4b11      	ldr	r3, [pc, #68]	; (80011b8 <uartinit+0x74>)
 8001172:	220c      	movs	r2, #12
 8001174:	615a      	str	r2, [r3, #20]
	UartHandle.Init.OverSampling = UART_OVERSAMPLING_16;
 8001176:	4b10      	ldr	r3, [pc, #64]	; (80011b8 <uartinit+0x74>)
 8001178:	2200      	movs	r2, #0
 800117a:	61da      	str	r2, [r3, #28]
	if (HAL_UART_Init(&UartHandle) != HAL_OK)
 800117c:	480e      	ldr	r0, [pc, #56]	; (80011b8 <uartinit+0x74>)
 800117e:	f002 fa8d 	bl	800369c <HAL_UART_Init>
 8001182:	4603      	mov	r3, r0
 8001184:	2b00      	cmp	r3, #0
 8001186:	d004      	beq.n	8001192 <uartinit+0x4e>
	{
		/* Initialization Error */
		//Error_Handler();
		printf("Error en la inicializacion de la UART\n\r");
 8001188:	480d      	ldr	r0, [pc, #52]	; (80011c0 <uartinit+0x7c>)
 800118a:	f003 fb9d 	bl	80048c8 <iprintf>
		return false;
 800118e:	2300      	movs	r3, #0
 8001190:	e00f      	b.n	80011b2 <uartinit+0x6e>
	}
	printf("UART inicializada correctamente\n\r");
 8001192:	480c      	ldr	r0, [pc, #48]	; (80011c4 <uartinit+0x80>)
 8001194:	f003 fb98 	bl	80048c8 <iprintf>
	printf("Parametros de configuracion:\n\r");
 8001198:	480b      	ldr	r0, [pc, #44]	; (80011c8 <uartinit+0x84>)
 800119a:	f003 fb95 	bl	80048c8 <iprintf>
	printf("Instancia: USART%d\n\r",UARTn);
 800119e:	2103      	movs	r1, #3
 80011a0:	480a      	ldr	r0, [pc, #40]	; (80011cc <uartinit+0x88>)
 80011a2:	f003 fb91 	bl	80048c8 <iprintf>
	printf("Baudrate: %d\n\r",myBaudRate);
 80011a6:	f44f 5116 	mov.w	r1, #9600	; 0x2580
 80011aa:	4809      	ldr	r0, [pc, #36]	; (80011d0 <uartinit+0x8c>)
 80011ac:	f003 fb8c 	bl	80048c8 <iprintf>

	return true;
 80011b0:	2301      	movs	r3, #1
}
 80011b2:	4618      	mov	r0, r3
 80011b4:	bd80      	pop	{r7, pc}
 80011b6:	bf00      	nop
 80011b8:	20000260 	.word	0x20000260
 80011bc:	40004800 	.word	0x40004800
 80011c0:	08006b98 	.word	0x08006b98
 80011c4:	08006bc0 	.word	0x08006bc0
 80011c8:	08006be4 	.word	0x08006be4
 80011cc:	08006c04 	.word	0x08006c04
 80011d0:	08006c1c 	.word	0x08006c1c

080011d4 <__io_putchar>:
  * @brief  Retargets the C library printf function to the USART.
  * @param  None
  * @retval None
  */
PUTCHAR_PROTOTYPE
{
 80011d4:	b580      	push	{r7, lr}
 80011d6:	b082      	sub	sp, #8
 80011d8:	af00      	add	r7, sp, #0
 80011da:	6078      	str	r0, [r7, #4]
  // Place your implementation of fputc here
  // e.g. write a character to the USART3 and Loop until the end of transmission
  HAL_UART_Transmit(&UartHandle, (uint8_t *)&ch, 1, 0xFFFF);
 80011dc:	1d39      	adds	r1, r7, #4
 80011de:	f64f 73ff 	movw	r3, #65535	; 0xffff
 80011e2:	2201      	movs	r2, #1
 80011e4:	4803      	ldr	r0, [pc, #12]	; (80011f4 <__io_putchar+0x20>)
 80011e6:	f002 faa6 	bl	8003736 <HAL_UART_Transmit>

  return ch;
 80011ea:	687b      	ldr	r3, [r7, #4]
}
 80011ec:	4618      	mov	r0, r3
 80011ee:	3708      	adds	r7, #8
 80011f0:	46bd      	mov	sp, r7
 80011f2:	bd80      	pop	{r7, pc}
 80011f4:	20000260 	.word	0x20000260

080011f8 <BSP_LED_Init>:
  *     @arg  LED1
  *     @arg  LED2
  *     @arg  LED3
  */
void BSP_LED_Init(Led_TypeDef Led)
{
 80011f8:	b580      	push	{r7, lr}
 80011fa:	b08a      	sub	sp, #40	; 0x28
 80011fc:	af00      	add	r7, sp, #0
 80011fe:	4603      	mov	r3, r0
 8001200:	71fb      	strb	r3, [r7, #7]
  GPIO_InitTypeDef  GPIO_InitStruct;
  
  /* Enable the GPIO_LED Clock */
  LEDx_GPIO_CLK_ENABLE(Led);
 8001202:	79fb      	ldrb	r3, [r7, #7]
 8001204:	2b00      	cmp	r3, #0
 8001206:	d10e      	bne.n	8001226 <BSP_LED_Init+0x2e>
 8001208:	2300      	movs	r3, #0
 800120a:	613b      	str	r3, [r7, #16]
 800120c:	4b1f      	ldr	r3, [pc, #124]	; (800128c <BSP_LED_Init+0x94>)
 800120e:	6b1b      	ldr	r3, [r3, #48]	; 0x30
 8001210:	4a1e      	ldr	r2, [pc, #120]	; (800128c <BSP_LED_Init+0x94>)
 8001212:	f043 0302 	orr.w	r3, r3, #2
 8001216:	6313      	str	r3, [r2, #48]	; 0x30
 8001218:	4b1c      	ldr	r3, [pc, #112]	; (800128c <BSP_LED_Init+0x94>)
 800121a:	6b1b      	ldr	r3, [r3, #48]	; 0x30
 800121c:	f003 0302 	and.w	r3, r3, #2
 8001220:	613b      	str	r3, [r7, #16]
 8001222:	693b      	ldr	r3, [r7, #16]
 8001224:	e00d      	b.n	8001242 <BSP_LED_Init+0x4a>
 8001226:	2300      	movs	r3, #0
 8001228:	60fb      	str	r3, [r7, #12]
 800122a:	4b18      	ldr	r3, [pc, #96]	; (800128c <BSP_LED_Init+0x94>)
 800122c:	6b1b      	ldr	r3, [r3, #48]	; 0x30
 800122e:	4a17      	ldr	r2, [pc, #92]	; (800128c <BSP_LED_Init+0x94>)
 8001230:	f043 0302 	orr.w	r3, r3, #2
 8001234:	6313      	str	r3, [r2, #48]	; 0x30
 8001236:	4b15      	ldr	r3, [pc, #84]	; (800128c <BSP_LED_Init+0x94>)
 8001238:	6b1b      	ldr	r3, [r3, #48]	; 0x30
 800123a:	f003 0302 	and.w	r3, r3, #2
 800123e:	60fb      	str	r3, [r7, #12]
 8001240:	68fb      	ldr	r3, [r7, #12]
  
  /* Configure the GPIO_LED pin */
  GPIO_InitStruct.Pin = GPIO_PIN[Led];
 8001242:	79fb      	ldrb	r3, [r7, #7]
 8001244:	4a12      	ldr	r2, [pc, #72]	; (8001290 <BSP_LED_Init+0x98>)
 8001246:	f832 3013 	ldrh.w	r3, [r2, r3, lsl #1]
 800124a:	617b      	str	r3, [r7, #20]
  GPIO_InitStruct.Mode = GPIO_MODE_OUTPUT_PP;
 800124c:	2301      	movs	r3, #1
 800124e:	61bb      	str	r3, [r7, #24]
  GPIO_InitStruct.Pull = GPIO_NOPULL;
 8001250:	2300      	movs	r3, #0
 8001252:	61fb      	str	r3, [r7, #28]
  GPIO_InitStruct.Speed = GPIO_SPEED_FAST;
 8001254:	2302      	movs	r3, #2
 8001256:	623b      	str	r3, [r7, #32]
  
  HAL_GPIO_Init(GPIO_PORT[Led], &GPIO_InitStruct);
 8001258:	79fb      	ldrb	r3, [r7, #7]
 800125a:	4a0e      	ldr	r2, [pc, #56]	; (8001294 <BSP_LED_Init+0x9c>)
 800125c:	f852 3023 	ldr.w	r3, [r2, r3, lsl #2]
 8001260:	f107 0214 	add.w	r2, r7, #20
 8001264:	4611      	mov	r1, r2
 8001266:	4618      	mov	r0, r3
 8001268:	f001 fa72 	bl	8002750 <HAL_GPIO_Init>
  HAL_GPIO_WritePin(GPIO_PORT[Led], GPIO_PIN[Led], GPIO_PIN_RESET); 
 800126c:	79fb      	ldrb	r3, [r7, #7]
 800126e:	4a09      	ldr	r2, [pc, #36]	; (8001294 <BSP_LED_Init+0x9c>)
 8001270:	f852 0023 	ldr.w	r0, [r2, r3, lsl #2]
 8001274:	79fb      	ldrb	r3, [r7, #7]
 8001276:	4a06      	ldr	r2, [pc, #24]	; (8001290 <BSP_LED_Init+0x98>)
 8001278:	f832 3013 	ldrh.w	r3, [r2, r3, lsl #1]
 800127c:	2200      	movs	r2, #0
 800127e:	4619      	mov	r1, r3
 8001280:	f001 fc12 	bl	8002aa8 <HAL_GPIO_WritePin>
}
 8001284:	bf00      	nop
 8001286:	3728      	adds	r7, #40	; 0x28
 8001288:	46bd      	mov	sp, r7
 800128a:	bd80      	pop	{r7, pc}
 800128c:	40023800 	.word	0x40023800
 8001290:	08006c90 	.word	0x08006c90
 8001294:	20000000 	.word	0x20000000

08001298 <BSP_LED_On>:
  * @param  Led: Specifies the Led to be set on. 
  *   This parameter can be one of following parameters:
  *     @arg LED2
  */
void BSP_LED_On(Led_TypeDef Led)
{
 8001298:	b580      	push	{r7, lr}
 800129a:	b082      	sub	sp, #8
 800129c:	af00      	add	r7, sp, #0
 800129e:	4603      	mov	r3, r0
 80012a0:	71fb      	strb	r3, [r7, #7]
  HAL_GPIO_WritePin(GPIO_PORT[Led], GPIO_PIN[Led], GPIO_PIN_SET); 
 80012a2:	79fb      	ldrb	r3, [r7, #7]
 80012a4:	4a07      	ldr	r2, [pc, #28]	; (80012c4 <BSP_LED_On+0x2c>)
 80012a6:	f852 0023 	ldr.w	r0, [r2, r3, lsl #2]
 80012aa:	79fb      	ldrb	r3, [r7, #7]
 80012ac:	4a06      	ldr	r2, [pc, #24]	; (80012c8 <BSP_LED_On+0x30>)
 80012ae:	f832 3013 	ldrh.w	r3, [r2, r3, lsl #1]
 80012b2:	2201      	movs	r2, #1
 80012b4:	4619      	mov	r1, r3
 80012b6:	f001 fbf7 	bl	8002aa8 <HAL_GPIO_WritePin>
}
 80012ba:	bf00      	nop
 80012bc:	3708      	adds	r7, #8
 80012be:	46bd      	mov	sp, r7
 80012c0:	bd80      	pop	{r7, pc}
 80012c2:	bf00      	nop
 80012c4:	20000000 	.word	0x20000000
 80012c8:	08006c90 	.word	0x08006c90

080012cc <BSP_LED_Toggle>:
  *     @arg  LED1
  *     @arg  LED2
  *     @arg  LED3 
  */
void BSP_LED_Toggle(Led_TypeDef Led)
{
 80012cc:	b580      	push	{r7, lr}
 80012ce:	b082      	sub	sp, #8
 80012d0:	af00      	add	r7, sp, #0
 80012d2:	4603      	mov	r3, r0
 80012d4:	71fb      	strb	r3, [r7, #7]
  HAL_GPIO_TogglePin(GPIO_PORT[Led], GPIO_PIN[Led]);
 80012d6:	79fb      	ldrb	r3, [r7, #7]
 80012d8:	4a07      	ldr	r2, [pc, #28]	; (80012f8 <BSP_LED_Toggle+0x2c>)
 80012da:	f852 2023 	ldr.w	r2, [r2, r3, lsl #2]
 80012de:	79fb      	ldrb	r3, [r7, #7]
 80012e0:	4906      	ldr	r1, [pc, #24]	; (80012fc <BSP_LED_Toggle+0x30>)
 80012e2:	f831 3013 	ldrh.w	r3, [r1, r3, lsl #1]
 80012e6:	4619      	mov	r1, r3
 80012e8:	4610      	mov	r0, r2
 80012ea:	f001 fbf6 	bl	8002ada <HAL_GPIO_TogglePin>
}
 80012ee:	bf00      	nop
 80012f0:	3708      	adds	r7, #8
 80012f2:	46bd      	mov	sp, r7
 80012f4:	bd80      	pop	{r7, pc}
 80012f6:	bf00      	nop
 80012f8:	20000000 	.word	0x20000000
 80012fc:	08006c90 	.word	0x08006c90

08001300 <BSP_PB_Init>:
  *     @arg BUTTON_MODE_GPIO: Button will be used as simple IO 
  *     @arg BUTTON_MODE_EXTI: Button will be connected to EXTI line with interrupt
  *                            generation capability  
  */
void BSP_PB_Init(Button_TypeDef Button, ButtonMode_TypeDef ButtonMode)
{
 8001300:	b580      	push	{r7, lr}
 8001302:	b088      	sub	sp, #32
 8001304:	af00      	add	r7, sp, #0
 8001306:	4603      	mov	r3, r0
 8001308:	460a      	mov	r2, r1
 800130a:	71fb      	strb	r3, [r7, #7]
 800130c:	4613      	mov	r3, r2
 800130e:	71bb      	strb	r3, [r7, #6]
  GPIO_InitTypeDef GPIO_InitStruct;
  
  /* Enable the BUTTON Clock */
  BUTTONx_GPIO_CLK_ENABLE(Button);
 8001310:	2300      	movs	r3, #0
 8001312:	60bb      	str	r3, [r7, #8]
 8001314:	4b23      	ldr	r3, [pc, #140]	; (80013a4 <BSP_PB_Init+0xa4>)
 8001316:	6b1b      	ldr	r3, [r3, #48]	; 0x30
 8001318:	4a22      	ldr	r2, [pc, #136]	; (80013a4 <BSP_PB_Init+0xa4>)
 800131a:	f043 0304 	orr.w	r3, r3, #4
 800131e:	6313      	str	r3, [r2, #48]	; 0x30
 8001320:	4b20      	ldr	r3, [pc, #128]	; (80013a4 <BSP_PB_Init+0xa4>)
 8001322:	6b1b      	ldr	r3, [r3, #48]	; 0x30
 8001324:	f003 0304 	and.w	r3, r3, #4
 8001328:	60bb      	str	r3, [r7, #8]
 800132a:	68bb      	ldr	r3, [r7, #8]
  
  if(ButtonMode == BUTTON_MODE_GPIO)
 800132c:	79bb      	ldrb	r3, [r7, #6]
 800132e:	2b00      	cmp	r3, #0
 8001330:	d112      	bne.n	8001358 <BSP_PB_Init+0x58>
  {
    /* Configure Button pin as input */
    GPIO_InitStruct.Pin = BUTTON_PIN[Button];
 8001332:	f44f 5300 	mov.w	r3, #8192	; 0x2000
 8001336:	60fb      	str	r3, [r7, #12]
    GPIO_InitStruct.Mode = GPIO_MODE_INPUT;
 8001338:	2300      	movs	r3, #0
 800133a:	613b      	str	r3, [r7, #16]
    GPIO_InitStruct.Pull = GPIO_PULLDOWN;
 800133c:	2302      	movs	r3, #2
 800133e:	617b      	str	r3, [r7, #20]
    GPIO_InitStruct.Speed = GPIO_SPEED_FAST;
 8001340:	2302      	movs	r3, #2
 8001342:	61bb      	str	r3, [r7, #24]
    HAL_GPIO_Init(BUTTON_PORT[Button], &GPIO_InitStruct);
 8001344:	79fb      	ldrb	r3, [r7, #7]
 8001346:	4a18      	ldr	r2, [pc, #96]	; (80013a8 <BSP_PB_Init+0xa8>)
 8001348:	f852 3023 	ldr.w	r3, [r2, r3, lsl #2]
 800134c:	f107 020c 	add.w	r2, r7, #12
 8001350:	4611      	mov	r1, r2
 8001352:	4618      	mov	r0, r3
 8001354:	f001 f9fc 	bl	8002750 <HAL_GPIO_Init>
  }
  
  if(ButtonMode == BUTTON_MODE_EXTI)
 8001358:	79bb      	ldrb	r3, [r7, #6]
 800135a:	2b01      	cmp	r3, #1
 800135c:	d11d      	bne.n	800139a <BSP_PB_Init+0x9a>
  {
    /* Configure Button pin as input with External interrupt */
    GPIO_InitStruct.Pin = BUTTON_PIN[Button];
 800135e:	f44f 5300 	mov.w	r3, #8192	; 0x2000
 8001362:	60fb      	str	r3, [r7, #12]
    GPIO_InitStruct.Pull = GPIO_NOPULL;
 8001364:	2300      	movs	r3, #0
 8001366:	617b      	str	r3, [r7, #20]
    GPIO_InitStruct.Mode = GPIO_MODE_IT_FALLING; 
 8001368:	f44f 1304 	mov.w	r3, #2162688	; 0x210000
 800136c:	613b      	str	r3, [r7, #16]
    HAL_GPIO_Init(BUTTON_PORT[Button], &GPIO_InitStruct);
 800136e:	79fb      	ldrb	r3, [r7, #7]
 8001370:	4a0d      	ldr	r2, [pc, #52]	; (80013a8 <BSP_PB_Init+0xa8>)
 8001372:	f852 3023 	ldr.w	r3, [r2, r3, lsl #2]
 8001376:	f107 020c 	add.w	r2, r7, #12
 800137a:	4611      	mov	r1, r2
 800137c:	4618      	mov	r0, r3
 800137e:	f001 f9e7 	bl	8002750 <HAL_GPIO_Init>
    
    /* Enable and set Button EXTI Interrupt to the lowest priority */
    HAL_NVIC_SetPriority((IRQn_Type)(BUTTON_IRQn[Button]), 0x0F, 0x00);
 8001382:	2328      	movs	r3, #40	; 0x28
 8001384:	b25b      	sxtb	r3, r3
 8001386:	2200      	movs	r2, #0
 8001388:	210f      	movs	r1, #15
 800138a:	4618      	mov	r0, r3
 800138c:	f000 febf 	bl	800210e <HAL_NVIC_SetPriority>
    HAL_NVIC_EnableIRQ((IRQn_Type)(BUTTON_IRQn[Button]));
 8001390:	2328      	movs	r3, #40	; 0x28
 8001392:	b25b      	sxtb	r3, r3
 8001394:	4618      	mov	r0, r3
 8001396:	f000 fed6 	bl	8002146 <HAL_NVIC_EnableIRQ>
  }
}
 800139a:	bf00      	nop
 800139c:	3720      	adds	r7, #32
 800139e:	46bd      	mov	sp, r7
 80013a0:	bd80      	pop	{r7, pc}
 80013a2:	bf00      	nop
 80013a4:	40023800 	.word	0x40023800
 80013a8:	2000000c 	.word	0x2000000c

080013ac <SystemInit>:
  *         configuration.
  * @param  None
  * @retval None
  */
void SystemInit(void)
{
 80013ac:	b480      	push	{r7}
 80013ae:	af00      	add	r7, sp, #0
  /* FPU settings ------------------------------------------------------------*/
  #if (__FPU_PRESENT == 1) && (__FPU_USED == 1)
    SCB->CPACR |= ((3UL << 10*2)|(3UL << 11*2));  /* set CP10 and CP11 Full Access */
 80013b0:	4b16      	ldr	r3, [pc, #88]	; (800140c <SystemInit+0x60>)
 80013b2:	f8d3 3088 	ldr.w	r3, [r3, #136]	; 0x88
 80013b6:	4a15      	ldr	r2, [pc, #84]	; (800140c <SystemInit+0x60>)
 80013b8:	f443 0370 	orr.w	r3, r3, #15728640	; 0xf00000
 80013bc:	f8c2 3088 	str.w	r3, [r2, #136]	; 0x88
  #endif
  /* Reset the RCC clock configuration to the default reset state ------------*/
  /* Set HSION bit */
  RCC->CR |= (uint32_t)0x00000001;
 80013c0:	4b13      	ldr	r3, [pc, #76]	; (8001410 <SystemInit+0x64>)
 80013c2:	681b      	ldr	r3, [r3, #0]
 80013c4:	4a12      	ldr	r2, [pc, #72]	; (8001410 <SystemInit+0x64>)
 80013c6:	f043 0301 	orr.w	r3, r3, #1
 80013ca:	6013      	str	r3, [r2, #0]

  /* Reset CFGR register */
  RCC->CFGR = 0x00000000;
 80013cc:	4b10      	ldr	r3, [pc, #64]	; (8001410 <SystemInit+0x64>)
 80013ce:	2200      	movs	r2, #0
 80013d0:	609a      	str	r2, [r3, #8]

  /* Reset HSEON, CSSON and PLLON bits */
  RCC->CR &= (uint32_t)0xFEF6FFFF;
 80013d2:	4b0f      	ldr	r3, [pc, #60]	; (8001410 <SystemInit+0x64>)
 80013d4:	681b      	ldr	r3, [r3, #0]
 80013d6:	4a0e      	ldr	r2, [pc, #56]	; (8001410 <SystemInit+0x64>)
 80013d8:	f023 7384 	bic.w	r3, r3, #17301504	; 0x1080000
 80013dc:	f423 3380 	bic.w	r3, r3, #65536	; 0x10000
 80013e0:	6013      	str	r3, [r2, #0]

  /* Reset PLLCFGR register */
  RCC->PLLCFGR = 0x24003010;
 80013e2:	4b0b      	ldr	r3, [pc, #44]	; (8001410 <SystemInit+0x64>)
 80013e4:	4a0b      	ldr	r2, [pc, #44]	; (8001414 <SystemInit+0x68>)
 80013e6:	605a      	str	r2, [r3, #4]

  /* Reset HSEBYP bit */
  RCC->CR &= (uint32_t)0xFFFBFFFF;
 80013e8:	4b09      	ldr	r3, [pc, #36]	; (8001410 <SystemInit+0x64>)
 80013ea:	681b      	ldr	r3, [r3, #0]
 80013ec:	4a08      	ldr	r2, [pc, #32]	; (8001410 <SystemInit+0x64>)
 80013ee:	f423 2380 	bic.w	r3, r3, #262144	; 0x40000
 80013f2:	6013      	str	r3, [r2, #0]

  /* Disable all interrupts */
  RCC->CIR = 0x00000000;
 80013f4:	4b06      	ldr	r3, [pc, #24]	; (8001410 <SystemInit+0x64>)
 80013f6:	2200      	movs	r2, #0
 80013f8:	60da      	str	r2, [r3, #12]

  /* Configure the Vector Table location add offset address ------------------*/
#ifdef VECT_TAB_SRAM
  SCB->VTOR = SRAM_BASE | VECT_TAB_OFFSET; /* Vector Table Relocation in Internal SRAM */
#else
  SCB->VTOR = FLASH_BASE | VECT_TAB_OFFSET; /* Vector Table Relocation in Internal FLASH */
 80013fa:	4b04      	ldr	r3, [pc, #16]	; (800140c <SystemInit+0x60>)
 80013fc:	f04f 6200 	mov.w	r2, #134217728	; 0x8000000
 8001400:	609a      	str	r2, [r3, #8]
#endif
}
 8001402:	bf00      	nop
 8001404:	46bd      	mov	sp, r7
 8001406:	f85d 7b04 	ldr.w	r7, [sp], #4
 800140a:	4770      	bx	lr
 800140c:	e000ed00 	.word	0xe000ed00
 8001410:	40023800 	.word	0x40023800
 8001414:	24003010 	.word	0x24003010

08001418 <NMI_Handler>:
  * @brief   This function handles NMI exception.
  * @param  None
  * @retval None
  */
void NMI_Handler(void)
{
 8001418:	b480      	push	{r7}
 800141a:	af00      	add	r7, sp, #0
}
 800141c:	bf00      	nop
 800141e:	46bd      	mov	sp, r7
 8001420:	f85d 7b04 	ldr.w	r7, [sp], #4
 8001424:	4770      	bx	lr

08001426 <HardFault_Handler>:
  * @brief  This function handles Hard Fault exception.
  * @param  None
  * @retval None
  */
void HardFault_Handler(void)
{
 8001426:	b480      	push	{r7}
 8001428:	af00      	add	r7, sp, #0
  /* Go to infinite loop when Hard Fault exception occurs */
  while (1)
 800142a:	e7fe      	b.n	800142a <HardFault_Handler+0x4>

0800142c <MemManage_Handler>:
  * @brief  This function handles Memory Manage exception.
  * @param  None
  * @retval None
  */
void MemManage_Handler(void)
{
 800142c:	b480      	push	{r7}
 800142e:	af00      	add	r7, sp, #0
  /* Go to infinite loop when Memory Manage exception occurs */
  while (1)
 8001430:	e7fe      	b.n	8001430 <MemManage_Handler+0x4>

08001432 <BusFault_Handler>:
  * @brief  This function handles Bus Fault exception.
  * @param  None
  * @retval None
  */
void BusFault_Handler(void)
{
 8001432:	b480      	push	{r7}
 8001434:	af00      	add	r7, sp, #0
  /* Go to infinite loop when Bus Fault exception occurs */
  while (1)
 8001436:	e7fe      	b.n	8001436 <BusFault_Handler+0x4>

08001438 <UsageFault_Handler>:
  * @brief  This function handles Usage Fault exception.
  * @param  None
  * @retval None
  */
void UsageFault_Handler(void)
{
 8001438:	b480      	push	{r7}
 800143a:	af00      	add	r7, sp, #0
  /* Go to infinite loop when Usage Fault exception occurs */
  while (1)
 800143c:	e7fe      	b.n	800143c <UsageFault_Handler+0x4>

0800143e <SVC_Handler>:
  * @brief  This function handles SVCall exception.
  * @param  None
  * @retval None
  */
void SVC_Handler(void)
{
 800143e:	b480      	push	{r7}
 8001440:	af00      	add	r7, sp, #0
}
 8001442:	bf00      	nop
 8001444:	46bd      	mov	sp, r7
 8001446:	f85d 7b04 	ldr.w	r7, [sp], #4
 800144a:	4770      	bx	lr

0800144c <DebugMon_Handler>:
  * @brief  This function handles Debug Monitor exception.
  * @param  None
  * @retval None
  */
void DebugMon_Handler(void)
{
 800144c:	b480      	push	{r7}
 800144e:	af00      	add	r7, sp, #0
}
 8001450:	bf00      	nop
 8001452:	46bd      	mov	sp, r7
 8001454:	f85d 7b04 	ldr.w	r7, [sp], #4
 8001458:	4770      	bx	lr

0800145a <PendSV_Handler>:
  * @brief  This function handles PendSVC exception.
  * @param  None
  * @retval None
  */
void PendSV_Handler(void)
{
 800145a:	b480      	push	{r7}
 800145c:	af00      	add	r7, sp, #0
}
 800145e:	bf00      	nop
 8001460:	46bd      	mov	sp, r7
 8001462:	f85d 7b04 	ldr.w	r7, [sp], #4
 8001466:	4770      	bx	lr

08001468 <SysTick_Handler>:
  * @brief  This function handles SysTick Handler.
  * @param  None
  * @retval None
  */
void SysTick_Handler(void)
{
 8001468:	b580      	push	{r7, lr}
 800146a:	af00      	add	r7, sp, #0
    HAL_IncTick();
 800146c:	f000 f920 	bl	80016b0 <HAL_IncTick>
}
 8001470:	bf00      	nop
 8001472:	bd80      	pop	{r7, pc}

08001474 <DMA2_Stream0_IRQHandler>:
* @brief  This function handles DMA interrupt request.
* @param  None
* @retval None
*/
void ADCx_DMA_IRQHandler(void)
{
 8001474:	b580      	push	{r7, lr}
 8001476:	af00      	add	r7, sp, #0
  HAL_DMA_IRQHandler(AdcHandle.DMA_Handle);
 8001478:	4b03      	ldr	r3, [pc, #12]	; (8001488 <DMA2_Stream0_IRQHandler+0x14>)
 800147a:	6b9b      	ldr	r3, [r3, #56]	; 0x38
 800147c:	4618      	mov	r0, r3
 800147e:	f000 ff2b 	bl	80022d8 <HAL_DMA_IRQHandler>
}
 8001482:	bf00      	nop
 8001484:	bd80      	pop	{r7, pc}
 8001486:	bf00      	nop
 8001488:	20000208 	.word	0x20000208

0800148c <_getpid>:
void initialise_monitor_handles()
{
}

int _getpid(void)
{
 800148c:	b480      	push	{r7}
 800148e:	af00      	add	r7, sp, #0
	return 1;
 8001490:	2301      	movs	r3, #1
}
 8001492:	4618      	mov	r0, r3
 8001494:	46bd      	mov	sp, r7
 8001496:	f85d 7b04 	ldr.w	r7, [sp], #4
 800149a:	4770      	bx	lr

0800149c <_kill>:

int _kill(int pid, int sig)
{
 800149c:	b580      	push	{r7, lr}
 800149e:	b082      	sub	sp, #8
 80014a0:	af00      	add	r7, sp, #0
 80014a2:	6078      	str	r0, [r7, #4]
 80014a4:	6039      	str	r1, [r7, #0]
	errno = EINVAL;
 80014a6:	f002 fd73 	bl	8003f90 <__errno>
 80014aa:	4603      	mov	r3, r0
 80014ac:	2216      	movs	r2, #22
 80014ae:	601a      	str	r2, [r3, #0]
	return -1;
 80014b0:	f04f 33ff 	mov.w	r3, #4294967295
}
 80014b4:	4618      	mov	r0, r3
 80014b6:	3708      	adds	r7, #8
 80014b8:	46bd      	mov	sp, r7
 80014ba:	bd80      	pop	{r7, pc}

080014bc <_exit>:

void _exit (int status)
{
 80014bc:	b580      	push	{r7, lr}
 80014be:	b082      	sub	sp, #8
 80014c0:	af00      	add	r7, sp, #0
 80014c2:	6078      	str	r0, [r7, #4]
	_kill(status, -1);
 80014c4:	f04f 31ff 	mov.w	r1, #4294967295
 80014c8:	6878      	ldr	r0, [r7, #4]
 80014ca:	f7ff ffe7 	bl	800149c <_kill>
	while (1) {}		/* Make sure we hang here */
 80014ce:	e7fe      	b.n	80014ce <_exit+0x12>

080014d0 <_read>:
}

__attribute__((weak)) int _read(int file, char *ptr, int len)
{
 80014d0:	b580      	push	{r7, lr}
 80014d2:	b086      	sub	sp, #24
 80014d4:	af00      	add	r7, sp, #0
 80014d6:	60f8      	str	r0, [r7, #12]
 80014d8:	60b9      	str	r1, [r7, #8]
 80014da:	607a      	str	r2, [r7, #4]
	int DataIdx;

	for (DataIdx = 0; DataIdx < len; DataIdx++)
 80014dc:	2300      	movs	r3, #0
 80014de:	617b      	str	r3, [r7, #20]
 80014e0:	e00a      	b.n	80014f8 <_read+0x28>
	{
		*ptr++ = __io_getchar();
 80014e2:	f3af 8000 	nop.w
 80014e6:	4601      	mov	r1, r0
 80014e8:	68bb      	ldr	r3, [r7, #8]
 80014ea:	1c5a      	adds	r2, r3, #1
 80014ec:	60ba      	str	r2, [r7, #8]
 80014ee:	b2ca      	uxtb	r2, r1
 80014f0:	701a      	strb	r2, [r3, #0]
	for (DataIdx = 0; DataIdx < len; DataIdx++)
 80014f2:	697b      	ldr	r3, [r7, #20]
 80014f4:	3301      	adds	r3, #1
 80014f6:	617b      	str	r3, [r7, #20]
 80014f8:	697a      	ldr	r2, [r7, #20]
 80014fa:	687b      	ldr	r3, [r7, #4]
 80014fc:	429a      	cmp	r2, r3
 80014fe:	dbf0      	blt.n	80014e2 <_read+0x12>
	}

return len;
 8001500:	687b      	ldr	r3, [r7, #4]
}
 8001502:	4618      	mov	r0, r3
 8001504:	3718      	adds	r7, #24
 8001506:	46bd      	mov	sp, r7
 8001508:	bd80      	pop	{r7, pc}

0800150a <_write>:

__attribute__((weak)) int _write(int file, char *ptr, int len)
{
 800150a:	b580      	push	{r7, lr}
 800150c:	b086      	sub	sp, #24
 800150e:	af00      	add	r7, sp, #0
 8001510:	60f8      	str	r0, [r7, #12]
 8001512:	60b9      	str	r1, [r7, #8]
 8001514:	607a      	str	r2, [r7, #4]
	int DataIdx;

	for (DataIdx = 0; DataIdx < len; DataIdx++)
 8001516:	2300      	movs	r3, #0
 8001518:	617b      	str	r3, [r7, #20]
 800151a:	e009      	b.n	8001530 <_write+0x26>
	{
		__io_putchar(*ptr++);
 800151c:	68bb      	ldr	r3, [r7, #8]
 800151e:	1c5a      	adds	r2, r3, #1
 8001520:	60ba      	str	r2, [r7, #8]
 8001522:	781b      	ldrb	r3, [r3, #0]
 8001524:	4618      	mov	r0, r3
 8001526:	f7ff fe55 	bl	80011d4 <__io_putchar>
	for (DataIdx = 0; DataIdx < len; DataIdx++)
 800152a:	697b      	ldr	r3, [r7, #20]
 800152c:	3301      	adds	r3, #1
 800152e:	617b      	str	r3, [r7, #20]
 8001530:	697a      	ldr	r2, [r7, #20]
 8001532:	687b      	ldr	r3, [r7, #4]
 8001534:	429a      	cmp	r2, r3
 8001536:	dbf1      	blt.n	800151c <_write+0x12>
	}
	return len;
 8001538:	687b      	ldr	r3, [r7, #4]
}
 800153a:	4618      	mov	r0, r3
 800153c:	3718      	adds	r7, #24
 800153e:	46bd      	mov	sp, r7
 8001540:	bd80      	pop	{r7, pc}

08001542 <_close>:

int _close(int file)
{
 8001542:	b480      	push	{r7}
 8001544:	b083      	sub	sp, #12
 8001546:	af00      	add	r7, sp, #0
 8001548:	6078      	str	r0, [r7, #4]
	return -1;
 800154a:	f04f 33ff 	mov.w	r3, #4294967295
}
 800154e:	4618      	mov	r0, r3
 8001550:	370c      	adds	r7, #12
 8001552:	46bd      	mov	sp, r7
 8001554:	f85d 7b04 	ldr.w	r7, [sp], #4
 8001558:	4770      	bx	lr

0800155a <_fstat>:


int _fstat(int file, struct stat *st)
{
 800155a:	b480      	push	{r7}
 800155c:	b083      	sub	sp, #12
 800155e:	af00      	add	r7, sp, #0
 8001560:	6078      	str	r0, [r7, #4]
 8001562:	6039      	str	r1, [r7, #0]
	st->st_mode = S_IFCHR;
 8001564:	683b      	ldr	r3, [r7, #0]
 8001566:	f44f 5200 	mov.w	r2, #8192	; 0x2000
 800156a:	605a      	str	r2, [r3, #4]
	return 0;
 800156c:	2300      	movs	r3, #0
}
 800156e:	4618      	mov	r0, r3
 8001570:	370c      	adds	r7, #12
 8001572:	46bd      	mov	sp, r7
 8001574:	f85d 7b04 	ldr.w	r7, [sp], #4
 8001578:	4770      	bx	lr

0800157a <_isatty>:

int _isatty(int file)
{
 800157a:	b480      	push	{r7}
 800157c:	b083      	sub	sp, #12
 800157e:	af00      	add	r7, sp, #0
 8001580:	6078      	str	r0, [r7, #4]
	return 1;
 8001582:	2301      	movs	r3, #1
}
 8001584:	4618      	mov	r0, r3
 8001586:	370c      	adds	r7, #12
 8001588:	46bd      	mov	sp, r7
 800158a:	f85d 7b04 	ldr.w	r7, [sp], #4
 800158e:	4770      	bx	lr

08001590 <_lseek>:

int _lseek(int file, int ptr, int dir)
{
 8001590:	b480      	push	{r7}
 8001592:	b085      	sub	sp, #20
 8001594:	af00      	add	r7, sp, #0
 8001596:	60f8      	str	r0, [r7, #12]
 8001598:	60b9      	str	r1, [r7, #8]
 800159a:	607a      	str	r2, [r7, #4]
	return 0;
 800159c:	2300      	movs	r3, #0
}
 800159e:	4618      	mov	r0, r3
 80015a0:	3714      	adds	r7, #20
 80015a2:	46bd      	mov	sp, r7
 80015a4:	f85d 7b04 	ldr.w	r7, [sp], #4
 80015a8:	4770      	bx	lr
	...

080015ac <_sbrk>:
 *
 * @param incr Memory size
 * @return Pointer to allocated memory
 */
void *_sbrk(ptrdiff_t incr)
{
 80015ac:	b580      	push	{r7, lr}
 80015ae:	b086      	sub	sp, #24
 80015b0:	af00      	add	r7, sp, #0
 80015b2:	6078      	str	r0, [r7, #4]
  extern uint8_t _end; /* Symbol defined in the linker script */
  extern uint8_t _estack; /* Symbol defined in the linker script */
  extern uint32_t _Min_Stack_Size; /* Symbol defined in the linker script */
  const uint32_t stack_limit = (uint32_t)&_estack - (uint32_t)&_Min_Stack_Size;
 80015b4:	4a14      	ldr	r2, [pc, #80]	; (8001608 <_sbrk+0x5c>)
 80015b6:	4b15      	ldr	r3, [pc, #84]	; (800160c <_sbrk+0x60>)
 80015b8:	1ad3      	subs	r3, r2, r3
 80015ba:	617b      	str	r3, [r7, #20]
  const uint8_t *max_heap = (uint8_t *)stack_limit;
 80015bc:	697b      	ldr	r3, [r7, #20]
 80015be:	613b      	str	r3, [r7, #16]
  uint8_t *prev_heap_end;

  /* Initialize heap end at first call */
  if (NULL == __sbrk_heap_end)
 80015c0:	4b13      	ldr	r3, [pc, #76]	; (8001610 <_sbrk+0x64>)
 80015c2:	681b      	ldr	r3, [r3, #0]
 80015c4:	2b00      	cmp	r3, #0
 80015c6:	d102      	bne.n	80015ce <_sbrk+0x22>
  {
    __sbrk_heap_end = &_end;
 80015c8:	4b11      	ldr	r3, [pc, #68]	; (8001610 <_sbrk+0x64>)
 80015ca:	4a12      	ldr	r2, [pc, #72]	; (8001614 <_sbrk+0x68>)
 80015cc:	601a      	str	r2, [r3, #0]
  }

  /* Protect heap from growing into the reserved MSP stack */
  if (__sbrk_heap_end + incr > max_heap)
 80015ce:	4b10      	ldr	r3, [pc, #64]	; (8001610 <_sbrk+0x64>)
 80015d0:	681a      	ldr	r2, [r3, #0]
 80015d2:	687b      	ldr	r3, [r7, #4]
 80015d4:	4413      	add	r3, r2
 80015d6:	693a      	ldr	r2, [r7, #16]
 80015d8:	429a      	cmp	r2, r3
 80015da:	d207      	bcs.n	80015ec <_sbrk+0x40>
  {
    errno = ENOMEM;
 80015dc:	f002 fcd8 	bl	8003f90 <__errno>
 80015e0:	4603      	mov	r3, r0
 80015e2:	220c      	movs	r2, #12
 80015e4:	601a      	str	r2, [r3, #0]
    return (void *)-1;
 80015e6:	f04f 33ff 	mov.w	r3, #4294967295
 80015ea:	e009      	b.n	8001600 <_sbrk+0x54>
  }

  prev_heap_end = __sbrk_heap_end;
 80015ec:	4b08      	ldr	r3, [pc, #32]	; (8001610 <_sbrk+0x64>)
 80015ee:	681b      	ldr	r3, [r3, #0]
 80015f0:	60fb      	str	r3, [r7, #12]
  __sbrk_heap_end += incr;
 80015f2:	4b07      	ldr	r3, [pc, #28]	; (8001610 <_sbrk+0x64>)
 80015f4:	681a      	ldr	r2, [r3, #0]
 80015f6:	687b      	ldr	r3, [r7, #4]
 80015f8:	4413      	add	r3, r2
 80015fa:	4a05      	ldr	r2, [pc, #20]	; (8001610 <_sbrk+0x64>)
 80015fc:	6013      	str	r3, [r2, #0]

  return (void *)prev_heap_end;
 80015fe:	68fb      	ldr	r3, [r7, #12]
}
 8001600:	4618      	mov	r0, r3
 8001602:	3718      	adds	r7, #24
 8001604:	46bd      	mov	sp, r7
 8001606:	bd80      	pop	{r7, pc}
 8001608:	20030000 	.word	0x20030000
 800160c:	00000400 	.word	0x00000400
 8001610:	200002a4 	.word	0x200002a4
 8001614:	20000320 	.word	0x20000320

08001618 <HAL_Init>:
  *         need to ensure that the SysTick time base is always set to 1 millisecond
  *         to have correct HAL operation.
  * @retval HAL status
  */
HAL_StatusTypeDef HAL_Init(void)
{
 8001618:	b580      	push	{r7, lr}
 800161a:	af00      	add	r7, sp, #0
  /* Configure Flash prefetch, Instruction cache, Data cache */ 
#if (INSTRUCTION_CACHE_ENABLE != 0U)
  __HAL_FLASH_INSTRUCTION_CACHE_ENABLE();
 800161c:	4b0b      	ldr	r3, [pc, #44]	; (800164c <HAL_Init+0x34>)
 800161e:	681b      	ldr	r3, [r3, #0]
 8001620:	4a0a      	ldr	r2, [pc, #40]	; (800164c <HAL_Init+0x34>)
 8001622:	f443 7300 	orr.w	r3, r3, #512	; 0x200
 8001626:	6013      	str	r3, [r2, #0]
#if (DATA_CACHE_ENABLE != 0U)
  __HAL_FLASH_DATA_CACHE_ENABLE();
#endif /* DATA_CACHE_ENABLE */

#if (PREFETCH_ENABLE != 0U)
  __HAL_FLASH_PREFETCH_BUFFER_ENABLE();
 8001628:	4b08      	ldr	r3, [pc, #32]	; (800164c <HAL_Init+0x34>)
 800162a:	681b      	ldr	r3, [r3, #0]
 800162c:	4a07      	ldr	r2, [pc, #28]	; (800164c <HAL_Init+0x34>)
 800162e:	f443 7380 	orr.w	r3, r3, #256	; 0x100
 8001632:	6013      	str	r3, [r2, #0]
#endif /* PREFETCH_ENABLE */

  /* Set Interrupt Group Priority */
  HAL_NVIC_SetPriorityGrouping(NVIC_PRIORITYGROUP_4);
 8001634:	2003      	movs	r0, #3
 8001636:	f000 fd5f 	bl	80020f8 <HAL_NVIC_SetPriorityGrouping>

  /* Use systick as time base source and configure 1ms tick (default clock after Reset is HSI) */
  HAL_InitTick(TICK_INT_PRIORITY);
 800163a:	200f      	movs	r0, #15
 800163c:	f000 f808 	bl	8001650 <HAL_InitTick>

  /* Init the low level hardware */
  HAL_MspInit();
 8001640:	f001 fb3c 	bl	8002cbc <HAL_MspInit>

  /* Return function status */
  return HAL_OK;
 8001644:	2300      	movs	r3, #0
}
 8001646:	4618      	mov	r0, r3
 8001648:	bd80      	pop	{r7, pc}
 800164a:	bf00      	nop
 800164c:	40023c00 	.word	0x40023c00

08001650 <HAL_InitTick>:
  *       implementation  in user file.
  * @param TickPriority Tick interrupt priority.
  * @retval HAL status
  */
__weak HAL_StatusTypeDef HAL_InitTick(uint32_t TickPriority)
{
 8001650:	b580      	push	{r7, lr}
 8001652:	b082      	sub	sp, #8
 8001654:	af00      	add	r7, sp, #0
 8001656:	6078      	str	r0, [r7, #4]
  /* Configure the SysTick to have interrupt in 1ms time basis*/
  if (HAL_SYSTICK_Config(SystemCoreClock / (1000U / uwTickFreq)) > 0U)
 8001658:	4b12      	ldr	r3, [pc, #72]	; (80016a4 <HAL_InitTick+0x54>)
 800165a:	681a      	ldr	r2, [r3, #0]
 800165c:	4b12      	ldr	r3, [pc, #72]	; (80016a8 <HAL_InitTick+0x58>)
 800165e:	781b      	ldrb	r3, [r3, #0]
 8001660:	4619      	mov	r1, r3
 8001662:	f44f 737a 	mov.w	r3, #1000	; 0x3e8
 8001666:	fbb3 f3f1 	udiv	r3, r3, r1
 800166a:	fbb2 f3f3 	udiv	r3, r2, r3
 800166e:	4618      	mov	r0, r3
 8001670:	f000 fd77 	bl	8002162 <HAL_SYSTICK_Config>
 8001674:	4603      	mov	r3, r0
 8001676:	2b00      	cmp	r3, #0
 8001678:	d001      	beq.n	800167e <HAL_InitTick+0x2e>
  {
    return HAL_ERROR;
 800167a:	2301      	movs	r3, #1
 800167c:	e00e      	b.n	800169c <HAL_InitTick+0x4c>
  }

  /* Configure the SysTick IRQ priority */
  if (TickPriority < (1UL << __NVIC_PRIO_BITS))
 800167e:	687b      	ldr	r3, [r7, #4]
 8001680:	2b0f      	cmp	r3, #15
 8001682:	d80a      	bhi.n	800169a <HAL_InitTick+0x4a>
  {
    HAL_NVIC_SetPriority(SysTick_IRQn, TickPriority, 0U);
 8001684:	2200      	movs	r2, #0
 8001686:	6879      	ldr	r1, [r7, #4]
 8001688:	f04f 30ff 	mov.w	r0, #4294967295
 800168c:	f000 fd3f 	bl	800210e <HAL_NVIC_SetPriority>
    uwTickPrio = TickPriority;
 8001690:	4a06      	ldr	r2, [pc, #24]	; (80016ac <HAL_InitTick+0x5c>)
 8001692:	687b      	ldr	r3, [r7, #4]
 8001694:	6013      	str	r3, [r2, #0]
  {
    return HAL_ERROR;
  }

  /* Return function status */
  return HAL_OK;
 8001696:	2300      	movs	r3, #0
 8001698:	e000      	b.n	800169c <HAL_InitTick+0x4c>
    return HAL_ERROR;
 800169a:	2301      	movs	r3, #1
}
 800169c:	4618      	mov	r0, r3
 800169e:	3708      	adds	r7, #8
 80016a0:	46bd      	mov	sp, r7
 80016a2:	bd80      	pop	{r7, pc}
 80016a4:	20000010 	.word	0x20000010
 80016a8:	20000018 	.word	0x20000018
 80016ac:	20000014 	.word	0x20000014

080016b0 <HAL_IncTick>:
 * @note This function is declared as __weak to be overwritten in case of other 
  *      implementations in user file.
  * @retval None
  */
__weak void HAL_IncTick(void)
{
 80016b0:	b480      	push	{r7}
 80016b2:	af00      	add	r7, sp, #0
  uwTick += uwTickFreq;
 80016b4:	4b06      	ldr	r3, [pc, #24]	; (80016d0 <HAL_IncTick+0x20>)
 80016b6:	781b      	ldrb	r3, [r3, #0]
 80016b8:	461a      	mov	r2, r3
 80016ba:	4b06      	ldr	r3, [pc, #24]	; (80016d4 <HAL_IncTick+0x24>)
 80016bc:	681b      	ldr	r3, [r3, #0]
 80016be:	4413      	add	r3, r2
 80016c0:	4a04      	ldr	r2, [pc, #16]	; (80016d4 <HAL_IncTick+0x24>)
 80016c2:	6013      	str	r3, [r2, #0]
}
 80016c4:	bf00      	nop
 80016c6:	46bd      	mov	sp, r7
 80016c8:	f85d 7b04 	ldr.w	r7, [sp], #4
 80016cc:	4770      	bx	lr
 80016ce:	bf00      	nop
 80016d0:	20000018 	.word	0x20000018
 80016d4:	200002a8 	.word	0x200002a8

080016d8 <HAL_GetTick>:
  * @note This function is declared as __weak to be overwritten in case of other 
  *       implementations in user file.
  * @retval tick value
  */
__weak uint32_t HAL_GetTick(void)
{
 80016d8:	b480      	push	{r7}
 80016da:	af00      	add	r7, sp, #0
  return uwTick;
 80016dc:	4b03      	ldr	r3, [pc, #12]	; (80016ec <HAL_GetTick+0x14>)
 80016de:	681b      	ldr	r3, [r3, #0]
}
 80016e0:	4618      	mov	r0, r3
 80016e2:	46bd      	mov	sp, r7
 80016e4:	f85d 7b04 	ldr.w	r7, [sp], #4
 80016e8:	4770      	bx	lr
 80016ea:	bf00      	nop
 80016ec:	200002a8 	.word	0x200002a8

080016f0 <HAL_Delay>:
  *       implementations in user file.
  * @param Delay specifies the delay time length, in milliseconds.
  * @retval None
  */
__weak void HAL_Delay(uint32_t Delay)
{
 80016f0:	b580      	push	{r7, lr}
 80016f2:	b084      	sub	sp, #16
 80016f4:	af00      	add	r7, sp, #0
 80016f6:	6078      	str	r0, [r7, #4]
  uint32_t tickstart = HAL_GetTick();
 80016f8:	f7ff ffee 	bl	80016d8 <HAL_GetTick>
 80016fc:	60b8      	str	r0, [r7, #8]
  uint32_t wait = Delay;
 80016fe:	687b      	ldr	r3, [r7, #4]
 8001700:	60fb      	str	r3, [r7, #12]

  /* Add a freq to guarantee minimum wait */
  if (wait < HAL_MAX_DELAY)
 8001702:	68fb      	ldr	r3, [r7, #12]
 8001704:	f1b3 3fff 	cmp.w	r3, #4294967295
 8001708:	d005      	beq.n	8001716 <HAL_Delay+0x26>
  {
    wait += (uint32_t)(uwTickFreq);
 800170a:	4b0a      	ldr	r3, [pc, #40]	; (8001734 <HAL_Delay+0x44>)
 800170c:	781b      	ldrb	r3, [r3, #0]
 800170e:	461a      	mov	r2, r3
 8001710:	68fb      	ldr	r3, [r7, #12]
 8001712:	4413      	add	r3, r2
 8001714:	60fb      	str	r3, [r7, #12]
  }

  while((HAL_GetTick() - tickstart) < wait)
 8001716:	bf00      	nop
 8001718:	f7ff ffde 	bl	80016d8 <HAL_GetTick>
 800171c:	4602      	mov	r2, r0
 800171e:	68bb      	ldr	r3, [r7, #8]
 8001720:	1ad3      	subs	r3, r2, r3
 8001722:	68fa      	ldr	r2, [r7, #12]
 8001724:	429a      	cmp	r2, r3
 8001726:	d8f7      	bhi.n	8001718 <HAL_Delay+0x28>
  {
  }
}
 8001728:	bf00      	nop
 800172a:	bf00      	nop
 800172c:	3710      	adds	r7, #16
 800172e:	46bd      	mov	sp, r7
 8001730:	bd80      	pop	{r7, pc}
 8001732:	bf00      	nop
 8001734:	20000018 	.word	0x20000018

08001738 <HAL_ADC_Init>:
  * @param  hadc pointer to a ADC_HandleTypeDef structure that contains
  *         the configuration information for the specified ADC.  
  * @retval HAL status
  */
HAL_StatusTypeDef HAL_ADC_Init(ADC_HandleTypeDef* hadc)
{
 8001738:	b580      	push	{r7, lr}
 800173a:	b084      	sub	sp, #16
 800173c:	af00      	add	r7, sp, #0
 800173e:	6078      	str	r0, [r7, #4]
  HAL_StatusTypeDef tmp_hal_status = HAL_OK;
 8001740:	2300      	movs	r3, #0
 8001742:	73fb      	strb	r3, [r7, #15]
  
  /* Check ADC handle */
  if(hadc == NULL)
 8001744:	687b      	ldr	r3, [r7, #4]
 8001746:	2b00      	cmp	r3, #0
 8001748:	d101      	bne.n	800174e <HAL_ADC_Init+0x16>
  {
    return HAL_ERROR;
 800174a:	2301      	movs	r3, #1
 800174c:	e033      	b.n	80017b6 <HAL_ADC_Init+0x7e>
  if(hadc->Init.ExternalTrigConv != ADC_SOFTWARE_START)
  {
    assert_param(IS_ADC_EXT_TRIG_EDGE(hadc->Init.ExternalTrigConvEdge));
  }
  
  if(hadc->State == HAL_ADC_STATE_RESET)
 800174e:	687b      	ldr	r3, [r7, #4]
 8001750:	6c1b      	ldr	r3, [r3, #64]	; 0x40
 8001752:	2b00      	cmp	r3, #0
 8001754:	d109      	bne.n	800176a <HAL_ADC_Init+0x32>

    /* Init the low level hardware */
    hadc->MspInitCallback(hadc);
#else
    /* Init the low level hardware */
    HAL_ADC_MspInit(hadc);
 8001756:	6878      	ldr	r0, [r7, #4]
 8001758:	f001 f9da 	bl	8002b10 <HAL_ADC_MspInit>
#endif /* USE_HAL_ADC_REGISTER_CALLBACKS */

    /* Initialize ADC error code */
    ADC_CLEAR_ERRORCODE(hadc);
 800175c:	687b      	ldr	r3, [r7, #4]
 800175e:	2200      	movs	r2, #0
 8001760:	645a      	str	r2, [r3, #68]	; 0x44
    
    /* Allocate lock resource and initialize it */
    hadc->Lock = HAL_UNLOCKED;
 8001762:	687b      	ldr	r3, [r7, #4]
 8001764:	2200      	movs	r2, #0
 8001766:	f883 203c 	strb.w	r2, [r3, #60]	; 0x3c
  }
  
  /* Configuration of ADC parameters if previous preliminary actions are      */ 
  /* correctly completed.                                                     */
  if (HAL_IS_BIT_CLR(hadc->State, HAL_ADC_STATE_ERROR_INTERNAL))
 800176a:	687b      	ldr	r3, [r7, #4]
 800176c:	6c1b      	ldr	r3, [r3, #64]	; 0x40
 800176e:	f003 0310 	and.w	r3, r3, #16
 8001772:	2b00      	cmp	r3, #0
 8001774:	d118      	bne.n	80017a8 <HAL_ADC_Init+0x70>
  {
    /* Set ADC state */
    ADC_STATE_CLR_SET(hadc->State,
 8001776:	687b      	ldr	r3, [r7, #4]
 8001778:	6c1b      	ldr	r3, [r3, #64]	; 0x40
 800177a:	f423 5388 	bic.w	r3, r3, #4352	; 0x1100
 800177e:	f023 0302 	bic.w	r3, r3, #2
 8001782:	f043 0202 	orr.w	r2, r3, #2
 8001786:	687b      	ldr	r3, [r7, #4]
 8001788:	641a      	str	r2, [r3, #64]	; 0x40
                      HAL_ADC_STATE_REG_BUSY | HAL_ADC_STATE_INJ_BUSY,
                      HAL_ADC_STATE_BUSY_INTERNAL);
    
    /* Set ADC parameters */
    ADC_Init(hadc);
 800178a:	6878      	ldr	r0, [r7, #4]
 800178c:	f000 fae8 	bl	8001d60 <ADC_Init>
    
    /* Set ADC error code to none */
    ADC_CLEAR_ERRORCODE(hadc);
 8001790:	687b      	ldr	r3, [r7, #4]
 8001792:	2200      	movs	r2, #0
 8001794:	645a      	str	r2, [r3, #68]	; 0x44
    
    /* Set the ADC state */
    ADC_STATE_CLR_SET(hadc->State,
 8001796:	687b      	ldr	r3, [r7, #4]
 8001798:	6c1b      	ldr	r3, [r3, #64]	; 0x40
 800179a:	f023 0303 	bic.w	r3, r3, #3
 800179e:	f043 0201 	orr.w	r2, r3, #1
 80017a2:	687b      	ldr	r3, [r7, #4]
 80017a4:	641a      	str	r2, [r3, #64]	; 0x40
 80017a6:	e001      	b.n	80017ac <HAL_ADC_Init+0x74>
                      HAL_ADC_STATE_BUSY_INTERNAL,
                      HAL_ADC_STATE_READY);
  }
  else
  {
    tmp_hal_status = HAL_ERROR;
 80017a8:	2301      	movs	r3, #1
 80017aa:	73fb      	strb	r3, [r7, #15]
  }
  
  /* Release Lock */
  __HAL_UNLOCK(hadc);
 80017ac:	687b      	ldr	r3, [r7, #4]
 80017ae:	2200      	movs	r2, #0
 80017b0:	f883 203c 	strb.w	r2, [r3, #60]	; 0x3c

  /* Return function status */
  return tmp_hal_status;
 80017b4:	7bfb      	ldrb	r3, [r7, #15]
}
 80017b6:	4618      	mov	r0, r3
 80017b8:	3710      	adds	r7, #16
 80017ba:	46bd      	mov	sp, r7
 80017bc:	bd80      	pop	{r7, pc}
	...

080017c0 <HAL_ADC_Start>:
  * @param  hadc pointer to a ADC_HandleTypeDef structure that contains
  *         the configuration information for the specified ADC.
  * @retval HAL status
  */
HAL_StatusTypeDef HAL_ADC_Start(ADC_HandleTypeDef* hadc)
{
 80017c0:	b480      	push	{r7}
 80017c2:	b085      	sub	sp, #20
 80017c4:	af00      	add	r7, sp, #0
 80017c6:	6078      	str	r0, [r7, #4]
  __IO uint32_t counter = 0U;
 80017c8:	2300      	movs	r3, #0
 80017ca:	60bb      	str	r3, [r7, #8]
  /* Check the parameters */
  assert_param(IS_FUNCTIONAL_STATE(hadc->Init.ContinuousConvMode));
  assert_param(IS_ADC_EXT_TRIG_EDGE(hadc->Init.ExternalTrigConvEdge)); 
  
  /* Process locked */
  __HAL_LOCK(hadc);
 80017cc:	687b      	ldr	r3, [r7, #4]
 80017ce:	f893 303c 	ldrb.w	r3, [r3, #60]	; 0x3c
 80017d2:	2b01      	cmp	r3, #1
 80017d4:	d101      	bne.n	80017da <HAL_ADC_Start+0x1a>
 80017d6:	2302      	movs	r3, #2
 80017d8:	e0b2      	b.n	8001940 <HAL_ADC_Start+0x180>
 80017da:	687b      	ldr	r3, [r7, #4]
 80017dc:	2201      	movs	r2, #1
 80017de:	f883 203c 	strb.w	r2, [r3, #60]	; 0x3c
  
  /* Enable the ADC peripheral */
  /* Check if ADC peripheral is disabled in order to enable it and wait during 
  Tstab time the ADC's stabilization */
  if((hadc->Instance->CR2 & ADC_CR2_ADON) != ADC_CR2_ADON)
 80017e2:	687b      	ldr	r3, [r7, #4]
 80017e4:	681b      	ldr	r3, [r3, #0]
 80017e6:	689b      	ldr	r3, [r3, #8]
 80017e8:	f003 0301 	and.w	r3, r3, #1
 80017ec:	2b01      	cmp	r3, #1
 80017ee:	d018      	beq.n	8001822 <HAL_ADC_Start+0x62>
  {  
    /* Enable the Peripheral */
    __HAL_ADC_ENABLE(hadc);
 80017f0:	687b      	ldr	r3, [r7, #4]
 80017f2:	681b      	ldr	r3, [r3, #0]
 80017f4:	689a      	ldr	r2, [r3, #8]
 80017f6:	687b      	ldr	r3, [r7, #4]
 80017f8:	681b      	ldr	r3, [r3, #0]
 80017fa:	f042 0201 	orr.w	r2, r2, #1
 80017fe:	609a      	str	r2, [r3, #8]
    
    /* Delay for ADC stabilization time */
    /* Compute number of CPU cycles to wait for */
    counter = (ADC_STAB_DELAY_US * (SystemCoreClock / 1000000U));
 8001800:	4b52      	ldr	r3, [pc, #328]	; (800194c <HAL_ADC_Start+0x18c>)
 8001802:	681b      	ldr	r3, [r3, #0]
 8001804:	4a52      	ldr	r2, [pc, #328]	; (8001950 <HAL_ADC_Start+0x190>)
 8001806:	fba2 2303 	umull	r2, r3, r2, r3
 800180a:	0c9a      	lsrs	r2, r3, #18
 800180c:	4613      	mov	r3, r2
 800180e:	005b      	lsls	r3, r3, #1
 8001810:	4413      	add	r3, r2
 8001812:	60bb      	str	r3, [r7, #8]
    while(counter != 0U)
 8001814:	e002      	b.n	800181c <HAL_ADC_Start+0x5c>
    {
      counter--;
 8001816:	68bb      	ldr	r3, [r7, #8]
 8001818:	3b01      	subs	r3, #1
 800181a:	60bb      	str	r3, [r7, #8]
    while(counter != 0U)
 800181c:	68bb      	ldr	r3, [r7, #8]
 800181e:	2b00      	cmp	r3, #0
 8001820:	d1f9      	bne.n	8001816 <HAL_ADC_Start+0x56>
    }
  }
  
  /* Start conversion if ADC is effectively enabled */
  if(HAL_IS_BIT_SET(hadc->Instance->CR2, ADC_CR2_ADON))
 8001822:	687b      	ldr	r3, [r7, #4]
 8001824:	681b      	ldr	r3, [r3, #0]
 8001826:	689b      	ldr	r3, [r3, #8]
 8001828:	f003 0301 	and.w	r3, r3, #1
 800182c:	2b01      	cmp	r3, #1
 800182e:	d17a      	bne.n	8001926 <HAL_ADC_Start+0x166>
  {
    /* Set ADC state                                                          */
    /* - Clear state bitfield related to regular group conversion results     */
    /* - Set state bitfield related to regular group operation                */
    ADC_STATE_CLR_SET(hadc->State,
 8001830:	687b      	ldr	r3, [r7, #4]
 8001832:	6c1b      	ldr	r3, [r3, #64]	; 0x40
 8001834:	f423 63e0 	bic.w	r3, r3, #1792	; 0x700
 8001838:	f023 0301 	bic.w	r3, r3, #1
 800183c:	f443 7280 	orr.w	r2, r3, #256	; 0x100
 8001840:	687b      	ldr	r3, [r7, #4]
 8001842:	641a      	str	r2, [r3, #64]	; 0x40
                      HAL_ADC_STATE_READY | HAL_ADC_STATE_REG_EOC | HAL_ADC_STATE_REG_OVR,
                      HAL_ADC_STATE_REG_BUSY);
    
    /* If conversions on group regular are also triggering group injected,    */
    /* update ADC state.                                                      */
    if (READ_BIT(hadc->Instance->CR1, ADC_CR1_JAUTO) != RESET)
 8001844:	687b      	ldr	r3, [r7, #4]
 8001846:	681b      	ldr	r3, [r3, #0]
 8001848:	685b      	ldr	r3, [r3, #4]
 800184a:	f403 6380 	and.w	r3, r3, #1024	; 0x400
 800184e:	2b00      	cmp	r3, #0
 8001850:	d007      	beq.n	8001862 <HAL_ADC_Start+0xa2>
    {
      ADC_STATE_CLR_SET(hadc->State, HAL_ADC_STATE_INJ_EOC, HAL_ADC_STATE_INJ_BUSY);  
 8001852:	687b      	ldr	r3, [r7, #4]
 8001854:	6c1b      	ldr	r3, [r3, #64]	; 0x40
 8001856:	f423 5340 	bic.w	r3, r3, #12288	; 0x3000
 800185a:	f443 5280 	orr.w	r2, r3, #4096	; 0x1000
 800185e:	687b      	ldr	r3, [r7, #4]
 8001860:	641a      	str	r2, [r3, #64]	; 0x40
    }
    
    /* State machine update: Check if an injected conversion is ongoing */
    if (HAL_IS_BIT_SET(hadc->State, HAL_ADC_STATE_INJ_BUSY))
 8001862:	687b      	ldr	r3, [r7, #4]
 8001864:	6c1b      	ldr	r3, [r3, #64]	; 0x40
 8001866:	f403 5380 	and.w	r3, r3, #4096	; 0x1000
 800186a:	f5b3 5f80 	cmp.w	r3, #4096	; 0x1000
 800186e:	d106      	bne.n	800187e <HAL_ADC_Start+0xbe>
    {
      /* Reset ADC error code fields related to conversions on group regular */
      CLEAR_BIT(hadc->ErrorCode, (HAL_ADC_ERROR_OVR | HAL_ADC_ERROR_DMA));         
 8001870:	687b      	ldr	r3, [r7, #4]
 8001872:	6c5b      	ldr	r3, [r3, #68]	; 0x44
 8001874:	f023 0206 	bic.w	r2, r3, #6
 8001878:	687b      	ldr	r3, [r7, #4]
 800187a:	645a      	str	r2, [r3, #68]	; 0x44
 800187c:	e002      	b.n	8001884 <HAL_ADC_Start+0xc4>
    }
    else
    {
      /* Reset ADC all error code fields */
      ADC_CLEAR_ERRORCODE(hadc);
 800187e:	687b      	ldr	r3, [r7, #4]
 8001880:	2200      	movs	r2, #0
 8001882:	645a      	str	r2, [r3, #68]	; 0x44
    } 

    /* Process unlocked */
    /* Unlock before starting ADC conversions: in case of potential           */
    /* interruption, to let the process to ADC IRQ Handler.                   */
    __HAL_UNLOCK(hadc);
 8001884:	687b      	ldr	r3, [r7, #4]
 8001886:	2200      	movs	r2, #0
 8001888:	f883 203c 	strb.w	r2, [r3, #60]	; 0x3c

    /* Pointer to the common control register to which is belonging hadc    */
    /* (Depending on STM32F4 product, there may be up to 3 ADCs and 1 common */
    /* control register)                                                    */
    tmpADC_Common = ADC_COMMON_REGISTER(hadc);
 800188c:	4b31      	ldr	r3, [pc, #196]	; (8001954 <HAL_ADC_Start+0x194>)
 800188e:	60fb      	str	r3, [r7, #12]

    /* Clear regular group conversion flag and overrun flag */
    /* (To ensure of no unknown state from potential previous ADC operations) */
    __HAL_ADC_CLEAR_FLAG(hadc, ADC_FLAG_EOC | ADC_FLAG_OVR);
 8001890:	687b      	ldr	r3, [r7, #4]
 8001892:	681b      	ldr	r3, [r3, #0]
 8001894:	f06f 0222 	mvn.w	r2, #34	; 0x22
 8001898:	601a      	str	r2, [r3, #0]
    
    /* Check if Multimode enabled */
    if(HAL_IS_BIT_CLR(tmpADC_Common->CCR, ADC_CCR_MULTI))
 800189a:	68fb      	ldr	r3, [r7, #12]
 800189c:	685b      	ldr	r3, [r3, #4]
 800189e:	f003 031f 	and.w	r3, r3, #31
 80018a2:	2b00      	cmp	r3, #0
 80018a4:	d12a      	bne.n	80018fc <HAL_ADC_Start+0x13c>
    {
#if defined(ADC2) && defined(ADC3)
      if((hadc->Instance == ADC1) || ((hadc->Instance == ADC2) && ((ADC->CCR & ADC_CCR_MULTI_Msk) < ADC_CCR_MULTI_0)) \
 80018a6:	687b      	ldr	r3, [r7, #4]
 80018a8:	681b      	ldr	r3, [r3, #0]
 80018aa:	4a2b      	ldr	r2, [pc, #172]	; (8001958 <HAL_ADC_Start+0x198>)
 80018ac:	4293      	cmp	r3, r2
 80018ae:	d015      	beq.n	80018dc <HAL_ADC_Start+0x11c>
 80018b0:	687b      	ldr	r3, [r7, #4]
 80018b2:	681b      	ldr	r3, [r3, #0]
 80018b4:	4a29      	ldr	r2, [pc, #164]	; (800195c <HAL_ADC_Start+0x19c>)
 80018b6:	4293      	cmp	r3, r2
 80018b8:	d105      	bne.n	80018c6 <HAL_ADC_Start+0x106>
 80018ba:	4b26      	ldr	r3, [pc, #152]	; (8001954 <HAL_ADC_Start+0x194>)
 80018bc:	685b      	ldr	r3, [r3, #4]
 80018be:	f003 031f 	and.w	r3, r3, #31
 80018c2:	2b00      	cmp	r3, #0
 80018c4:	d00a      	beq.n	80018dc <HAL_ADC_Start+0x11c>
                                  || ((hadc->Instance == ADC3) && ((ADC->CCR & ADC_CCR_MULTI_Msk) < ADC_CCR_MULTI_4)))
 80018c6:	687b      	ldr	r3, [r7, #4]
 80018c8:	681b      	ldr	r3, [r3, #0]
 80018ca:	4a25      	ldr	r2, [pc, #148]	; (8001960 <HAL_ADC_Start+0x1a0>)
 80018cc:	4293      	cmp	r3, r2
 80018ce:	d136      	bne.n	800193e <HAL_ADC_Start+0x17e>
 80018d0:	4b20      	ldr	r3, [pc, #128]	; (8001954 <HAL_ADC_Start+0x194>)
 80018d2:	685b      	ldr	r3, [r3, #4]
 80018d4:	f003 0310 	and.w	r3, r3, #16
 80018d8:	2b00      	cmp	r3, #0
 80018da:	d130      	bne.n	800193e <HAL_ADC_Start+0x17e>
      {
#endif /* ADC2 || ADC3 */
        /* if no external trigger present enable software conversion of regular channels */
        if((hadc->Instance->CR2 & ADC_CR2_EXTEN) == RESET) 
 80018dc:	687b      	ldr	r3, [r7, #4]
 80018de:	681b      	ldr	r3, [r3, #0]
 80018e0:	689b      	ldr	r3, [r3, #8]
 80018e2:	f003 5340 	and.w	r3, r3, #805306368	; 0x30000000
 80018e6:	2b00      	cmp	r3, #0
 80018e8:	d129      	bne.n	800193e <HAL_ADC_Start+0x17e>
        {
          /* Enable the selected ADC software conversion for regular group */
          hadc->Instance->CR2 |= (uint32_t)ADC_CR2_SWSTART;
 80018ea:	687b      	ldr	r3, [r7, #4]
 80018ec:	681b      	ldr	r3, [r3, #0]
 80018ee:	689a      	ldr	r2, [r3, #8]
 80018f0:	687b      	ldr	r3, [r7, #4]
 80018f2:	681b      	ldr	r3, [r3, #0]
 80018f4:	f042 4280 	orr.w	r2, r2, #1073741824	; 0x40000000
 80018f8:	609a      	str	r2, [r3, #8]
 80018fa:	e020      	b.n	800193e <HAL_ADC_Start+0x17e>
#endif /* ADC2 || ADC3 */
    }
    else
    {
      /* if instance of handle correspond to ADC1 and  no external trigger present enable software conversion of regular channels */
      if((hadc->Instance == ADC1) && ((hadc->Instance->CR2 & ADC_CR2_EXTEN) == RESET))
 80018fc:	687b      	ldr	r3, [r7, #4]
 80018fe:	681b      	ldr	r3, [r3, #0]
 8001900:	4a15      	ldr	r2, [pc, #84]	; (8001958 <HAL_ADC_Start+0x198>)
 8001902:	4293      	cmp	r3, r2
 8001904:	d11b      	bne.n	800193e <HAL_ADC_Start+0x17e>
 8001906:	687b      	ldr	r3, [r7, #4]
 8001908:	681b      	ldr	r3, [r3, #0]
 800190a:	689b      	ldr	r3, [r3, #8]
 800190c:	f003 5340 	and.w	r3, r3, #805306368	; 0x30000000
 8001910:	2b00      	cmp	r3, #0
 8001912:	d114      	bne.n	800193e <HAL_ADC_Start+0x17e>
      {
        /* Enable the selected ADC software conversion for regular group */
          hadc->Instance->CR2 |= (uint32_t)ADC_CR2_SWSTART;
 8001914:	687b      	ldr	r3, [r7, #4]
 8001916:	681b      	ldr	r3, [r3, #0]
 8001918:	689a      	ldr	r2, [r3, #8]
 800191a:	687b      	ldr	r3, [r7, #4]
 800191c:	681b      	ldr	r3, [r3, #0]
 800191e:	f042 4280 	orr.w	r2, r2, #1073741824	; 0x40000000
 8001922:	609a      	str	r2, [r3, #8]
 8001924:	e00b      	b.n	800193e <HAL_ADC_Start+0x17e>
    }
  }
  else
  {
    /* Update ADC state machine to error */
    SET_BIT(hadc->State, HAL_ADC_STATE_ERROR_INTERNAL);
 8001926:	687b      	ldr	r3, [r7, #4]
 8001928:	6c1b      	ldr	r3, [r3, #64]	; 0x40
 800192a:	f043 0210 	orr.w	r2, r3, #16
 800192e:	687b      	ldr	r3, [r7, #4]
 8001930:	641a      	str	r2, [r3, #64]	; 0x40

    /* Set ADC error code to ADC IP internal error */
    SET_BIT(hadc->ErrorCode, HAL_ADC_ERROR_INTERNAL);
 8001932:	687b      	ldr	r3, [r7, #4]
 8001934:	6c5b      	ldr	r3, [r3, #68]	; 0x44
 8001936:	f043 0201 	orr.w	r2, r3, #1
 800193a:	687b      	ldr	r3, [r7, #4]
 800193c:	645a      	str	r2, [r3, #68]	; 0x44
  }
  
  /* Return function status */
  return HAL_OK;
 800193e:	2300      	movs	r3, #0
}
 8001940:	4618      	mov	r0, r3
 8001942:	3714      	adds	r7, #20
 8001944:	46bd      	mov	sp, r7
 8001946:	f85d 7b04 	ldr.w	r7, [sp], #4
 800194a:	4770      	bx	lr
 800194c:	20000010 	.word	0x20000010
 8001950:	431bde83 	.word	0x431bde83
 8001954:	40012300 	.word	0x40012300
 8001958:	40012000 	.word	0x40012000
 800195c:	40012100 	.word	0x40012100
 8001960:	40012200 	.word	0x40012200

08001964 <HAL_ADC_Stop>:
  *         the configuration information for the specified ADC.
  *
  * @retval HAL status.
  */
HAL_StatusTypeDef HAL_ADC_Stop(ADC_HandleTypeDef* hadc)
{
 8001964:	b480      	push	{r7}
 8001966:	b083      	sub	sp, #12
 8001968:	af00      	add	r7, sp, #0
 800196a:	6078      	str	r0, [r7, #4]
  /* Check the parameters */
  assert_param(IS_ADC_ALL_INSTANCE(hadc->Instance));
  
  /* Process locked */
  __HAL_LOCK(hadc);
 800196c:	687b      	ldr	r3, [r7, #4]
 800196e:	f893 303c 	ldrb.w	r3, [r3, #60]	; 0x3c
 8001972:	2b01      	cmp	r3, #1
 8001974:	d101      	bne.n	800197a <HAL_ADC_Stop+0x16>
 8001976:	2302      	movs	r3, #2
 8001978:	e021      	b.n	80019be <HAL_ADC_Stop+0x5a>
 800197a:	687b      	ldr	r3, [r7, #4]
 800197c:	2201      	movs	r2, #1
 800197e:	f883 203c 	strb.w	r2, [r3, #60]	; 0x3c
  
  /* Stop potential conversion on going, on regular and injected groups */
  /* Disable ADC peripheral */
  __HAL_ADC_DISABLE(hadc);
 8001982:	687b      	ldr	r3, [r7, #4]
 8001984:	681b      	ldr	r3, [r3, #0]
 8001986:	689a      	ldr	r2, [r3, #8]
 8001988:	687b      	ldr	r3, [r7, #4]
 800198a:	681b      	ldr	r3, [r3, #0]
 800198c:	f022 0201 	bic.w	r2, r2, #1
 8001990:	609a      	str	r2, [r3, #8]
  
  /* Check if ADC is effectively disabled */
  if(HAL_IS_BIT_CLR(hadc->Instance->CR2, ADC_CR2_ADON))
 8001992:	687b      	ldr	r3, [r7, #4]
 8001994:	681b      	ldr	r3, [r3, #0]
 8001996:	689b      	ldr	r3, [r3, #8]
 8001998:	f003 0301 	and.w	r3, r3, #1
 800199c:	2b00      	cmp	r3, #0
 800199e:	d109      	bne.n	80019b4 <HAL_ADC_Stop+0x50>
  {
    /* Set ADC state */
    ADC_STATE_CLR_SET(hadc->State,
 80019a0:	687b      	ldr	r3, [r7, #4]
 80019a2:	6c1b      	ldr	r3, [r3, #64]	; 0x40
 80019a4:	f423 5388 	bic.w	r3, r3, #4352	; 0x1100
 80019a8:	f023 0301 	bic.w	r3, r3, #1
 80019ac:	f043 0201 	orr.w	r2, r3, #1
 80019b0:	687b      	ldr	r3, [r7, #4]
 80019b2:	641a      	str	r2, [r3, #64]	; 0x40
                      HAL_ADC_STATE_REG_BUSY | HAL_ADC_STATE_INJ_BUSY,
                      HAL_ADC_STATE_READY);
  }
  
  /* Process unlocked */
  __HAL_UNLOCK(hadc);
 80019b4:	687b      	ldr	r3, [r7, #4]
 80019b6:	2200      	movs	r2, #0
 80019b8:	f883 203c 	strb.w	r2, [r3, #60]	; 0x3c
  
  /* Return function status */
  return HAL_OK;
 80019bc:	2300      	movs	r3, #0
}
 80019be:	4618      	mov	r0, r3
 80019c0:	370c      	adds	r7, #12
 80019c2:	46bd      	mov	sp, r7
 80019c4:	f85d 7b04 	ldr.w	r7, [sp], #4
 80019c8:	4770      	bx	lr

080019ca <HAL_ADC_PollForConversion>:
  *         the configuration information for the specified ADC.
  * @param  Timeout Timeout value in millisecond.  
  * @retval HAL status
  */
HAL_StatusTypeDef HAL_ADC_PollForConversion(ADC_HandleTypeDef* hadc, uint32_t Timeout)
{
 80019ca:	b580      	push	{r7, lr}
 80019cc:	b084      	sub	sp, #16
 80019ce:	af00      	add	r7, sp, #0
 80019d0:	6078      	str	r0, [r7, #4]
 80019d2:	6039      	str	r1, [r7, #0]
  uint32_t tickstart = 0U;
 80019d4:	2300      	movs	r3, #0
 80019d6:	60fb      	str	r3, [r7, #12]
  /* each conversion:                                                       */
  /* Particular case is ADC configured in DMA mode and ADC sequencer with   */
  /* several ranks and polling for end of each conversion.                  */
  /* For code simplicity sake, this particular case is generalized to       */
  /* ADC configured in DMA mode and polling for end of each conversion.     */
  if (HAL_IS_BIT_SET(hadc->Instance->CR2, ADC_CR2_EOCS) &&
 80019d8:	687b      	ldr	r3, [r7, #4]
 80019da:	681b      	ldr	r3, [r3, #0]
 80019dc:	689b      	ldr	r3, [r3, #8]
 80019de:	f403 6380 	and.w	r3, r3, #1024	; 0x400
 80019e2:	f5b3 6f80 	cmp.w	r3, #1024	; 0x400
 80019e6:	d113      	bne.n	8001a10 <HAL_ADC_PollForConversion+0x46>
      HAL_IS_BIT_SET(hadc->Instance->CR2, ADC_CR2_DMA)    )
 80019e8:	687b      	ldr	r3, [r7, #4]
 80019ea:	681b      	ldr	r3, [r3, #0]
 80019ec:	689b      	ldr	r3, [r3, #8]
 80019ee:	f403 7380 	and.w	r3, r3, #256	; 0x100
  if (HAL_IS_BIT_SET(hadc->Instance->CR2, ADC_CR2_EOCS) &&
 80019f2:	f5b3 7f80 	cmp.w	r3, #256	; 0x100
 80019f6:	d10b      	bne.n	8001a10 <HAL_ADC_PollForConversion+0x46>
  {
    /* Update ADC state machine to error */
    SET_BIT(hadc->State, HAL_ADC_STATE_ERROR_CONFIG);
 80019f8:	687b      	ldr	r3, [r7, #4]
 80019fa:	6c1b      	ldr	r3, [r3, #64]	; 0x40
 80019fc:	f043 0220 	orr.w	r2, r3, #32
 8001a00:	687b      	ldr	r3, [r7, #4]
 8001a02:	641a      	str	r2, [r3, #64]	; 0x40
    
    /* Process unlocked */
    __HAL_UNLOCK(hadc);
 8001a04:	687b      	ldr	r3, [r7, #4]
 8001a06:	2200      	movs	r2, #0
 8001a08:	f883 203c 	strb.w	r2, [r3, #60]	; 0x3c
    
    return HAL_ERROR;
 8001a0c:	2301      	movs	r3, #1
 8001a0e:	e063      	b.n	8001ad8 <HAL_ADC_PollForConversion+0x10e>
  }

  /* Get tick */ 
  tickstart = HAL_GetTick();
 8001a10:	f7ff fe62 	bl	80016d8 <HAL_GetTick>
 8001a14:	60f8      	str	r0, [r7, #12]

  /* Check End of conversion flag */
  while(!(__HAL_ADC_GET_FLAG(hadc, ADC_FLAG_EOC)))
 8001a16:	e021      	b.n	8001a5c <HAL_ADC_PollForConversion+0x92>
  {
    /* Check if timeout is disabled (set to infinite wait) */
    if(Timeout != HAL_MAX_DELAY)
 8001a18:	683b      	ldr	r3, [r7, #0]
 8001a1a:	f1b3 3fff 	cmp.w	r3, #4294967295
 8001a1e:	d01d      	beq.n	8001a5c <HAL_ADC_PollForConversion+0x92>
    {
      if((Timeout == 0U) || ((HAL_GetTick() - tickstart ) > Timeout))
 8001a20:	683b      	ldr	r3, [r7, #0]
 8001a22:	2b00      	cmp	r3, #0
 8001a24:	d007      	beq.n	8001a36 <HAL_ADC_PollForConversion+0x6c>
 8001a26:	f7ff fe57 	bl	80016d8 <HAL_GetTick>
 8001a2a:	4602      	mov	r2, r0
 8001a2c:	68fb      	ldr	r3, [r7, #12]
 8001a2e:	1ad3      	subs	r3, r2, r3
 8001a30:	683a      	ldr	r2, [r7, #0]
 8001a32:	429a      	cmp	r2, r3
 8001a34:	d212      	bcs.n	8001a5c <HAL_ADC_PollForConversion+0x92>
      {
        /* New check to avoid false timeout detection in case of preemption */
        if(!(__HAL_ADC_GET_FLAG(hadc, ADC_FLAG_EOC)))
 8001a36:	687b      	ldr	r3, [r7, #4]
 8001a38:	681b      	ldr	r3, [r3, #0]
 8001a3a:	681b      	ldr	r3, [r3, #0]
 8001a3c:	f003 0302 	and.w	r3, r3, #2
 8001a40:	2b02      	cmp	r3, #2
 8001a42:	d00b      	beq.n	8001a5c <HAL_ADC_PollForConversion+0x92>
        {
          /* Update ADC state machine to timeout */
          SET_BIT(hadc->State, HAL_ADC_STATE_TIMEOUT);
 8001a44:	687b      	ldr	r3, [r7, #4]
 8001a46:	6c1b      	ldr	r3, [r3, #64]	; 0x40
 8001a48:	f043 0204 	orr.w	r2, r3, #4
 8001a4c:	687b      	ldr	r3, [r7, #4]
 8001a4e:	641a      	str	r2, [r3, #64]	; 0x40
          
          /* Process unlocked */
          __HAL_UNLOCK(hadc);
 8001a50:	687b      	ldr	r3, [r7, #4]
 8001a52:	2200      	movs	r2, #0
 8001a54:	f883 203c 	strb.w	r2, [r3, #60]	; 0x3c
          
          return HAL_TIMEOUT;
 8001a58:	2303      	movs	r3, #3
 8001a5a:	e03d      	b.n	8001ad8 <HAL_ADC_PollForConversion+0x10e>
  while(!(__HAL_ADC_GET_FLAG(hadc, ADC_FLAG_EOC)))
 8001a5c:	687b      	ldr	r3, [r7, #4]
 8001a5e:	681b      	ldr	r3, [r3, #0]
 8001a60:	681b      	ldr	r3, [r3, #0]
 8001a62:	f003 0302 	and.w	r3, r3, #2
 8001a66:	2b02      	cmp	r3, #2
 8001a68:	d1d6      	bne.n	8001a18 <HAL_ADC_PollForConversion+0x4e>
      }
    }
  }
  
  /* Clear regular group conversion flag */
  __HAL_ADC_CLEAR_FLAG(hadc, ADC_FLAG_STRT | ADC_FLAG_EOC);
 8001a6a:	687b      	ldr	r3, [r7, #4]
 8001a6c:	681b      	ldr	r3, [r3, #0]
 8001a6e:	f06f 0212 	mvn.w	r2, #18
 8001a72:	601a      	str	r2, [r3, #0]
  
  /* Update ADC state machine */
  SET_BIT(hadc->State, HAL_ADC_STATE_REG_EOC);
 8001a74:	687b      	ldr	r3, [r7, #4]
 8001a76:	6c1b      	ldr	r3, [r3, #64]	; 0x40
 8001a78:	f443 7200 	orr.w	r2, r3, #512	; 0x200
 8001a7c:	687b      	ldr	r3, [r7, #4]
 8001a7e:	641a      	str	r2, [r3, #64]	; 0x40
  /* by external trigger, continuous mode or scan sequence on going.          */
  /* Note: On STM32F4, there is no independent flag of end of sequence.       */
  /*       The test of scan sequence on going is done either with scan        */
  /*       sequence disabled or with end of conversion flag set to            */
  /*       of end of sequence.                                                */
  if(ADC_IS_SOFTWARE_START_REGULAR(hadc)                   &&
 8001a80:	687b      	ldr	r3, [r7, #4]
 8001a82:	681b      	ldr	r3, [r3, #0]
 8001a84:	689b      	ldr	r3, [r3, #8]
 8001a86:	f003 5340 	and.w	r3, r3, #805306368	; 0x30000000
 8001a8a:	2b00      	cmp	r3, #0
 8001a8c:	d123      	bne.n	8001ad6 <HAL_ADC_PollForConversion+0x10c>
     (hadc->Init.ContinuousConvMode == DISABLE)            &&
 8001a8e:	687b      	ldr	r3, [r7, #4]
 8001a90:	7e1b      	ldrb	r3, [r3, #24]
  if(ADC_IS_SOFTWARE_START_REGULAR(hadc)                   &&
 8001a92:	2b00      	cmp	r3, #0
 8001a94:	d11f      	bne.n	8001ad6 <HAL_ADC_PollForConversion+0x10c>
     (HAL_IS_BIT_CLR(hadc->Instance->SQR1, ADC_SQR1_L) ||
 8001a96:	687b      	ldr	r3, [r7, #4]
 8001a98:	681b      	ldr	r3, [r3, #0]
 8001a9a:	6adb      	ldr	r3, [r3, #44]	; 0x2c
 8001a9c:	f403 0370 	and.w	r3, r3, #15728640	; 0xf00000
     (hadc->Init.ContinuousConvMode == DISABLE)            &&
 8001aa0:	2b00      	cmp	r3, #0
 8001aa2:	d006      	beq.n	8001ab2 <HAL_ADC_PollForConversion+0xe8>
      HAL_IS_BIT_CLR(hadc->Instance->CR2, ADC_CR2_EOCS)  )   )
 8001aa4:	687b      	ldr	r3, [r7, #4]
 8001aa6:	681b      	ldr	r3, [r3, #0]
 8001aa8:	689b      	ldr	r3, [r3, #8]
 8001aaa:	f403 6380 	and.w	r3, r3, #1024	; 0x400
     (HAL_IS_BIT_CLR(hadc->Instance->SQR1, ADC_SQR1_L) ||
 8001aae:	2b00      	cmp	r3, #0
 8001ab0:	d111      	bne.n	8001ad6 <HAL_ADC_PollForConversion+0x10c>
  {
    /* Set ADC state */
    CLEAR_BIT(hadc->State, HAL_ADC_STATE_REG_BUSY);   
 8001ab2:	687b      	ldr	r3, [r7, #4]
 8001ab4:	6c1b      	ldr	r3, [r3, #64]	; 0x40
 8001ab6:	f423 7280 	bic.w	r2, r3, #256	; 0x100
 8001aba:	687b      	ldr	r3, [r7, #4]
 8001abc:	641a      	str	r2, [r3, #64]	; 0x40
    
    if (HAL_IS_BIT_CLR(hadc->State, HAL_ADC_STATE_INJ_BUSY))
 8001abe:	687b      	ldr	r3, [r7, #4]
 8001ac0:	6c1b      	ldr	r3, [r3, #64]	; 0x40
 8001ac2:	f403 5380 	and.w	r3, r3, #4096	; 0x1000
 8001ac6:	2b00      	cmp	r3, #0
 8001ac8:	d105      	bne.n	8001ad6 <HAL_ADC_PollForConversion+0x10c>
    { 
      SET_BIT(hadc->State, HAL_ADC_STATE_READY);
 8001aca:	687b      	ldr	r3, [r7, #4]
 8001acc:	6c1b      	ldr	r3, [r3, #64]	; 0x40
 8001ace:	f043 0201 	orr.w	r2, r3, #1
 8001ad2:	687b      	ldr	r3, [r7, #4]
 8001ad4:	641a      	str	r2, [r3, #64]	; 0x40
    }
  }
  
  /* Return ADC state */
  return HAL_OK;
 8001ad6:	2300      	movs	r3, #0
}
 8001ad8:	4618      	mov	r0, r3
 8001ada:	3710      	adds	r7, #16
 8001adc:	46bd      	mov	sp, r7
 8001ade:	bd80      	pop	{r7, pc}

08001ae0 <HAL_ADC_GetValue>:
  * @param  hadc pointer to a ADC_HandleTypeDef structure that contains
  *         the configuration information for the specified ADC.
  * @retval Converted value
  */
uint32_t HAL_ADC_GetValue(ADC_HandleTypeDef* hadc)
{       
 8001ae0:	b480      	push	{r7}
 8001ae2:	b083      	sub	sp, #12
 8001ae4:	af00      	add	r7, sp, #0
 8001ae6:	6078      	str	r0, [r7, #4]
  /* Return the selected ADC converted value */ 
  return hadc->Instance->DR;
 8001ae8:	687b      	ldr	r3, [r7, #4]
 8001aea:	681b      	ldr	r3, [r3, #0]
 8001aec:	6cdb      	ldr	r3, [r3, #76]	; 0x4c
}
 8001aee:	4618      	mov	r0, r3
 8001af0:	370c      	adds	r7, #12
 8001af2:	46bd      	mov	sp, r7
 8001af4:	f85d 7b04 	ldr.w	r7, [sp], #4
 8001af8:	4770      	bx	lr
	...

08001afc <HAL_ADC_ConfigChannel>:
  *         the configuration information for the specified ADC.
  * @param  sConfig ADC configuration structure. 
  * @retval HAL status
  */
HAL_StatusTypeDef HAL_ADC_ConfigChannel(ADC_HandleTypeDef* hadc, ADC_ChannelConfTypeDef* sConfig)
{
 8001afc:	b480      	push	{r7}
 8001afe:	b085      	sub	sp, #20
 8001b00:	af00      	add	r7, sp, #0
 8001b02:	6078      	str	r0, [r7, #4]
 8001b04:	6039      	str	r1, [r7, #0]
  __IO uint32_t counter = 0U;
 8001b06:	2300      	movs	r3, #0
 8001b08:	60bb      	str	r3, [r7, #8]
  assert_param(IS_ADC_CHANNEL(sConfig->Channel));
  assert_param(IS_ADC_REGULAR_RANK(sConfig->Rank));
  assert_param(IS_ADC_SAMPLE_TIME(sConfig->SamplingTime));
  
  /* Process locked */
  __HAL_LOCK(hadc);
 8001b0a:	687b      	ldr	r3, [r7, #4]
 8001b0c:	f893 303c 	ldrb.w	r3, [r3, #60]	; 0x3c
 8001b10:	2b01      	cmp	r3, #1
 8001b12:	d101      	bne.n	8001b18 <HAL_ADC_ConfigChannel+0x1c>
 8001b14:	2302      	movs	r3, #2
 8001b16:	e113      	b.n	8001d40 <HAL_ADC_ConfigChannel+0x244>
 8001b18:	687b      	ldr	r3, [r7, #4]
 8001b1a:	2201      	movs	r2, #1
 8001b1c:	f883 203c 	strb.w	r2, [r3, #60]	; 0x3c
    
  /* if ADC_Channel_10 ... ADC_Channel_18 is selected */
  if (sConfig->Channel > ADC_CHANNEL_9)
 8001b20:	683b      	ldr	r3, [r7, #0]
 8001b22:	681b      	ldr	r3, [r3, #0]
 8001b24:	2b09      	cmp	r3, #9
 8001b26:	d925      	bls.n	8001b74 <HAL_ADC_ConfigChannel+0x78>
  {
    /* Clear the old sample time */
    hadc->Instance->SMPR1 &= ~ADC_SMPR1(ADC_SMPR1_SMP10, sConfig->Channel);
 8001b28:	687b      	ldr	r3, [r7, #4]
 8001b2a:	681b      	ldr	r3, [r3, #0]
 8001b2c:	68d9      	ldr	r1, [r3, #12]
 8001b2e:	683b      	ldr	r3, [r7, #0]
 8001b30:	681b      	ldr	r3, [r3, #0]
 8001b32:	b29b      	uxth	r3, r3
 8001b34:	461a      	mov	r2, r3
 8001b36:	4613      	mov	r3, r2
 8001b38:	005b      	lsls	r3, r3, #1
 8001b3a:	4413      	add	r3, r2
 8001b3c:	3b1e      	subs	r3, #30
 8001b3e:	2207      	movs	r2, #7
 8001b40:	fa02 f303 	lsl.w	r3, r2, r3
 8001b44:	43da      	mvns	r2, r3
 8001b46:	687b      	ldr	r3, [r7, #4]
 8001b48:	681b      	ldr	r3, [r3, #0]
 8001b4a:	400a      	ands	r2, r1
 8001b4c:	60da      	str	r2, [r3, #12]
    
    /* Set the new sample time */
    hadc->Instance->SMPR1 |= ADC_SMPR1(sConfig->SamplingTime, sConfig->Channel);
 8001b4e:	687b      	ldr	r3, [r7, #4]
 8001b50:	681b      	ldr	r3, [r3, #0]
 8001b52:	68d9      	ldr	r1, [r3, #12]
 8001b54:	683b      	ldr	r3, [r7, #0]
 8001b56:	689a      	ldr	r2, [r3, #8]
 8001b58:	683b      	ldr	r3, [r7, #0]
 8001b5a:	681b      	ldr	r3, [r3, #0]
 8001b5c:	b29b      	uxth	r3, r3
 8001b5e:	4618      	mov	r0, r3
 8001b60:	4603      	mov	r3, r0
 8001b62:	005b      	lsls	r3, r3, #1
 8001b64:	4403      	add	r3, r0
 8001b66:	3b1e      	subs	r3, #30
 8001b68:	409a      	lsls	r2, r3
 8001b6a:	687b      	ldr	r3, [r7, #4]
 8001b6c:	681b      	ldr	r3, [r3, #0]
 8001b6e:	430a      	orrs	r2, r1
 8001b70:	60da      	str	r2, [r3, #12]
 8001b72:	e022      	b.n	8001bba <HAL_ADC_ConfigChannel+0xbe>
  }
  else /* ADC_Channel include in ADC_Channel_[0..9] */
  {
    /* Clear the old sample time */
    hadc->Instance->SMPR2 &= ~ADC_SMPR2(ADC_SMPR2_SMP0, sConfig->Channel);
 8001b74:	687b      	ldr	r3, [r7, #4]
 8001b76:	681b      	ldr	r3, [r3, #0]
 8001b78:	6919      	ldr	r1, [r3, #16]
 8001b7a:	683b      	ldr	r3, [r7, #0]
 8001b7c:	681b      	ldr	r3, [r3, #0]
 8001b7e:	b29b      	uxth	r3, r3
 8001b80:	461a      	mov	r2, r3
 8001b82:	4613      	mov	r3, r2
 8001b84:	005b      	lsls	r3, r3, #1
 8001b86:	4413      	add	r3, r2
 8001b88:	2207      	movs	r2, #7
 8001b8a:	fa02 f303 	lsl.w	r3, r2, r3
 8001b8e:	43da      	mvns	r2, r3
 8001b90:	687b      	ldr	r3, [r7, #4]
 8001b92:	681b      	ldr	r3, [r3, #0]
 8001b94:	400a      	ands	r2, r1
 8001b96:	611a      	str	r2, [r3, #16]
    
    /* Set the new sample time */
    hadc->Instance->SMPR2 |= ADC_SMPR2(sConfig->SamplingTime, sConfig->Channel);
 8001b98:	687b      	ldr	r3, [r7, #4]
 8001b9a:	681b      	ldr	r3, [r3, #0]
 8001b9c:	6919      	ldr	r1, [r3, #16]
 8001b9e:	683b      	ldr	r3, [r7, #0]
 8001ba0:	689a      	ldr	r2, [r3, #8]
 8001ba2:	683b      	ldr	r3, [r7, #0]
 8001ba4:	681b      	ldr	r3, [r3, #0]
 8001ba6:	b29b      	uxth	r3, r3
 8001ba8:	4618      	mov	r0, r3
 8001baa:	4603      	mov	r3, r0
 8001bac:	005b      	lsls	r3, r3, #1
 8001bae:	4403      	add	r3, r0
 8001bb0:	409a      	lsls	r2, r3
 8001bb2:	687b      	ldr	r3, [r7, #4]
 8001bb4:	681b      	ldr	r3, [r3, #0]
 8001bb6:	430a      	orrs	r2, r1
 8001bb8:	611a      	str	r2, [r3, #16]
  }
  
  /* For Rank 1 to 6 */
  if (sConfig->Rank < 7U)
 8001bba:	683b      	ldr	r3, [r7, #0]
 8001bbc:	685b      	ldr	r3, [r3, #4]
 8001bbe:	2b06      	cmp	r3, #6
 8001bc0:	d824      	bhi.n	8001c0c <HAL_ADC_ConfigChannel+0x110>
  {
    /* Clear the old SQx bits for the selected rank */
    hadc->Instance->SQR3 &= ~ADC_SQR3_RK(ADC_SQR3_SQ1, sConfig->Rank);
 8001bc2:	687b      	ldr	r3, [r7, #4]
 8001bc4:	681b      	ldr	r3, [r3, #0]
 8001bc6:	6b59      	ldr	r1, [r3, #52]	; 0x34
 8001bc8:	683b      	ldr	r3, [r7, #0]
 8001bca:	685a      	ldr	r2, [r3, #4]
 8001bcc:	4613      	mov	r3, r2
 8001bce:	009b      	lsls	r3, r3, #2
 8001bd0:	4413      	add	r3, r2
 8001bd2:	3b05      	subs	r3, #5
 8001bd4:	221f      	movs	r2, #31
 8001bd6:	fa02 f303 	lsl.w	r3, r2, r3
 8001bda:	43da      	mvns	r2, r3
 8001bdc:	687b      	ldr	r3, [r7, #4]
 8001bde:	681b      	ldr	r3, [r3, #0]
 8001be0:	400a      	ands	r2, r1
 8001be2:	635a      	str	r2, [r3, #52]	; 0x34
    
    /* Set the SQx bits for the selected rank */
    hadc->Instance->SQR3 |= ADC_SQR3_RK(sConfig->Channel, sConfig->Rank);
 8001be4:	687b      	ldr	r3, [r7, #4]
 8001be6:	681b      	ldr	r3, [r3, #0]
 8001be8:	6b59      	ldr	r1, [r3, #52]	; 0x34
 8001bea:	683b      	ldr	r3, [r7, #0]
 8001bec:	681b      	ldr	r3, [r3, #0]
 8001bee:	b29b      	uxth	r3, r3
 8001bf0:	4618      	mov	r0, r3
 8001bf2:	683b      	ldr	r3, [r7, #0]
 8001bf4:	685a      	ldr	r2, [r3, #4]
 8001bf6:	4613      	mov	r3, r2
 8001bf8:	009b      	lsls	r3, r3, #2
 8001bfa:	4413      	add	r3, r2
 8001bfc:	3b05      	subs	r3, #5
 8001bfe:	fa00 f203 	lsl.w	r2, r0, r3
 8001c02:	687b      	ldr	r3, [r7, #4]
 8001c04:	681b      	ldr	r3, [r3, #0]
 8001c06:	430a      	orrs	r2, r1
 8001c08:	635a      	str	r2, [r3, #52]	; 0x34
 8001c0a:	e04c      	b.n	8001ca6 <HAL_ADC_ConfigChannel+0x1aa>
  }
  /* For Rank 7 to 12 */
  else if (sConfig->Rank < 13U)
 8001c0c:	683b      	ldr	r3, [r7, #0]
 8001c0e:	685b      	ldr	r3, [r3, #4]
 8001c10:	2b0c      	cmp	r3, #12
 8001c12:	d824      	bhi.n	8001c5e <HAL_ADC_ConfigChannel+0x162>
  {
    /* Clear the old SQx bits for the selected rank */
    hadc->Instance->SQR2 &= ~ADC_SQR2_RK(ADC_SQR2_SQ7, sConfig->Rank);
 8001c14:	687b      	ldr	r3, [r7, #4]
 8001c16:	681b      	ldr	r3, [r3, #0]
 8001c18:	6b19      	ldr	r1, [r3, #48]	; 0x30
 8001c1a:	683b      	ldr	r3, [r7, #0]
 8001c1c:	685a      	ldr	r2, [r3, #4]
 8001c1e:	4613      	mov	r3, r2
 8001c20:	009b      	lsls	r3, r3, #2
 8001c22:	4413      	add	r3, r2
 8001c24:	3b23      	subs	r3, #35	; 0x23
 8001c26:	221f      	movs	r2, #31
 8001c28:	fa02 f303 	lsl.w	r3, r2, r3
 8001c2c:	43da      	mvns	r2, r3
 8001c2e:	687b      	ldr	r3, [r7, #4]
 8001c30:	681b      	ldr	r3, [r3, #0]
 8001c32:	400a      	ands	r2, r1
 8001c34:	631a      	str	r2, [r3, #48]	; 0x30
    
    /* Set the SQx bits for the selected rank */
    hadc->Instance->SQR2 |= ADC_SQR2_RK(sConfig->Channel, sConfig->Rank);
 8001c36:	687b      	ldr	r3, [r7, #4]
 8001c38:	681b      	ldr	r3, [r3, #0]
 8001c3a:	6b19      	ldr	r1, [r3, #48]	; 0x30
 8001c3c:	683b      	ldr	r3, [r7, #0]
 8001c3e:	681b      	ldr	r3, [r3, #0]
 8001c40:	b29b      	uxth	r3, r3
 8001c42:	4618      	mov	r0, r3
 8001c44:	683b      	ldr	r3, [r7, #0]
 8001c46:	685a      	ldr	r2, [r3, #4]
 8001c48:	4613      	mov	r3, r2
 8001c4a:	009b      	lsls	r3, r3, #2
 8001c4c:	4413      	add	r3, r2
 8001c4e:	3b23      	subs	r3, #35	; 0x23
 8001c50:	fa00 f203 	lsl.w	r2, r0, r3
 8001c54:	687b      	ldr	r3, [r7, #4]
 8001c56:	681b      	ldr	r3, [r3, #0]
 8001c58:	430a      	orrs	r2, r1
 8001c5a:	631a      	str	r2, [r3, #48]	; 0x30
 8001c5c:	e023      	b.n	8001ca6 <HAL_ADC_ConfigChannel+0x1aa>
  }
  /* For Rank 13 to 16 */
  else
  {
    /* Clear the old SQx bits for the selected rank */
    hadc->Instance->SQR1 &= ~ADC_SQR1_RK(ADC_SQR1_SQ13, sConfig->Rank);
 8001c5e:	687b      	ldr	r3, [r7, #4]
 8001c60:	681b      	ldr	r3, [r3, #0]
 8001c62:	6ad9      	ldr	r1, [r3, #44]	; 0x2c
 8001c64:	683b      	ldr	r3, [r7, #0]
 8001c66:	685a      	ldr	r2, [r3, #4]
 8001c68:	4613      	mov	r3, r2
 8001c6a:	009b      	lsls	r3, r3, #2
 8001c6c:	4413      	add	r3, r2
 8001c6e:	3b41      	subs	r3, #65	; 0x41
 8001c70:	221f      	movs	r2, #31
 8001c72:	fa02 f303 	lsl.w	r3, r2, r3
 8001c76:	43da      	mvns	r2, r3
 8001c78:	687b      	ldr	r3, [r7, #4]
 8001c7a:	681b      	ldr	r3, [r3, #0]
 8001c7c:	400a      	ands	r2, r1
 8001c7e:	62da      	str	r2, [r3, #44]	; 0x2c
    
    /* Set the SQx bits for the selected rank */
    hadc->Instance->SQR1 |= ADC_SQR1_RK(sConfig->Channel, sConfig->Rank);
 8001c80:	687b      	ldr	r3, [r7, #4]
 8001c82:	681b      	ldr	r3, [r3, #0]
 8001c84:	6ad9      	ldr	r1, [r3, #44]	; 0x2c
 8001c86:	683b      	ldr	r3, [r7, #0]
 8001c88:	681b      	ldr	r3, [r3, #0]
 8001c8a:	b29b      	uxth	r3, r3
 8001c8c:	4618      	mov	r0, r3
 8001c8e:	683b      	ldr	r3, [r7, #0]
 8001c90:	685a      	ldr	r2, [r3, #4]
 8001c92:	4613      	mov	r3, r2
 8001c94:	009b      	lsls	r3, r3, #2
 8001c96:	4413      	add	r3, r2
 8001c98:	3b41      	subs	r3, #65	; 0x41
 8001c9a:	fa00 f203 	lsl.w	r2, r0, r3
 8001c9e:	687b      	ldr	r3, [r7, #4]
 8001ca0:	681b      	ldr	r3, [r3, #0]
 8001ca2:	430a      	orrs	r2, r1
 8001ca4:	62da      	str	r2, [r3, #44]	; 0x2c
  }

    /* Pointer to the common control register to which is belonging hadc    */
    /* (Depending on STM32F4 product, there may be up to 3 ADCs and 1 common */
    /* control register)                                                    */
    tmpADC_Common = ADC_COMMON_REGISTER(hadc);
 8001ca6:	4b29      	ldr	r3, [pc, #164]	; (8001d4c <HAL_ADC_ConfigChannel+0x250>)
 8001ca8:	60fb      	str	r3, [r7, #12]

  /* if ADC1 Channel_18 is selected for VBAT Channel ennable VBATE */
  if ((hadc->Instance == ADC1) && (sConfig->Channel == ADC_CHANNEL_VBAT))
 8001caa:	687b      	ldr	r3, [r7, #4]
 8001cac:	681b      	ldr	r3, [r3, #0]
 8001cae:	4a28      	ldr	r2, [pc, #160]	; (8001d50 <HAL_ADC_ConfigChannel+0x254>)
 8001cb0:	4293      	cmp	r3, r2
 8001cb2:	d10f      	bne.n	8001cd4 <HAL_ADC_ConfigChannel+0x1d8>
 8001cb4:	683b      	ldr	r3, [r7, #0]
 8001cb6:	681b      	ldr	r3, [r3, #0]
 8001cb8:	2b12      	cmp	r3, #18
 8001cba:	d10b      	bne.n	8001cd4 <HAL_ADC_ConfigChannel+0x1d8>
  {
    /* Disable the TEMPSENSOR channel in case of using board with multiplixed ADC_CHANNEL_VBAT & ADC_CHANNEL_TEMPSENSOR*/    
    if ((uint16_t)ADC_CHANNEL_TEMPSENSOR == (uint16_t)ADC_CHANNEL_VBAT)
    {
      tmpADC_Common->CCR &= ~ADC_CCR_TSVREFE;
 8001cbc:	68fb      	ldr	r3, [r7, #12]
 8001cbe:	685b      	ldr	r3, [r3, #4]
 8001cc0:	f423 0200 	bic.w	r2, r3, #8388608	; 0x800000
 8001cc4:	68fb      	ldr	r3, [r7, #12]
 8001cc6:	605a      	str	r2, [r3, #4]
    }
    /* Enable the VBAT channel*/
    tmpADC_Common->CCR |= ADC_CCR_VBATE;
 8001cc8:	68fb      	ldr	r3, [r7, #12]
 8001cca:	685b      	ldr	r3, [r3, #4]
 8001ccc:	f443 0280 	orr.w	r2, r3, #4194304	; 0x400000
 8001cd0:	68fb      	ldr	r3, [r7, #12]
 8001cd2:	605a      	str	r2, [r3, #4]
  }
  
  /* if ADC1 Channel_16 or Channel_18 is selected for Temperature sensor or 
     Channel_17 is selected for VREFINT enable TSVREFE */
  if ((hadc->Instance == ADC1) && ((sConfig->Channel == ADC_CHANNEL_TEMPSENSOR) || (sConfig->Channel == ADC_CHANNEL_VREFINT)))
 8001cd4:	687b      	ldr	r3, [r7, #4]
 8001cd6:	681b      	ldr	r3, [r3, #0]
 8001cd8:	4a1d      	ldr	r2, [pc, #116]	; (8001d50 <HAL_ADC_ConfigChannel+0x254>)
 8001cda:	4293      	cmp	r3, r2
 8001cdc:	d12b      	bne.n	8001d36 <HAL_ADC_ConfigChannel+0x23a>
 8001cde:	683b      	ldr	r3, [r7, #0]
 8001ce0:	681b      	ldr	r3, [r3, #0]
 8001ce2:	4a1c      	ldr	r2, [pc, #112]	; (8001d54 <HAL_ADC_ConfigChannel+0x258>)
 8001ce4:	4293      	cmp	r3, r2
 8001ce6:	d003      	beq.n	8001cf0 <HAL_ADC_ConfigChannel+0x1f4>
 8001ce8:	683b      	ldr	r3, [r7, #0]
 8001cea:	681b      	ldr	r3, [r3, #0]
 8001cec:	2b11      	cmp	r3, #17
 8001cee:	d122      	bne.n	8001d36 <HAL_ADC_ConfigChannel+0x23a>
  {
    /* Disable the VBAT channel in case of using board with multiplixed ADC_CHANNEL_VBAT & ADC_CHANNEL_TEMPSENSOR*/
    if ((uint16_t)ADC_CHANNEL_TEMPSENSOR == (uint16_t)ADC_CHANNEL_VBAT)
    {
      tmpADC_Common->CCR &= ~ADC_CCR_VBATE;
 8001cf0:	68fb      	ldr	r3, [r7, #12]
 8001cf2:	685b      	ldr	r3, [r3, #4]
 8001cf4:	f423 0280 	bic.w	r2, r3, #4194304	; 0x400000
 8001cf8:	68fb      	ldr	r3, [r7, #12]
 8001cfa:	605a      	str	r2, [r3, #4]
    }
    /* Enable the Temperature sensor and VREFINT channel*/
    tmpADC_Common->CCR |= ADC_CCR_TSVREFE;
 8001cfc:	68fb      	ldr	r3, [r7, #12]
 8001cfe:	685b      	ldr	r3, [r3, #4]
 8001d00:	f443 0200 	orr.w	r2, r3, #8388608	; 0x800000
 8001d04:	68fb      	ldr	r3, [r7, #12]
 8001d06:	605a      	str	r2, [r3, #4]
    
    if(sConfig->Channel == ADC_CHANNEL_TEMPSENSOR)
 8001d08:	683b      	ldr	r3, [r7, #0]
 8001d0a:	681b      	ldr	r3, [r3, #0]
 8001d0c:	4a11      	ldr	r2, [pc, #68]	; (8001d54 <HAL_ADC_ConfigChannel+0x258>)
 8001d0e:	4293      	cmp	r3, r2
 8001d10:	d111      	bne.n	8001d36 <HAL_ADC_ConfigChannel+0x23a>
    {
      /* Delay for temperature sensor stabilization time */
      /* Compute number of CPU cycles to wait for */
      counter = (ADC_TEMPSENSOR_DELAY_US * (SystemCoreClock / 1000000U));
 8001d12:	4b11      	ldr	r3, [pc, #68]	; (8001d58 <HAL_ADC_ConfigChannel+0x25c>)
 8001d14:	681b      	ldr	r3, [r3, #0]
 8001d16:	4a11      	ldr	r2, [pc, #68]	; (8001d5c <HAL_ADC_ConfigChannel+0x260>)
 8001d18:	fba2 2303 	umull	r2, r3, r2, r3
 8001d1c:	0c9a      	lsrs	r2, r3, #18
 8001d1e:	4613      	mov	r3, r2
 8001d20:	009b      	lsls	r3, r3, #2
 8001d22:	4413      	add	r3, r2
 8001d24:	005b      	lsls	r3, r3, #1
 8001d26:	60bb      	str	r3, [r7, #8]
      while(counter != 0U)
 8001d28:	e002      	b.n	8001d30 <HAL_ADC_ConfigChannel+0x234>
      {
        counter--;
 8001d2a:	68bb      	ldr	r3, [r7, #8]
 8001d2c:	3b01      	subs	r3, #1
 8001d2e:	60bb      	str	r3, [r7, #8]
      while(counter != 0U)
 8001d30:	68bb      	ldr	r3, [r7, #8]
 8001d32:	2b00      	cmp	r3, #0
 8001d34:	d1f9      	bne.n	8001d2a <HAL_ADC_ConfigChannel+0x22e>
      }
    }
  }
  
  /* Process unlocked */
  __HAL_UNLOCK(hadc);
 8001d36:	687b      	ldr	r3, [r7, #4]
 8001d38:	2200      	movs	r2, #0
 8001d3a:	f883 203c 	strb.w	r2, [r3, #60]	; 0x3c
  
  /* Return function status */
  return HAL_OK;
 8001d3e:	2300      	movs	r3, #0
}
 8001d40:	4618      	mov	r0, r3
 8001d42:	3714      	adds	r7, #20
 8001d44:	46bd      	mov	sp, r7
 8001d46:	f85d 7b04 	ldr.w	r7, [sp], #4
 8001d4a:	4770      	bx	lr
 8001d4c:	40012300 	.word	0x40012300
 8001d50:	40012000 	.word	0x40012000
 8001d54:	10000012 	.word	0x10000012
 8001d58:	20000010 	.word	0x20000010
 8001d5c:	431bde83 	.word	0x431bde83

08001d60 <ADC_Init>:
  * @param  hadc pointer to a ADC_HandleTypeDef structure that contains
  *         the configuration information for the specified ADC.  
  * @retval None
  */
static void ADC_Init(ADC_HandleTypeDef* hadc)
{
 8001d60:	b480      	push	{r7}
 8001d62:	b085      	sub	sp, #20
 8001d64:	af00      	add	r7, sp, #0
 8001d66:	6078      	str	r0, [r7, #4]
  
  /* Set ADC parameters */
  /* Pointer to the common control register to which is belonging hadc    */
  /* (Depending on STM32F4 product, there may be up to 3 ADCs and 1 common */
  /* control register)                                                    */
  tmpADC_Common = ADC_COMMON_REGISTER(hadc);
 8001d68:	4b79      	ldr	r3, [pc, #484]	; (8001f50 <ADC_Init+0x1f0>)
 8001d6a:	60fb      	str	r3, [r7, #12]
  
  /* Set the ADC clock prescaler */
  tmpADC_Common->CCR &= ~(ADC_CCR_ADCPRE);
 8001d6c:	68fb      	ldr	r3, [r7, #12]
 8001d6e:	685b      	ldr	r3, [r3, #4]
 8001d70:	f423 3240 	bic.w	r2, r3, #196608	; 0x30000
 8001d74:	68fb      	ldr	r3, [r7, #12]
 8001d76:	605a      	str	r2, [r3, #4]
  tmpADC_Common->CCR |=  hadc->Init.ClockPrescaler;
 8001d78:	68fb      	ldr	r3, [r7, #12]
 8001d7a:	685a      	ldr	r2, [r3, #4]
 8001d7c:	687b      	ldr	r3, [r7, #4]
 8001d7e:	685b      	ldr	r3, [r3, #4]
 8001d80:	431a      	orrs	r2, r3
 8001d82:	68fb      	ldr	r3, [r7, #12]
 8001d84:	605a      	str	r2, [r3, #4]
  
  /* Set ADC scan mode */
  hadc->Instance->CR1 &= ~(ADC_CR1_SCAN);
 8001d86:	687b      	ldr	r3, [r7, #4]
 8001d88:	681b      	ldr	r3, [r3, #0]
 8001d8a:	685a      	ldr	r2, [r3, #4]
 8001d8c:	687b      	ldr	r3, [r7, #4]
 8001d8e:	681b      	ldr	r3, [r3, #0]
 8001d90:	f422 7280 	bic.w	r2, r2, #256	; 0x100
 8001d94:	605a      	str	r2, [r3, #4]
  hadc->Instance->CR1 |=  ADC_CR1_SCANCONV(hadc->Init.ScanConvMode);
 8001d96:	687b      	ldr	r3, [r7, #4]
 8001d98:	681b      	ldr	r3, [r3, #0]
 8001d9a:	6859      	ldr	r1, [r3, #4]
 8001d9c:	687b      	ldr	r3, [r7, #4]
 8001d9e:	691b      	ldr	r3, [r3, #16]
 8001da0:	021a      	lsls	r2, r3, #8
 8001da2:	687b      	ldr	r3, [r7, #4]
 8001da4:	681b      	ldr	r3, [r3, #0]
 8001da6:	430a      	orrs	r2, r1
 8001da8:	605a      	str	r2, [r3, #4]
  
  /* Set ADC resolution */
  hadc->Instance->CR1 &= ~(ADC_CR1_RES);
 8001daa:	687b      	ldr	r3, [r7, #4]
 8001dac:	681b      	ldr	r3, [r3, #0]
 8001dae:	685a      	ldr	r2, [r3, #4]
 8001db0:	687b      	ldr	r3, [r7, #4]
 8001db2:	681b      	ldr	r3, [r3, #0]
 8001db4:	f022 7240 	bic.w	r2, r2, #50331648	; 0x3000000
 8001db8:	605a      	str	r2, [r3, #4]
  hadc->Instance->CR1 |=  hadc->Init.Resolution;
 8001dba:	687b      	ldr	r3, [r7, #4]
 8001dbc:	681b      	ldr	r3, [r3, #0]
 8001dbe:	6859      	ldr	r1, [r3, #4]
 8001dc0:	687b      	ldr	r3, [r7, #4]
 8001dc2:	689a      	ldr	r2, [r3, #8]
 8001dc4:	687b      	ldr	r3, [r7, #4]
 8001dc6:	681b      	ldr	r3, [r3, #0]
 8001dc8:	430a      	orrs	r2, r1
 8001dca:	605a      	str	r2, [r3, #4]
  
  /* Set ADC data alignment */
  hadc->Instance->CR2 &= ~(ADC_CR2_ALIGN);
 8001dcc:	687b      	ldr	r3, [r7, #4]
 8001dce:	681b      	ldr	r3, [r3, #0]
 8001dd0:	689a      	ldr	r2, [r3, #8]
 8001dd2:	687b      	ldr	r3, [r7, #4]
 8001dd4:	681b      	ldr	r3, [r3, #0]
 8001dd6:	f422 6200 	bic.w	r2, r2, #2048	; 0x800
 8001dda:	609a      	str	r2, [r3, #8]
  hadc->Instance->CR2 |= hadc->Init.DataAlign;
 8001ddc:	687b      	ldr	r3, [r7, #4]
 8001dde:	681b      	ldr	r3, [r3, #0]
 8001de0:	6899      	ldr	r1, [r3, #8]
 8001de2:	687b      	ldr	r3, [r7, #4]
 8001de4:	68da      	ldr	r2, [r3, #12]
 8001de6:	687b      	ldr	r3, [r7, #4]
 8001de8:	681b      	ldr	r3, [r3, #0]
 8001dea:	430a      	orrs	r2, r1
 8001dec:	609a      	str	r2, [r3, #8]
  /* Enable external trigger if trigger selection is different of software  */
  /* start.                                                                 */
  /* Note: This configuration keeps the hardware feature of parameter       */
  /*       ExternalTrigConvEdge "trigger edge none" equivalent to           */
  /*       software start.                                                  */
  if(hadc->Init.ExternalTrigConv != ADC_SOFTWARE_START)
 8001dee:	687b      	ldr	r3, [r7, #4]
 8001df0:	6a9b      	ldr	r3, [r3, #40]	; 0x28
 8001df2:	4a58      	ldr	r2, [pc, #352]	; (8001f54 <ADC_Init+0x1f4>)
 8001df4:	4293      	cmp	r3, r2
 8001df6:	d022      	beq.n	8001e3e <ADC_Init+0xde>
  {
    /* Select external trigger to start conversion */
    hadc->Instance->CR2 &= ~(ADC_CR2_EXTSEL);
 8001df8:	687b      	ldr	r3, [r7, #4]
 8001dfa:	681b      	ldr	r3, [r3, #0]
 8001dfc:	689a      	ldr	r2, [r3, #8]
 8001dfe:	687b      	ldr	r3, [r7, #4]
 8001e00:	681b      	ldr	r3, [r3, #0]
 8001e02:	f022 6270 	bic.w	r2, r2, #251658240	; 0xf000000
 8001e06:	609a      	str	r2, [r3, #8]
    hadc->Instance->CR2 |= hadc->Init.ExternalTrigConv;
 8001e08:	687b      	ldr	r3, [r7, #4]
 8001e0a:	681b      	ldr	r3, [r3, #0]
 8001e0c:	6899      	ldr	r1, [r3, #8]
 8001e0e:	687b      	ldr	r3, [r7, #4]
 8001e10:	6a9a      	ldr	r2, [r3, #40]	; 0x28
 8001e12:	687b      	ldr	r3, [r7, #4]
 8001e14:	681b      	ldr	r3, [r3, #0]
 8001e16:	430a      	orrs	r2, r1
 8001e18:	609a      	str	r2, [r3, #8]
    
    /* Select external trigger polarity */
    hadc->Instance->CR2 &= ~(ADC_CR2_EXTEN);
 8001e1a:	687b      	ldr	r3, [r7, #4]
 8001e1c:	681b      	ldr	r3, [r3, #0]
 8001e1e:	689a      	ldr	r2, [r3, #8]
 8001e20:	687b      	ldr	r3, [r7, #4]
 8001e22:	681b      	ldr	r3, [r3, #0]
 8001e24:	f022 5240 	bic.w	r2, r2, #805306368	; 0x30000000
 8001e28:	609a      	str	r2, [r3, #8]
    hadc->Instance->CR2 |= hadc->Init.ExternalTrigConvEdge;
 8001e2a:	687b      	ldr	r3, [r7, #4]
 8001e2c:	681b      	ldr	r3, [r3, #0]
 8001e2e:	6899      	ldr	r1, [r3, #8]
 8001e30:	687b      	ldr	r3, [r7, #4]
 8001e32:	6ada      	ldr	r2, [r3, #44]	; 0x2c
 8001e34:	687b      	ldr	r3, [r7, #4]
 8001e36:	681b      	ldr	r3, [r3, #0]
 8001e38:	430a      	orrs	r2, r1
 8001e3a:	609a      	str	r2, [r3, #8]
 8001e3c:	e00f      	b.n	8001e5e <ADC_Init+0xfe>
  }
  else
  {
    /* Reset the external trigger */
    hadc->Instance->CR2 &= ~(ADC_CR2_EXTSEL);
 8001e3e:	687b      	ldr	r3, [r7, #4]
 8001e40:	681b      	ldr	r3, [r3, #0]
 8001e42:	689a      	ldr	r2, [r3, #8]
 8001e44:	687b      	ldr	r3, [r7, #4]
 8001e46:	681b      	ldr	r3, [r3, #0]
 8001e48:	f022 6270 	bic.w	r2, r2, #251658240	; 0xf000000
 8001e4c:	609a      	str	r2, [r3, #8]
    hadc->Instance->CR2 &= ~(ADC_CR2_EXTEN);
 8001e4e:	687b      	ldr	r3, [r7, #4]
 8001e50:	681b      	ldr	r3, [r3, #0]
 8001e52:	689a      	ldr	r2, [r3, #8]
 8001e54:	687b      	ldr	r3, [r7, #4]
 8001e56:	681b      	ldr	r3, [r3, #0]
 8001e58:	f022 5240 	bic.w	r2, r2, #805306368	; 0x30000000
 8001e5c:	609a      	str	r2, [r3, #8]
  }
  
  /* Enable or disable ADC continuous conversion mode */
  hadc->Instance->CR2 &= ~(ADC_CR2_CONT);
 8001e5e:	687b      	ldr	r3, [r7, #4]
 8001e60:	681b      	ldr	r3, [r3, #0]
 8001e62:	689a      	ldr	r2, [r3, #8]
 8001e64:	687b      	ldr	r3, [r7, #4]
 8001e66:	681b      	ldr	r3, [r3, #0]
 8001e68:	f022 0202 	bic.w	r2, r2, #2
 8001e6c:	609a      	str	r2, [r3, #8]
  hadc->Instance->CR2 |= ADC_CR2_CONTINUOUS((uint32_t)hadc->Init.ContinuousConvMode);
 8001e6e:	687b      	ldr	r3, [r7, #4]
 8001e70:	681b      	ldr	r3, [r3, #0]
 8001e72:	6899      	ldr	r1, [r3, #8]
 8001e74:	687b      	ldr	r3, [r7, #4]
 8001e76:	7e1b      	ldrb	r3, [r3, #24]
 8001e78:	005a      	lsls	r2, r3, #1
 8001e7a:	687b      	ldr	r3, [r7, #4]
 8001e7c:	681b      	ldr	r3, [r3, #0]
 8001e7e:	430a      	orrs	r2, r1
 8001e80:	609a      	str	r2, [r3, #8]
  
  if(hadc->Init.DiscontinuousConvMode != DISABLE)
 8001e82:	687b      	ldr	r3, [r7, #4]
 8001e84:	f893 3020 	ldrb.w	r3, [r3, #32]
 8001e88:	2b00      	cmp	r3, #0
 8001e8a:	d01b      	beq.n	8001ec4 <ADC_Init+0x164>
  {
    assert_param(IS_ADC_REGULAR_DISC_NUMBER(hadc->Init.NbrOfDiscConversion));
  
    /* Enable the selected ADC regular discontinuous mode */
    hadc->Instance->CR1 |= (uint32_t)ADC_CR1_DISCEN;
 8001e8c:	687b      	ldr	r3, [r7, #4]
 8001e8e:	681b      	ldr	r3, [r3, #0]
 8001e90:	685a      	ldr	r2, [r3, #4]
 8001e92:	687b      	ldr	r3, [r7, #4]
 8001e94:	681b      	ldr	r3, [r3, #0]
 8001e96:	f442 6200 	orr.w	r2, r2, #2048	; 0x800
 8001e9a:	605a      	str	r2, [r3, #4]
    
    /* Set the number of channels to be converted in discontinuous mode */
    hadc->Instance->CR1 &= ~(ADC_CR1_DISCNUM);
 8001e9c:	687b      	ldr	r3, [r7, #4]
 8001e9e:	681b      	ldr	r3, [r3, #0]
 8001ea0:	685a      	ldr	r2, [r3, #4]
 8001ea2:	687b      	ldr	r3, [r7, #4]
 8001ea4:	681b      	ldr	r3, [r3, #0]
 8001ea6:	f422 4260 	bic.w	r2, r2, #57344	; 0xe000
 8001eaa:	605a      	str	r2, [r3, #4]
    hadc->Instance->CR1 |=  ADC_CR1_DISCONTINUOUS(hadc->Init.NbrOfDiscConversion);
 8001eac:	687b      	ldr	r3, [r7, #4]
 8001eae:	681b      	ldr	r3, [r3, #0]
 8001eb0:	6859      	ldr	r1, [r3, #4]
 8001eb2:	687b      	ldr	r3, [r7, #4]
 8001eb4:	6a5b      	ldr	r3, [r3, #36]	; 0x24
 8001eb6:	3b01      	subs	r3, #1
 8001eb8:	035a      	lsls	r2, r3, #13
 8001eba:	687b      	ldr	r3, [r7, #4]
 8001ebc:	681b      	ldr	r3, [r3, #0]
 8001ebe:	430a      	orrs	r2, r1
 8001ec0:	605a      	str	r2, [r3, #4]
 8001ec2:	e007      	b.n	8001ed4 <ADC_Init+0x174>
  }
  else
  {
    /* Disable the selected ADC regular discontinuous mode */
    hadc->Instance->CR1 &= ~(ADC_CR1_DISCEN);
 8001ec4:	687b      	ldr	r3, [r7, #4]
 8001ec6:	681b      	ldr	r3, [r3, #0]
 8001ec8:	685a      	ldr	r2, [r3, #4]
 8001eca:	687b      	ldr	r3, [r7, #4]
 8001ecc:	681b      	ldr	r3, [r3, #0]
 8001ece:	f422 6200 	bic.w	r2, r2, #2048	; 0x800
 8001ed2:	605a      	str	r2, [r3, #4]
  }
  
  /* Set ADC number of conversion */
  hadc->Instance->SQR1 &= ~(ADC_SQR1_L);
 8001ed4:	687b      	ldr	r3, [r7, #4]
 8001ed6:	681b      	ldr	r3, [r3, #0]
 8001ed8:	6ada      	ldr	r2, [r3, #44]	; 0x2c
 8001eda:	687b      	ldr	r3, [r7, #4]
 8001edc:	681b      	ldr	r3, [r3, #0]
 8001ede:	f422 0270 	bic.w	r2, r2, #15728640	; 0xf00000
 8001ee2:	62da      	str	r2, [r3, #44]	; 0x2c
  hadc->Instance->SQR1 |=  ADC_SQR1(hadc->Init.NbrOfConversion);
 8001ee4:	687b      	ldr	r3, [r7, #4]
 8001ee6:	681b      	ldr	r3, [r3, #0]
 8001ee8:	6ad9      	ldr	r1, [r3, #44]	; 0x2c
 8001eea:	687b      	ldr	r3, [r7, #4]
 8001eec:	69db      	ldr	r3, [r3, #28]
 8001eee:	3b01      	subs	r3, #1
 8001ef0:	051a      	lsls	r2, r3, #20
 8001ef2:	687b      	ldr	r3, [r7, #4]
 8001ef4:	681b      	ldr	r3, [r3, #0]
 8001ef6:	430a      	orrs	r2, r1
 8001ef8:	62da      	str	r2, [r3, #44]	; 0x2c
  
  /* Enable or disable ADC DMA continuous request */
  hadc->Instance->CR2 &= ~(ADC_CR2_DDS);
 8001efa:	687b      	ldr	r3, [r7, #4]
 8001efc:	681b      	ldr	r3, [r3, #0]
 8001efe:	689a      	ldr	r2, [r3, #8]
 8001f00:	687b      	ldr	r3, [r7, #4]
 8001f02:	681b      	ldr	r3, [r3, #0]
 8001f04:	f422 7200 	bic.w	r2, r2, #512	; 0x200
 8001f08:	609a      	str	r2, [r3, #8]
  hadc->Instance->CR2 |= ADC_CR2_DMAContReq((uint32_t)hadc->Init.DMAContinuousRequests);
 8001f0a:	687b      	ldr	r3, [r7, #4]
 8001f0c:	681b      	ldr	r3, [r3, #0]
 8001f0e:	6899      	ldr	r1, [r3, #8]
 8001f10:	687b      	ldr	r3, [r7, #4]
 8001f12:	f893 3030 	ldrb.w	r3, [r3, #48]	; 0x30
 8001f16:	025a      	lsls	r2, r3, #9
 8001f18:	687b      	ldr	r3, [r7, #4]
 8001f1a:	681b      	ldr	r3, [r3, #0]
 8001f1c:	430a      	orrs	r2, r1
 8001f1e:	609a      	str	r2, [r3, #8]
  
  /* Enable or disable ADC end of conversion selection */
  hadc->Instance->CR2 &= ~(ADC_CR2_EOCS);
 8001f20:	687b      	ldr	r3, [r7, #4]
 8001f22:	681b      	ldr	r3, [r3, #0]
 8001f24:	689a      	ldr	r2, [r3, #8]
 8001f26:	687b      	ldr	r3, [r7, #4]
 8001f28:	681b      	ldr	r3, [r3, #0]
 8001f2a:	f422 6280 	bic.w	r2, r2, #1024	; 0x400
 8001f2e:	609a      	str	r2, [r3, #8]
  hadc->Instance->CR2 |= ADC_CR2_EOCSelection(hadc->Init.EOCSelection);
 8001f30:	687b      	ldr	r3, [r7, #4]
 8001f32:	681b      	ldr	r3, [r3, #0]
 8001f34:	6899      	ldr	r1, [r3, #8]
 8001f36:	687b      	ldr	r3, [r7, #4]
 8001f38:	695b      	ldr	r3, [r3, #20]
 8001f3a:	029a      	lsls	r2, r3, #10
 8001f3c:	687b      	ldr	r3, [r7, #4]
 8001f3e:	681b      	ldr	r3, [r3, #0]
 8001f40:	430a      	orrs	r2, r1
 8001f42:	609a      	str	r2, [r3, #8]
}
 8001f44:	bf00      	nop
 8001f46:	3714      	adds	r7, #20
 8001f48:	46bd      	mov	sp, r7
 8001f4a:	f85d 7b04 	ldr.w	r7, [sp], #4
 8001f4e:	4770      	bx	lr
 8001f50:	40012300 	.word	0x40012300
 8001f54:	0f000001 	.word	0x0f000001

08001f58 <__NVIC_SetPriorityGrouping>:
           In case of a conflict between priority grouping and available
           priority bits (__NVIC_PRIO_BITS), the smallest possible priority group is set.
  \param [in]      PriorityGroup  Priority grouping field.
 */
__STATIC_INLINE void __NVIC_SetPriorityGrouping(uint32_t PriorityGroup)
{
 8001f58:	b480      	push	{r7}
 8001f5a:	b085      	sub	sp, #20
 8001f5c:	af00      	add	r7, sp, #0
 8001f5e:	6078      	str	r0, [r7, #4]
  uint32_t reg_value;
  uint32_t PriorityGroupTmp = (PriorityGroup & (uint32_t)0x07UL);             /* only values 0..7 are used          */
 8001f60:	687b      	ldr	r3, [r7, #4]
 8001f62:	f003 0307 	and.w	r3, r3, #7
 8001f66:	60fb      	str	r3, [r7, #12]

  reg_value  =  SCB->AIRCR;                                                   /* read old register configuration    */
 8001f68:	4b0c      	ldr	r3, [pc, #48]	; (8001f9c <__NVIC_SetPriorityGrouping+0x44>)
 8001f6a:	68db      	ldr	r3, [r3, #12]
 8001f6c:	60bb      	str	r3, [r7, #8]
  reg_value &= ~((uint32_t)(SCB_AIRCR_VECTKEY_Msk | SCB_AIRCR_PRIGROUP_Msk)); /* clear bits to change               */
 8001f6e:	68ba      	ldr	r2, [r7, #8]
 8001f70:	f64f 03ff 	movw	r3, #63743	; 0xf8ff
 8001f74:	4013      	ands	r3, r2
 8001f76:	60bb      	str	r3, [r7, #8]
  reg_value  =  (reg_value                                   |
                ((uint32_t)0x5FAUL << SCB_AIRCR_VECTKEY_Pos) |
                (PriorityGroupTmp << SCB_AIRCR_PRIGROUP_Pos)  );              /* Insert write key and priority group */
 8001f78:	68fb      	ldr	r3, [r7, #12]
 8001f7a:	021a      	lsls	r2, r3, #8
                ((uint32_t)0x5FAUL << SCB_AIRCR_VECTKEY_Pos) |
 8001f7c:	68bb      	ldr	r3, [r7, #8]
 8001f7e:	4313      	orrs	r3, r2
  reg_value  =  (reg_value                                   |
 8001f80:	f043 63bf 	orr.w	r3, r3, #100139008	; 0x5f80000
 8001f84:	f443 3300 	orr.w	r3, r3, #131072	; 0x20000
 8001f88:	60bb      	str	r3, [r7, #8]
  SCB->AIRCR =  reg_value;
 8001f8a:	4a04      	ldr	r2, [pc, #16]	; (8001f9c <__NVIC_SetPriorityGrouping+0x44>)
 8001f8c:	68bb      	ldr	r3, [r7, #8]
 8001f8e:	60d3      	str	r3, [r2, #12]
}
 8001f90:	bf00      	nop
 8001f92:	3714      	adds	r7, #20
 8001f94:	46bd      	mov	sp, r7
 8001f96:	f85d 7b04 	ldr.w	r7, [sp], #4
 8001f9a:	4770      	bx	lr
 8001f9c:	e000ed00 	.word	0xe000ed00

08001fa0 <__NVIC_GetPriorityGrouping>:
  \brief   Get Priority Grouping
  \details Reads the priority grouping field from the NVIC Interrupt Controller.
  \return                Priority grouping field (SCB->AIRCR [10:8] PRIGROUP field).
 */
__STATIC_INLINE uint32_t __NVIC_GetPriorityGrouping(void)
{
 8001fa0:	b480      	push	{r7}
 8001fa2:	af00      	add	r7, sp, #0
  return ((uint32_t)((SCB->AIRCR & SCB_AIRCR_PRIGROUP_Msk) >> SCB_AIRCR_PRIGROUP_Pos));
 8001fa4:	4b04      	ldr	r3, [pc, #16]	; (8001fb8 <__NVIC_GetPriorityGrouping+0x18>)
 8001fa6:	68db      	ldr	r3, [r3, #12]
 8001fa8:	0a1b      	lsrs	r3, r3, #8
 8001faa:	f003 0307 	and.w	r3, r3, #7
}
 8001fae:	4618      	mov	r0, r3
 8001fb0:	46bd      	mov	sp, r7
 8001fb2:	f85d 7b04 	ldr.w	r7, [sp], #4
 8001fb6:	4770      	bx	lr
 8001fb8:	e000ed00 	.word	0xe000ed00

08001fbc <__NVIC_EnableIRQ>:
  \details Enables a device specific interrupt in the NVIC interrupt controller.
  \param [in]      IRQn  Device specific interrupt number.
  \note    IRQn must not be negative.
 */
__STATIC_INLINE void __NVIC_EnableIRQ(IRQn_Type IRQn)
{
 8001fbc:	b480      	push	{r7}
 8001fbe:	b083      	sub	sp, #12
 8001fc0:	af00      	add	r7, sp, #0
 8001fc2:	4603      	mov	r3, r0
 8001fc4:	71fb      	strb	r3, [r7, #7]
  if ((int32_t)(IRQn) >= 0)
 8001fc6:	f997 3007 	ldrsb.w	r3, [r7, #7]
 8001fca:	2b00      	cmp	r3, #0
 8001fcc:	db0b      	blt.n	8001fe6 <__NVIC_EnableIRQ+0x2a>
  {
    NVIC->ISER[(((uint32_t)IRQn) >> 5UL)] = (uint32_t)(1UL << (((uint32_t)IRQn) & 0x1FUL));
 8001fce:	79fb      	ldrb	r3, [r7, #7]
 8001fd0:	f003 021f 	and.w	r2, r3, #31
 8001fd4:	4907      	ldr	r1, [pc, #28]	; (8001ff4 <__NVIC_EnableIRQ+0x38>)
 8001fd6:	f997 3007 	ldrsb.w	r3, [r7, #7]
 8001fda:	095b      	lsrs	r3, r3, #5
 8001fdc:	2001      	movs	r0, #1
 8001fde:	fa00 f202 	lsl.w	r2, r0, r2
 8001fe2:	f841 2023 	str.w	r2, [r1, r3, lsl #2]
  }
}
 8001fe6:	bf00      	nop
 8001fe8:	370c      	adds	r7, #12
 8001fea:	46bd      	mov	sp, r7
 8001fec:	f85d 7b04 	ldr.w	r7, [sp], #4
 8001ff0:	4770      	bx	lr
 8001ff2:	bf00      	nop
 8001ff4:	e000e100 	.word	0xe000e100

08001ff8 <__NVIC_SetPriority>:
  \param [in]      IRQn  Interrupt number.
  \param [in]  priority  Priority to set.
  \note    The priority cannot be set for every processor exception.
 */
__STATIC_INLINE void __NVIC_SetPriority(IRQn_Type IRQn, uint32_t priority)
{
 8001ff8:	b480      	push	{r7}
 8001ffa:	b083      	sub	sp, #12
 8001ffc:	af00      	add	r7, sp, #0
 8001ffe:	4603      	mov	r3, r0
 8002000:	6039      	str	r1, [r7, #0]
 8002002:	71fb      	strb	r3, [r7, #7]
  if ((int32_t)(IRQn) >= 0)
 8002004:	f997 3007 	ldrsb.w	r3, [r7, #7]
 8002008:	2b00      	cmp	r3, #0
 800200a:	db0a      	blt.n	8002022 <__NVIC_SetPriority+0x2a>
  {
    NVIC->IP[((uint32_t)IRQn)]               = (uint8_t)((priority << (8U - __NVIC_PRIO_BITS)) & (uint32_t)0xFFUL);
 800200c:	683b      	ldr	r3, [r7, #0]
 800200e:	b2da      	uxtb	r2, r3
 8002010:	490c      	ldr	r1, [pc, #48]	; (8002044 <__NVIC_SetPriority+0x4c>)
 8002012:	f997 3007 	ldrsb.w	r3, [r7, #7]
 8002016:	0112      	lsls	r2, r2, #4
 8002018:	b2d2      	uxtb	r2, r2
 800201a:	440b      	add	r3, r1
 800201c:	f883 2300 	strb.w	r2, [r3, #768]	; 0x300
  }
  else
  {
    SCB->SHP[(((uint32_t)IRQn) & 0xFUL)-4UL] = (uint8_t)((priority << (8U - __NVIC_PRIO_BITS)) & (uint32_t)0xFFUL);
  }
}
 8002020:	e00a      	b.n	8002038 <__NVIC_SetPriority+0x40>
    SCB->SHP[(((uint32_t)IRQn) & 0xFUL)-4UL] = (uint8_t)((priority << (8U - __NVIC_PRIO_BITS)) & (uint32_t)0xFFUL);
 8002022:	683b      	ldr	r3, [r7, #0]
 8002024:	b2da      	uxtb	r2, r3
 8002026:	4908      	ldr	r1, [pc, #32]	; (8002048 <__NVIC_SetPriority+0x50>)
 8002028:	79fb      	ldrb	r3, [r7, #7]
 800202a:	f003 030f 	and.w	r3, r3, #15
 800202e:	3b04      	subs	r3, #4
 8002030:	0112      	lsls	r2, r2, #4
 8002032:	b2d2      	uxtb	r2, r2
 8002034:	440b      	add	r3, r1
 8002036:	761a      	strb	r2, [r3, #24]
}
 8002038:	bf00      	nop
 800203a:	370c      	adds	r7, #12
 800203c:	46bd      	mov	sp, r7
 800203e:	f85d 7b04 	ldr.w	r7, [sp], #4
 8002042:	4770      	bx	lr
 8002044:	e000e100 	.word	0xe000e100
 8002048:	e000ed00 	.word	0xe000ed00

0800204c <NVIC_EncodePriority>:
  \param [in]   PreemptPriority  Preemptive priority value (starting from 0).
  \param [in]       SubPriority  Subpriority value (starting from 0).
  \return                        Encoded priority. Value can be used in the function \ref NVIC_SetPriority().
 */
__STATIC_INLINE uint32_t NVIC_EncodePriority (uint32_t PriorityGroup, uint32_t PreemptPriority, uint32_t SubPriority)
{
 800204c:	b480      	push	{r7}
 800204e:	b089      	sub	sp, #36	; 0x24
 8002050:	af00      	add	r7, sp, #0
 8002052:	60f8      	str	r0, [r7, #12]
 8002054:	60b9      	str	r1, [r7, #8]
 8002056:	607a      	str	r2, [r7, #4]
  uint32_t PriorityGroupTmp = (PriorityGroup & (uint32_t)0x07UL);   /* only values 0..7 are used          */
 8002058:	68fb      	ldr	r3, [r7, #12]
 800205a:	f003 0307 	and.w	r3, r3, #7
 800205e:	61fb      	str	r3, [r7, #28]
  uint32_t PreemptPriorityBits;
  uint32_t SubPriorityBits;

  PreemptPriorityBits = ((7UL - PriorityGroupTmp) > (uint32_t)(__NVIC_PRIO_BITS)) ? (uint32_t)(__NVIC_PRIO_BITS) : (uint32_t)(7UL - PriorityGroupTmp);
 8002060:	69fb      	ldr	r3, [r7, #28]
 8002062:	f1c3 0307 	rsb	r3, r3, #7
 8002066:	2b04      	cmp	r3, #4
 8002068:	bf28      	it	cs
 800206a:	2304      	movcs	r3, #4
 800206c:	61bb      	str	r3, [r7, #24]
  SubPriorityBits     = ((PriorityGroupTmp + (uint32_t)(__NVIC_PRIO_BITS)) < (uint32_t)7UL) ? (uint32_t)0UL : (uint32_t)((PriorityGroupTmp - 7UL) + (uint32_t)(__NVIC_PRIO_BITS));
 800206e:	69fb      	ldr	r3, [r7, #28]
 8002070:	3304      	adds	r3, #4
 8002072:	2b06      	cmp	r3, #6
 8002074:	d902      	bls.n	800207c <NVIC_EncodePriority+0x30>
 8002076:	69fb      	ldr	r3, [r7, #28]
 8002078:	3b03      	subs	r3, #3
 800207a:	e000      	b.n	800207e <NVIC_EncodePriority+0x32>
 800207c:	2300      	movs	r3, #0
 800207e:	617b      	str	r3, [r7, #20]

  return (
           ((PreemptPriority & (uint32_t)((1UL << (PreemptPriorityBits)) - 1UL)) << SubPriorityBits) |
 8002080:	f04f 32ff 	mov.w	r2, #4294967295
 8002084:	69bb      	ldr	r3, [r7, #24]
 8002086:	fa02 f303 	lsl.w	r3, r2, r3
 800208a:	43da      	mvns	r2, r3
 800208c:	68bb      	ldr	r3, [r7, #8]
 800208e:	401a      	ands	r2, r3
 8002090:	697b      	ldr	r3, [r7, #20]
 8002092:	409a      	lsls	r2, r3
           ((SubPriority     & (uint32_t)((1UL << (SubPriorityBits    )) - 1UL)))
 8002094:	f04f 31ff 	mov.w	r1, #4294967295
 8002098:	697b      	ldr	r3, [r7, #20]
 800209a:	fa01 f303 	lsl.w	r3, r1, r3
 800209e:	43d9      	mvns	r1, r3
 80020a0:	687b      	ldr	r3, [r7, #4]
 80020a2:	400b      	ands	r3, r1
           ((PreemptPriority & (uint32_t)((1UL << (PreemptPriorityBits)) - 1UL)) << SubPriorityBits) |
 80020a4:	4313      	orrs	r3, r2
         );
}
 80020a6:	4618      	mov	r0, r3
 80020a8:	3724      	adds	r7, #36	; 0x24
 80020aa:	46bd      	mov	sp, r7
 80020ac:	f85d 7b04 	ldr.w	r7, [sp], #4
 80020b0:	4770      	bx	lr
	...

080020b4 <SysTick_Config>:
  \note    When the variable <b>__Vendor_SysTickConfig</b> is set to 1, then the
           function <b>SysTick_Config</b> is not included. In this case, the file <b><i>device</i>.h</b>
           must contain a vendor-specific implementation of this function.
 */
__STATIC_INLINE uint32_t SysTick_Config(uint32_t ticks)
{
 80020b4:	b580      	push	{r7, lr}
 80020b6:	b082      	sub	sp, #8
 80020b8:	af00      	add	r7, sp, #0
 80020ba:	6078      	str	r0, [r7, #4]
  if ((ticks - 1UL) > SysTick_LOAD_RELOAD_Msk)
 80020bc:	687b      	ldr	r3, [r7, #4]
 80020be:	3b01      	subs	r3, #1
 80020c0:	f1b3 7f80 	cmp.w	r3, #16777216	; 0x1000000
 80020c4:	d301      	bcc.n	80020ca <SysTick_Config+0x16>
  {
    return (1UL);                                                   /* Reload value impossible */
 80020c6:	2301      	movs	r3, #1
 80020c8:	e00f      	b.n	80020ea <SysTick_Config+0x36>
  }

  SysTick->LOAD  = (uint32_t)(ticks - 1UL);                         /* set reload register */
 80020ca:	4a0a      	ldr	r2, [pc, #40]	; (80020f4 <SysTick_Config+0x40>)
 80020cc:	687b      	ldr	r3, [r7, #4]
 80020ce:	3b01      	subs	r3, #1
 80020d0:	6053      	str	r3, [r2, #4]
  NVIC_SetPriority (SysTick_IRQn, (1UL << __NVIC_PRIO_BITS) - 1UL); /* set Priority for Systick Interrupt */
 80020d2:	210f      	movs	r1, #15
 80020d4:	f04f 30ff 	mov.w	r0, #4294967295
 80020d8:	f7ff ff8e 	bl	8001ff8 <__NVIC_SetPriority>
  SysTick->VAL   = 0UL;                                             /* Load the SysTick Counter Value */
 80020dc:	4b05      	ldr	r3, [pc, #20]	; (80020f4 <SysTick_Config+0x40>)
 80020de:	2200      	movs	r2, #0
 80020e0:	609a      	str	r2, [r3, #8]
  SysTick->CTRL  = SysTick_CTRL_CLKSOURCE_Msk |
 80020e2:	4b04      	ldr	r3, [pc, #16]	; (80020f4 <SysTick_Config+0x40>)
 80020e4:	2207      	movs	r2, #7
 80020e6:	601a      	str	r2, [r3, #0]
                   SysTick_CTRL_TICKINT_Msk   |
                   SysTick_CTRL_ENABLE_Msk;                         /* Enable SysTick IRQ and SysTick Timer */
  return (0UL);                                                     /* Function successful */
 80020e8:	2300      	movs	r3, #0
}
 80020ea:	4618      	mov	r0, r3
 80020ec:	3708      	adds	r7, #8
 80020ee:	46bd      	mov	sp, r7
 80020f0:	bd80      	pop	{r7, pc}
 80020f2:	bf00      	nop
 80020f4:	e000e010 	.word	0xe000e010

080020f8 <HAL_NVIC_SetPriorityGrouping>:
  * @note   When the NVIC_PriorityGroup_0 is selected, IRQ preemption is no more possible. 
  *         The pending IRQ priority will be managed only by the subpriority. 
  * @retval None
  */
void HAL_NVIC_SetPriorityGrouping(uint32_t PriorityGroup)
{
 80020f8:	b580      	push	{r7, lr}
 80020fa:	b082      	sub	sp, #8
 80020fc:	af00      	add	r7, sp, #0
 80020fe:	6078      	str	r0, [r7, #4]
  /* Check the parameters */
  assert_param(IS_NVIC_PRIORITY_GROUP(PriorityGroup));
  
  /* Set the PRIGROUP[10:8] bits according to the PriorityGroup parameter value */
  NVIC_SetPriorityGrouping(PriorityGroup);
 8002100:	6878      	ldr	r0, [r7, #4]
 8002102:	f7ff ff29 	bl	8001f58 <__NVIC_SetPriorityGrouping>
}
 8002106:	bf00      	nop
 8002108:	3708      	adds	r7, #8
 800210a:	46bd      	mov	sp, r7
 800210c:	bd80      	pop	{r7, pc}

0800210e <HAL_NVIC_SetPriority>:
  *         This parameter can be a value between 0 and 15
  *         A lower priority value indicates a higher priority.          
  * @retval None
  */
void HAL_NVIC_SetPriority(IRQn_Type IRQn, uint32_t PreemptPriority, uint32_t SubPriority)
{ 
 800210e:	b580      	push	{r7, lr}
 8002110:	b086      	sub	sp, #24
 8002112:	af00      	add	r7, sp, #0
 8002114:	4603      	mov	r3, r0
 8002116:	60b9      	str	r1, [r7, #8]
 8002118:	607a      	str	r2, [r7, #4]
 800211a:	73fb      	strb	r3, [r7, #15]
  uint32_t prioritygroup = 0x00U;
 800211c:	2300      	movs	r3, #0
 800211e:	617b      	str	r3, [r7, #20]
  
  /* Check the parameters */
  assert_param(IS_NVIC_SUB_PRIORITY(SubPriority));
  assert_param(IS_NVIC_PREEMPTION_PRIORITY(PreemptPriority));
  
  prioritygroup = NVIC_GetPriorityGrouping();
 8002120:	f7ff ff3e 	bl	8001fa0 <__NVIC_GetPriorityGrouping>
 8002124:	6178      	str	r0, [r7, #20]
  
  NVIC_SetPriority(IRQn, NVIC_EncodePriority(prioritygroup, PreemptPriority, SubPriority));
 8002126:	687a      	ldr	r2, [r7, #4]
 8002128:	68b9      	ldr	r1, [r7, #8]
 800212a:	6978      	ldr	r0, [r7, #20]
 800212c:	f7ff ff8e 	bl	800204c <NVIC_EncodePriority>
 8002130:	4602      	mov	r2, r0
 8002132:	f997 300f 	ldrsb.w	r3, [r7, #15]
 8002136:	4611      	mov	r1, r2
 8002138:	4618      	mov	r0, r3
 800213a:	f7ff ff5d 	bl	8001ff8 <__NVIC_SetPriority>
}
 800213e:	bf00      	nop
 8002140:	3718      	adds	r7, #24
 8002142:	46bd      	mov	sp, r7
 8002144:	bd80      	pop	{r7, pc}

08002146 <HAL_NVIC_EnableIRQ>:
  *         This parameter can be an enumerator of IRQn_Type enumeration
  *         (For the complete STM32 Devices IRQ Channels list, please refer to the appropriate CMSIS device file (stm32f4xxxx.h))
  * @retval None
  */
void HAL_NVIC_EnableIRQ(IRQn_Type IRQn)
{
 8002146:	b580      	push	{r7, lr}
 8002148:	b082      	sub	sp, #8
 800214a:	af00      	add	r7, sp, #0
 800214c:	4603      	mov	r3, r0
 800214e:	71fb      	strb	r3, [r7, #7]
  /* Check the parameters */
  assert_param(IS_NVIC_DEVICE_IRQ(IRQn));
  
  /* Enable interrupt */
  NVIC_EnableIRQ(IRQn);
 8002150:	f997 3007 	ldrsb.w	r3, [r7, #7]
 8002154:	4618      	mov	r0, r3
 8002156:	f7ff ff31 	bl	8001fbc <__NVIC_EnableIRQ>
}
 800215a:	bf00      	nop
 800215c:	3708      	adds	r7, #8
 800215e:	46bd      	mov	sp, r7
 8002160:	bd80      	pop	{r7, pc}

08002162 <HAL_SYSTICK_Config>:
  * @param  TicksNumb Specifies the ticks Number of ticks between two interrupts.
  * @retval status:  - 0  Function succeeded.
  *                  - 1  Function failed.
  */
uint32_t HAL_SYSTICK_Config(uint32_t TicksNumb)
{
 8002162:	b580      	push	{r7, lr}
 8002164:	b082      	sub	sp, #8
 8002166:	af00      	add	r7, sp, #0
 8002168:	6078      	str	r0, [r7, #4]
   return SysTick_Config(TicksNumb);
 800216a:	6878      	ldr	r0, [r7, #4]
 800216c:	f7ff ffa2 	bl	80020b4 <SysTick_Config>
 8002170:	4603      	mov	r3, r0
}
 8002172:	4618      	mov	r0, r3
 8002174:	3708      	adds	r7, #8
 8002176:	46bd      	mov	sp, r7
 8002178:	bd80      	pop	{r7, pc}
	...

0800217c <HAL_DMA_Init>:
  * @param  hdma Pointer to a DMA_HandleTypeDef structure that contains
  *               the configuration information for the specified DMA Stream.  
  * @retval HAL status
  */
HAL_StatusTypeDef HAL_DMA_Init(DMA_HandleTypeDef *hdma)
{
 800217c:	b580      	push	{r7, lr}
 800217e:	b086      	sub	sp, #24
 8002180:	af00      	add	r7, sp, #0
 8002182:	6078      	str	r0, [r7, #4]
  uint32_t tmp = 0U;
 8002184:	2300      	movs	r3, #0
 8002186:	617b      	str	r3, [r7, #20]
  uint32_t tickstart = HAL_GetTick();
 8002188:	f7ff faa6 	bl	80016d8 <HAL_GetTick>
 800218c:	6138      	str	r0, [r7, #16]
  DMA_Base_Registers *regs;

  /* Check the DMA peripheral state */
  if(hdma == NULL)
 800218e:	687b      	ldr	r3, [r7, #4]
 8002190:	2b00      	cmp	r3, #0
 8002192:	d101      	bne.n	8002198 <HAL_DMA_Init+0x1c>
  {
    return HAL_ERROR;
 8002194:	2301      	movs	r3, #1
 8002196:	e099      	b.n	80022cc <HAL_DMA_Init+0x150>
    assert_param(IS_DMA_MEMORY_BURST(hdma->Init.MemBurst));
    assert_param(IS_DMA_PERIPHERAL_BURST(hdma->Init.PeriphBurst));
  }

  /* Change DMA peripheral state */
  hdma->State = HAL_DMA_STATE_BUSY;
 8002198:	687b      	ldr	r3, [r7, #4]
 800219a:	2202      	movs	r2, #2
 800219c:	f883 2035 	strb.w	r2, [r3, #53]	; 0x35

  /* Allocate lock resource */
  __HAL_UNLOCK(hdma);
 80021a0:	687b      	ldr	r3, [r7, #4]
 80021a2:	2200      	movs	r2, #0
 80021a4:	f883 2034 	strb.w	r2, [r3, #52]	; 0x34
  
  /* Disable the peripheral */
  __HAL_DMA_DISABLE(hdma);
 80021a8:	687b      	ldr	r3, [r7, #4]
 80021aa:	681b      	ldr	r3, [r3, #0]
 80021ac:	681a      	ldr	r2, [r3, #0]
 80021ae:	687b      	ldr	r3, [r7, #4]
 80021b0:	681b      	ldr	r3, [r3, #0]
 80021b2:	f022 0201 	bic.w	r2, r2, #1
 80021b6:	601a      	str	r2, [r3, #0]
  
  /* Check if the DMA Stream is effectively disabled */
  while((hdma->Instance->CR & DMA_SxCR_EN) != RESET)
 80021b8:	e00f      	b.n	80021da <HAL_DMA_Init+0x5e>
  {
    /* Check for the Timeout */
    if((HAL_GetTick() - tickstart ) > HAL_TIMEOUT_DMA_ABORT)
 80021ba:	f7ff fa8d 	bl	80016d8 <HAL_GetTick>
 80021be:	4602      	mov	r2, r0
 80021c0:	693b      	ldr	r3, [r7, #16]
 80021c2:	1ad3      	subs	r3, r2, r3
 80021c4:	2b05      	cmp	r3, #5
 80021c6:	d908      	bls.n	80021da <HAL_DMA_Init+0x5e>
    {
      /* Update error code */
      hdma->ErrorCode = HAL_DMA_ERROR_TIMEOUT;
 80021c8:	687b      	ldr	r3, [r7, #4]
 80021ca:	2220      	movs	r2, #32
 80021cc:	655a      	str	r2, [r3, #84]	; 0x54
      
      /* Change the DMA state */
      hdma->State = HAL_DMA_STATE_TIMEOUT;
 80021ce:	687b      	ldr	r3, [r7, #4]
 80021d0:	2203      	movs	r2, #3
 80021d2:	f883 2035 	strb.w	r2, [r3, #53]	; 0x35
      
      return HAL_TIMEOUT;
 80021d6:	2303      	movs	r3, #3
 80021d8:	e078      	b.n	80022cc <HAL_DMA_Init+0x150>
  while((hdma->Instance->CR & DMA_SxCR_EN) != RESET)
 80021da:	687b      	ldr	r3, [r7, #4]
 80021dc:	681b      	ldr	r3, [r3, #0]
 80021de:	681b      	ldr	r3, [r3, #0]
 80021e0:	f003 0301 	and.w	r3, r3, #1
 80021e4:	2b00      	cmp	r3, #0
 80021e6:	d1e8      	bne.n	80021ba <HAL_DMA_Init+0x3e>
    }
  }
  
  /* Get the CR register value */
  tmp = hdma->Instance->CR;
 80021e8:	687b      	ldr	r3, [r7, #4]
 80021ea:	681b      	ldr	r3, [r3, #0]
 80021ec:	681b      	ldr	r3, [r3, #0]
 80021ee:	617b      	str	r3, [r7, #20]

  /* Clear CHSEL, MBURST, PBURST, PL, MSIZE, PSIZE, MINC, PINC, CIRC, DIR, CT and DBM bits */
  tmp &= ((uint32_t)~(DMA_SxCR_CHSEL | DMA_SxCR_MBURST | DMA_SxCR_PBURST | \
 80021f0:	697a      	ldr	r2, [r7, #20]
 80021f2:	4b38      	ldr	r3, [pc, #224]	; (80022d4 <HAL_DMA_Init+0x158>)
 80021f4:	4013      	ands	r3, r2
 80021f6:	617b      	str	r3, [r7, #20]
                      DMA_SxCR_PL    | DMA_SxCR_MSIZE  | DMA_SxCR_PSIZE  | \
                      DMA_SxCR_MINC  | DMA_SxCR_PINC   | DMA_SxCR_CIRC   | \
                      DMA_SxCR_DIR   | DMA_SxCR_CT     | DMA_SxCR_DBM));

  /* Prepare the DMA Stream configuration */
  tmp |=  hdma->Init.Channel             | hdma->Init.Direction        |
 80021f8:	687b      	ldr	r3, [r7, #4]
 80021fa:	685a      	ldr	r2, [r3, #4]
 80021fc:	687b      	ldr	r3, [r7, #4]
 80021fe:	689b      	ldr	r3, [r3, #8]
 8002200:	431a      	orrs	r2, r3
          hdma->Init.PeriphInc           | hdma->Init.MemInc           |
 8002202:	687b      	ldr	r3, [r7, #4]
 8002204:	68db      	ldr	r3, [r3, #12]
  tmp |=  hdma->Init.Channel             | hdma->Init.Direction        |
 8002206:	431a      	orrs	r2, r3
          hdma->Init.PeriphInc           | hdma->Init.MemInc           |
 8002208:	687b      	ldr	r3, [r7, #4]
 800220a:	691b      	ldr	r3, [r3, #16]
 800220c:	431a      	orrs	r2, r3
          hdma->Init.PeriphDataAlignment | hdma->Init.MemDataAlignment |
 800220e:	687b      	ldr	r3, [r7, #4]
 8002210:	695b      	ldr	r3, [r3, #20]
          hdma->Init.PeriphInc           | hdma->Init.MemInc           |
 8002212:	431a      	orrs	r2, r3
          hdma->Init.PeriphDataAlignment | hdma->Init.MemDataAlignment |
 8002214:	687b      	ldr	r3, [r7, #4]
 8002216:	699b      	ldr	r3, [r3, #24]
 8002218:	431a      	orrs	r2, r3
          hdma->Init.Mode                | hdma->Init.Priority;
 800221a:	687b      	ldr	r3, [r7, #4]
 800221c:	69db      	ldr	r3, [r3, #28]
          hdma->Init.PeriphDataAlignment | hdma->Init.MemDataAlignment |
 800221e:	431a      	orrs	r2, r3
          hdma->Init.Mode                | hdma->Init.Priority;
 8002220:	687b      	ldr	r3, [r7, #4]
 8002222:	6a1b      	ldr	r3, [r3, #32]
 8002224:	4313      	orrs	r3, r2
  tmp |=  hdma->Init.Channel             | hdma->Init.Direction        |
 8002226:	697a      	ldr	r2, [r7, #20]
 8002228:	4313      	orrs	r3, r2
 800222a:	617b      	str	r3, [r7, #20]

  /* the Memory burst and peripheral burst are not used when the FIFO is disabled */
  if(hdma->Init.FIFOMode == DMA_FIFOMODE_ENABLE)
 800222c:	687b      	ldr	r3, [r7, #4]
 800222e:	6a5b      	ldr	r3, [r3, #36]	; 0x24
 8002230:	2b04      	cmp	r3, #4
 8002232:	d107      	bne.n	8002244 <HAL_DMA_Init+0xc8>
  {
    /* Get memory burst and peripheral burst */
    tmp |=  hdma->Init.MemBurst | hdma->Init.PeriphBurst;
 8002234:	687b      	ldr	r3, [r7, #4]
 8002236:	6ada      	ldr	r2, [r3, #44]	; 0x2c
 8002238:	687b      	ldr	r3, [r7, #4]
 800223a:	6b1b      	ldr	r3, [r3, #48]	; 0x30
 800223c:	4313      	orrs	r3, r2
 800223e:	697a      	ldr	r2, [r7, #20]
 8002240:	4313      	orrs	r3, r2
 8002242:	617b      	str	r3, [r7, #20]
  }
  
  /* Write to DMA Stream CR register */
  hdma->Instance->CR = tmp;  
 8002244:	687b      	ldr	r3, [r7, #4]
 8002246:	681b      	ldr	r3, [r3, #0]
 8002248:	697a      	ldr	r2, [r7, #20]
 800224a:	601a      	str	r2, [r3, #0]

  /* Get the FCR register value */
  tmp = hdma->Instance->FCR;
 800224c:	687b      	ldr	r3, [r7, #4]
 800224e:	681b      	ldr	r3, [r3, #0]
 8002250:	695b      	ldr	r3, [r3, #20]
 8002252:	617b      	str	r3, [r7, #20]

  /* Clear Direct mode and FIFO threshold bits */
  tmp &= (uint32_t)~(DMA_SxFCR_DMDIS | DMA_SxFCR_FTH);
 8002254:	697b      	ldr	r3, [r7, #20]
 8002256:	f023 0307 	bic.w	r3, r3, #7
 800225a:	617b      	str	r3, [r7, #20]

  /* Prepare the DMA Stream FIFO configuration */
  tmp |= hdma->Init.FIFOMode;
 800225c:	687b      	ldr	r3, [r7, #4]
 800225e:	6a5b      	ldr	r3, [r3, #36]	; 0x24
 8002260:	697a      	ldr	r2, [r7, #20]
 8002262:	4313      	orrs	r3, r2
 8002264:	617b      	str	r3, [r7, #20]

  /* The FIFO threshold is not used when the FIFO mode is disabled */
  if(hdma->Init.FIFOMode == DMA_FIFOMODE_ENABLE)
 8002266:	687b      	ldr	r3, [r7, #4]
 8002268:	6a5b      	ldr	r3, [r3, #36]	; 0x24
 800226a:	2b04      	cmp	r3, #4
 800226c:	d117      	bne.n	800229e <HAL_DMA_Init+0x122>
  {
    /* Get the FIFO threshold */
    tmp |= hdma->Init.FIFOThreshold;
 800226e:	687b      	ldr	r3, [r7, #4]
 8002270:	6a9b      	ldr	r3, [r3, #40]	; 0x28
 8002272:	697a      	ldr	r2, [r7, #20]
 8002274:	4313      	orrs	r3, r2
 8002276:	617b      	str	r3, [r7, #20]
    
    /* Check compatibility between FIFO threshold level and size of the memory burst */
    /* for INCR4, INCR8, INCR16 bursts */
    if (hdma->Init.MemBurst != DMA_MBURST_SINGLE)
 8002278:	687b      	ldr	r3, [r7, #4]
 800227a:	6adb      	ldr	r3, [r3, #44]	; 0x2c
 800227c:	2b00      	cmp	r3, #0
 800227e:	d00e      	beq.n	800229e <HAL_DMA_Init+0x122>
    {
      if (DMA_CheckFifoParam(hdma) != HAL_OK)
 8002280:	6878      	ldr	r0, [r7, #4]
 8002282:	f000 f9e9 	bl	8002658 <DMA_CheckFifoParam>
 8002286:	4603      	mov	r3, r0
 8002288:	2b00      	cmp	r3, #0
 800228a:	d008      	beq.n	800229e <HAL_DMA_Init+0x122>
      {
        /* Update error code */
        hdma->ErrorCode = HAL_DMA_ERROR_PARAM;
 800228c:	687b      	ldr	r3, [r7, #4]
 800228e:	2240      	movs	r2, #64	; 0x40
 8002290:	655a      	str	r2, [r3, #84]	; 0x54
        
        /* Change the DMA state */
        hdma->State = HAL_DMA_STATE_READY;
 8002292:	687b      	ldr	r3, [r7, #4]
 8002294:	2201      	movs	r2, #1
 8002296:	f883 2035 	strb.w	r2, [r3, #53]	; 0x35
        
        return HAL_ERROR; 
 800229a:	2301      	movs	r3, #1
 800229c:	e016      	b.n	80022cc <HAL_DMA_Init+0x150>
      }
    }
  }
  
  /* Write to DMA Stream FCR */
  hdma->Instance->FCR = tmp;
 800229e:	687b      	ldr	r3, [r7, #4]
 80022a0:	681b      	ldr	r3, [r3, #0]
 80022a2:	697a      	ldr	r2, [r7, #20]
 80022a4:	615a      	str	r2, [r3, #20]

  /* Initialize StreamBaseAddress and StreamIndex parameters to be used to calculate
     DMA steam Base Address needed by HAL_DMA_IRQHandler() and HAL_DMA_PollForTransfer() */
  regs = (DMA_Base_Registers *)DMA_CalcBaseAndBitshift(hdma);
 80022a6:	6878      	ldr	r0, [r7, #4]
 80022a8:	f000 f9a0 	bl	80025ec <DMA_CalcBaseAndBitshift>
 80022ac:	4603      	mov	r3, r0
 80022ae:	60fb      	str	r3, [r7, #12]
  
  /* Clear all interrupt flags */
  regs->IFCR = 0x3FU << hdma->StreamIndex;
 80022b0:	687b      	ldr	r3, [r7, #4]
 80022b2:	6ddb      	ldr	r3, [r3, #92]	; 0x5c
 80022b4:	223f      	movs	r2, #63	; 0x3f
 80022b6:	409a      	lsls	r2, r3
 80022b8:	68fb      	ldr	r3, [r7, #12]
 80022ba:	609a      	str	r2, [r3, #8]

  /* Initialize the error code */
  hdma->ErrorCode = HAL_DMA_ERROR_NONE;
 80022bc:	687b      	ldr	r3, [r7, #4]
 80022be:	2200      	movs	r2, #0
 80022c0:	655a      	str	r2, [r3, #84]	; 0x54
                                                                                     
  /* Initialize the DMA state */
  hdma->State = HAL_DMA_STATE_READY;
 80022c2:	687b      	ldr	r3, [r7, #4]
 80022c4:	2201      	movs	r2, #1
 80022c6:	f883 2035 	strb.w	r2, [r3, #53]	; 0x35

  return HAL_OK;
 80022ca:	2300      	movs	r3, #0
}
 80022cc:	4618      	mov	r0, r3
 80022ce:	3718      	adds	r7, #24
 80022d0:	46bd      	mov	sp, r7
 80022d2:	bd80      	pop	{r7, pc}
 80022d4:	f010803f 	.word	0xf010803f

080022d8 <HAL_DMA_IRQHandler>:
  * @param  hdma pointer to a DMA_HandleTypeDef structure that contains
  *               the configuration information for the specified DMA Stream.  
  * @retval None
  */
void HAL_DMA_IRQHandler(DMA_HandleTypeDef *hdma)
{
 80022d8:	b580      	push	{r7, lr}
 80022da:	b086      	sub	sp, #24
 80022dc:	af00      	add	r7, sp, #0
 80022de:	6078      	str	r0, [r7, #4]
  uint32_t tmpisr;
  __IO uint32_t count = 0U;
 80022e0:	2300      	movs	r3, #0
 80022e2:	60bb      	str	r3, [r7, #8]
  uint32_t timeout = SystemCoreClock / 9600U;
 80022e4:	4b8e      	ldr	r3, [pc, #568]	; (8002520 <HAL_DMA_IRQHandler+0x248>)
 80022e6:	681b      	ldr	r3, [r3, #0]
 80022e8:	4a8e      	ldr	r2, [pc, #568]	; (8002524 <HAL_DMA_IRQHandler+0x24c>)
 80022ea:	fba2 2303 	umull	r2, r3, r2, r3
 80022ee:	0a9b      	lsrs	r3, r3, #10
 80022f0:	617b      	str	r3, [r7, #20]

  /* calculate DMA base and stream number */
  DMA_Base_Registers *regs = (DMA_Base_Registers *)hdma->StreamBaseAddress;
 80022f2:	687b      	ldr	r3, [r7, #4]
 80022f4:	6d9b      	ldr	r3, [r3, #88]	; 0x58
 80022f6:	613b      	str	r3, [r7, #16]

  tmpisr = regs->ISR;
 80022f8:	693b      	ldr	r3, [r7, #16]
 80022fa:	681b      	ldr	r3, [r3, #0]
 80022fc:	60fb      	str	r3, [r7, #12]

  /* Transfer Error Interrupt management ***************************************/
  if ((tmpisr & (DMA_FLAG_TEIF0_4 << hdma->StreamIndex)) != RESET)
 80022fe:	687b      	ldr	r3, [r7, #4]
 8002300:	6ddb      	ldr	r3, [r3, #92]	; 0x5c
 8002302:	2208      	movs	r2, #8
 8002304:	409a      	lsls	r2, r3
 8002306:	68fb      	ldr	r3, [r7, #12]
 8002308:	4013      	ands	r3, r2
 800230a:	2b00      	cmp	r3, #0
 800230c:	d01a      	beq.n	8002344 <HAL_DMA_IRQHandler+0x6c>
  {
    if(__HAL_DMA_GET_IT_SOURCE(hdma, DMA_IT_TE) != RESET)
 800230e:	687b      	ldr	r3, [r7, #4]
 8002310:	681b      	ldr	r3, [r3, #0]
 8002312:	681b      	ldr	r3, [r3, #0]
 8002314:	f003 0304 	and.w	r3, r3, #4
 8002318:	2b00      	cmp	r3, #0
 800231a:	d013      	beq.n	8002344 <HAL_DMA_IRQHandler+0x6c>
    {
      /* Disable the transfer error interrupt */
      hdma->Instance->CR  &= ~(DMA_IT_TE);
 800231c:	687b      	ldr	r3, [r7, #4]
 800231e:	681b      	ldr	r3, [r3, #0]
 8002320:	681a      	ldr	r2, [r3, #0]
 8002322:	687b      	ldr	r3, [r7, #4]
 8002324:	681b      	ldr	r3, [r3, #0]
 8002326:	f022 0204 	bic.w	r2, r2, #4
 800232a:	601a      	str	r2, [r3, #0]
      
      /* Clear the transfer error flag */
      regs->IFCR = DMA_FLAG_TEIF0_4 << hdma->StreamIndex;
 800232c:	687b      	ldr	r3, [r7, #4]
 800232e:	6ddb      	ldr	r3, [r3, #92]	; 0x5c
 8002330:	2208      	movs	r2, #8
 8002332:	409a      	lsls	r2, r3
 8002334:	693b      	ldr	r3, [r7, #16]
 8002336:	609a      	str	r2, [r3, #8]
      
      /* Update error code */
      hdma->ErrorCode |= HAL_DMA_ERROR_TE;
 8002338:	687b      	ldr	r3, [r7, #4]
 800233a:	6d5b      	ldr	r3, [r3, #84]	; 0x54
 800233c:	f043 0201 	orr.w	r2, r3, #1
 8002340:	687b      	ldr	r3, [r7, #4]
 8002342:	655a      	str	r2, [r3, #84]	; 0x54
    }
  }
  /* FIFO Error Interrupt management ******************************************/
  if ((tmpisr & (DMA_FLAG_FEIF0_4 << hdma->StreamIndex)) != RESET)
 8002344:	687b      	ldr	r3, [r7, #4]
 8002346:	6ddb      	ldr	r3, [r3, #92]	; 0x5c
 8002348:	2201      	movs	r2, #1
 800234a:	409a      	lsls	r2, r3
 800234c:	68fb      	ldr	r3, [r7, #12]
 800234e:	4013      	ands	r3, r2
 8002350:	2b00      	cmp	r3, #0
 8002352:	d012      	beq.n	800237a <HAL_DMA_IRQHandler+0xa2>
  {
    if(__HAL_DMA_GET_IT_SOURCE(hdma, DMA_IT_FE) != RESET)
 8002354:	687b      	ldr	r3, [r7, #4]
 8002356:	681b      	ldr	r3, [r3, #0]
 8002358:	695b      	ldr	r3, [r3, #20]
 800235a:	f003 0380 	and.w	r3, r3, #128	; 0x80
 800235e:	2b00      	cmp	r3, #0
 8002360:	d00b      	beq.n	800237a <HAL_DMA_IRQHandler+0xa2>
    {
      /* Clear the FIFO error flag */
      regs->IFCR = DMA_FLAG_FEIF0_4 << hdma->StreamIndex;
 8002362:	687b      	ldr	r3, [r7, #4]
 8002364:	6ddb      	ldr	r3, [r3, #92]	; 0x5c
 8002366:	2201      	movs	r2, #1
 8002368:	409a      	lsls	r2, r3
 800236a:	693b      	ldr	r3, [r7, #16]
 800236c:	609a      	str	r2, [r3, #8]

      /* Update error code */
      hdma->ErrorCode |= HAL_DMA_ERROR_FE;
 800236e:	687b      	ldr	r3, [r7, #4]
 8002370:	6d5b      	ldr	r3, [r3, #84]	; 0x54
 8002372:	f043 0202 	orr.w	r2, r3, #2
 8002376:	687b      	ldr	r3, [r7, #4]
 8002378:	655a      	str	r2, [r3, #84]	; 0x54
    }
  }
  /* Direct Mode Error Interrupt management ***********************************/
  if ((tmpisr & (DMA_FLAG_DMEIF0_4 << hdma->StreamIndex)) != RESET)
 800237a:	687b      	ldr	r3, [r7, #4]
 800237c:	6ddb      	ldr	r3, [r3, #92]	; 0x5c
 800237e:	2204      	movs	r2, #4
 8002380:	409a      	lsls	r2, r3
 8002382:	68fb      	ldr	r3, [r7, #12]
 8002384:	4013      	ands	r3, r2
 8002386:	2b00      	cmp	r3, #0
 8002388:	d012      	beq.n	80023b0 <HAL_DMA_IRQHandler+0xd8>
  {
    if(__HAL_DMA_GET_IT_SOURCE(hdma, DMA_IT_DME) != RESET)
 800238a:	687b      	ldr	r3, [r7, #4]
 800238c:	681b      	ldr	r3, [r3, #0]
 800238e:	681b      	ldr	r3, [r3, #0]
 8002390:	f003 0302 	and.w	r3, r3, #2
 8002394:	2b00      	cmp	r3, #0
 8002396:	d00b      	beq.n	80023b0 <HAL_DMA_IRQHandler+0xd8>
    {
      /* Clear the direct mode error flag */
      regs->IFCR = DMA_FLAG_DMEIF0_4 << hdma->StreamIndex;
 8002398:	687b      	ldr	r3, [r7, #4]
 800239a:	6ddb      	ldr	r3, [r3, #92]	; 0x5c
 800239c:	2204      	movs	r2, #4
 800239e:	409a      	lsls	r2, r3
 80023a0:	693b      	ldr	r3, [r7, #16]
 80023a2:	609a      	str	r2, [r3, #8]

      /* Update error code */
      hdma->ErrorCode |= HAL_DMA_ERROR_DME;
 80023a4:	687b      	ldr	r3, [r7, #4]
 80023a6:	6d5b      	ldr	r3, [r3, #84]	; 0x54
 80023a8:	f043 0204 	orr.w	r2, r3, #4
 80023ac:	687b      	ldr	r3, [r7, #4]
 80023ae:	655a      	str	r2, [r3, #84]	; 0x54
    }
  }
  /* Half Transfer Complete Interrupt management ******************************/
  if ((tmpisr & (DMA_FLAG_HTIF0_4 << hdma->StreamIndex)) != RESET)
 80023b0:	687b      	ldr	r3, [r7, #4]
 80023b2:	6ddb      	ldr	r3, [r3, #92]	; 0x5c
 80023b4:	2210      	movs	r2, #16
 80023b6:	409a      	lsls	r2, r3
 80023b8:	68fb      	ldr	r3, [r7, #12]
 80023ba:	4013      	ands	r3, r2
 80023bc:	2b00      	cmp	r3, #0
 80023be:	d043      	beq.n	8002448 <HAL_DMA_IRQHandler+0x170>
  {
    if(__HAL_DMA_GET_IT_SOURCE(hdma, DMA_IT_HT) != RESET)
 80023c0:	687b      	ldr	r3, [r7, #4]
 80023c2:	681b      	ldr	r3, [r3, #0]
 80023c4:	681b      	ldr	r3, [r3, #0]
 80023c6:	f003 0308 	and.w	r3, r3, #8
 80023ca:	2b00      	cmp	r3, #0
 80023cc:	d03c      	beq.n	8002448 <HAL_DMA_IRQHandler+0x170>
    {
      /* Clear the half transfer complete flag */
      regs->IFCR = DMA_FLAG_HTIF0_4 << hdma->StreamIndex;
 80023ce:	687b      	ldr	r3, [r7, #4]
 80023d0:	6ddb      	ldr	r3, [r3, #92]	; 0x5c
 80023d2:	2210      	movs	r2, #16
 80023d4:	409a      	lsls	r2, r3
 80023d6:	693b      	ldr	r3, [r7, #16]
 80023d8:	609a      	str	r2, [r3, #8]
      
      /* Multi_Buffering mode enabled */
      if(((hdma->Instance->CR) & (uint32_t)(DMA_SxCR_DBM)) != RESET)
 80023da:	687b      	ldr	r3, [r7, #4]
 80023dc:	681b      	ldr	r3, [r3, #0]
 80023de:	681b      	ldr	r3, [r3, #0]
 80023e0:	f403 2380 	and.w	r3, r3, #262144	; 0x40000
 80023e4:	2b00      	cmp	r3, #0
 80023e6:	d018      	beq.n	800241a <HAL_DMA_IRQHandler+0x142>
      {
        /* Current memory buffer used is Memory 0 */
        if((hdma->Instance->CR & DMA_SxCR_CT) == RESET)
 80023e8:	687b      	ldr	r3, [r7, #4]
 80023ea:	681b      	ldr	r3, [r3, #0]
 80023ec:	681b      	ldr	r3, [r3, #0]
 80023ee:	f403 2300 	and.w	r3, r3, #524288	; 0x80000
 80023f2:	2b00      	cmp	r3, #0
 80023f4:	d108      	bne.n	8002408 <HAL_DMA_IRQHandler+0x130>
        {
          if(hdma->XferHalfCpltCallback != NULL)
 80023f6:	687b      	ldr	r3, [r7, #4]
 80023f8:	6c1b      	ldr	r3, [r3, #64]	; 0x40
 80023fa:	2b00      	cmp	r3, #0
 80023fc:	d024      	beq.n	8002448 <HAL_DMA_IRQHandler+0x170>
          {
            /* Half transfer callback */
            hdma->XferHalfCpltCallback(hdma);
 80023fe:	687b      	ldr	r3, [r7, #4]
 8002400:	6c1b      	ldr	r3, [r3, #64]	; 0x40
 8002402:	6878      	ldr	r0, [r7, #4]
 8002404:	4798      	blx	r3
 8002406:	e01f      	b.n	8002448 <HAL_DMA_IRQHandler+0x170>
          }
        }
        /* Current memory buffer used is Memory 1 */
        else
        {
          if(hdma->XferM1HalfCpltCallback != NULL)
 8002408:	687b      	ldr	r3, [r7, #4]
 800240a:	6c9b      	ldr	r3, [r3, #72]	; 0x48
 800240c:	2b00      	cmp	r3, #0
 800240e:	d01b      	beq.n	8002448 <HAL_DMA_IRQHandler+0x170>
          {
            /* Half transfer callback */
            hdma->XferM1HalfCpltCallback(hdma);
 8002410:	687b      	ldr	r3, [r7, #4]
 8002412:	6c9b      	ldr	r3, [r3, #72]	; 0x48
 8002414:	6878      	ldr	r0, [r7, #4]
 8002416:	4798      	blx	r3
 8002418:	e016      	b.n	8002448 <HAL_DMA_IRQHandler+0x170>
        }
      }
      else
      {
        /* Disable the half transfer interrupt if the DMA mode is not CIRCULAR */
        if((hdma->Instance->CR & DMA_SxCR_CIRC) == RESET)
 800241a:	687b      	ldr	r3, [r7, #4]
 800241c:	681b      	ldr	r3, [r3, #0]
 800241e:	681b      	ldr	r3, [r3, #0]
 8002420:	f403 7380 	and.w	r3, r3, #256	; 0x100
 8002424:	2b00      	cmp	r3, #0
 8002426:	d107      	bne.n	8002438 <HAL_DMA_IRQHandler+0x160>
        {
          /* Disable the half transfer interrupt */
          hdma->Instance->CR  &= ~(DMA_IT_HT);
 8002428:	687b      	ldr	r3, [r7, #4]
 800242a:	681b      	ldr	r3, [r3, #0]
 800242c:	681a      	ldr	r2, [r3, #0]
 800242e:	687b      	ldr	r3, [r7, #4]
 8002430:	681b      	ldr	r3, [r3, #0]
 8002432:	f022 0208 	bic.w	r2, r2, #8
 8002436:	601a      	str	r2, [r3, #0]
        }
        
        if(hdma->XferHalfCpltCallback != NULL)
 8002438:	687b      	ldr	r3, [r7, #4]
 800243a:	6c1b      	ldr	r3, [r3, #64]	; 0x40
 800243c:	2b00      	cmp	r3, #0
 800243e:	d003      	beq.n	8002448 <HAL_DMA_IRQHandler+0x170>
        {
          /* Half transfer callback */
          hdma->XferHalfCpltCallback(hdma);
 8002440:	687b      	ldr	r3, [r7, #4]
 8002442:	6c1b      	ldr	r3, [r3, #64]	; 0x40
 8002444:	6878      	ldr	r0, [r7, #4]
 8002446:	4798      	blx	r3
        }
      }
    }
  }
  /* Transfer Complete Interrupt management ***********************************/
  if ((tmpisr & (DMA_FLAG_TCIF0_4 << hdma->StreamIndex)) != RESET)
 8002448:	687b      	ldr	r3, [r7, #4]
 800244a:	6ddb      	ldr	r3, [r3, #92]	; 0x5c
 800244c:	2220      	movs	r2, #32
 800244e:	409a      	lsls	r2, r3
 8002450:	68fb      	ldr	r3, [r7, #12]
 8002452:	4013      	ands	r3, r2
 8002454:	2b00      	cmp	r3, #0
 8002456:	f000 808f 	beq.w	8002578 <HAL_DMA_IRQHandler+0x2a0>
  {
    if(__HAL_DMA_GET_IT_SOURCE(hdma, DMA_IT_TC) != RESET)
 800245a:	687b      	ldr	r3, [r7, #4]
 800245c:	681b      	ldr	r3, [r3, #0]
 800245e:	681b      	ldr	r3, [r3, #0]
 8002460:	f003 0310 	and.w	r3, r3, #16
 8002464:	2b00      	cmp	r3, #0
 8002466:	f000 8087 	beq.w	8002578 <HAL_DMA_IRQHandler+0x2a0>
    {
      /* Clear the transfer complete flag */
      regs->IFCR = DMA_FLAG_TCIF0_4 << hdma->StreamIndex;
 800246a:	687b      	ldr	r3, [r7, #4]
 800246c:	6ddb      	ldr	r3, [r3, #92]	; 0x5c
 800246e:	2220      	movs	r2, #32
 8002470:	409a      	lsls	r2, r3
 8002472:	693b      	ldr	r3, [r7, #16]
 8002474:	609a      	str	r2, [r3, #8]
      
      if(HAL_DMA_STATE_ABORT == hdma->State)
 8002476:	687b      	ldr	r3, [r7, #4]
 8002478:	f893 3035 	ldrb.w	r3, [r3, #53]	; 0x35
 800247c:	b2db      	uxtb	r3, r3
 800247e:	2b05      	cmp	r3, #5
 8002480:	d136      	bne.n	80024f0 <HAL_DMA_IRQHandler+0x218>
      {
        /* Disable all the transfer interrupts */
        hdma->Instance->CR  &= ~(DMA_IT_TC | DMA_IT_TE | DMA_IT_DME);
 8002482:	687b      	ldr	r3, [r7, #4]
 8002484:	681b      	ldr	r3, [r3, #0]
 8002486:	681a      	ldr	r2, [r3, #0]
 8002488:	687b      	ldr	r3, [r7, #4]
 800248a:	681b      	ldr	r3, [r3, #0]
 800248c:	f022 0216 	bic.w	r2, r2, #22
 8002490:	601a      	str	r2, [r3, #0]
        hdma->Instance->FCR &= ~(DMA_IT_FE);
 8002492:	687b      	ldr	r3, [r7, #4]
 8002494:	681b      	ldr	r3, [r3, #0]
 8002496:	695a      	ldr	r2, [r3, #20]
 8002498:	687b      	ldr	r3, [r7, #4]
 800249a:	681b      	ldr	r3, [r3, #0]
 800249c:	f022 0280 	bic.w	r2, r2, #128	; 0x80
 80024a0:	615a      	str	r2, [r3, #20]
        
        if((hdma->XferHalfCpltCallback != NULL) || (hdma->XferM1HalfCpltCallback != NULL))
 80024a2:	687b      	ldr	r3, [r7, #4]
 80024a4:	6c1b      	ldr	r3, [r3, #64]	; 0x40
 80024a6:	2b00      	cmp	r3, #0
 80024a8:	d103      	bne.n	80024b2 <HAL_DMA_IRQHandler+0x1da>
 80024aa:	687b      	ldr	r3, [r7, #4]
 80024ac:	6c9b      	ldr	r3, [r3, #72]	; 0x48
 80024ae:	2b00      	cmp	r3, #0
 80024b0:	d007      	beq.n	80024c2 <HAL_DMA_IRQHandler+0x1ea>
        {
          hdma->Instance->CR  &= ~(DMA_IT_HT);
 80024b2:	687b      	ldr	r3, [r7, #4]
 80024b4:	681b      	ldr	r3, [r3, #0]
 80024b6:	681a      	ldr	r2, [r3, #0]
 80024b8:	687b      	ldr	r3, [r7, #4]
 80024ba:	681b      	ldr	r3, [r3, #0]
 80024bc:	f022 0208 	bic.w	r2, r2, #8
 80024c0:	601a      	str	r2, [r3, #0]
        }

        /* Clear all interrupt flags at correct offset within the register */
        regs->IFCR = 0x3FU << hdma->StreamIndex;
 80024c2:	687b      	ldr	r3, [r7, #4]
 80024c4:	6ddb      	ldr	r3, [r3, #92]	; 0x5c
 80024c6:	223f      	movs	r2, #63	; 0x3f
 80024c8:	409a      	lsls	r2, r3
 80024ca:	693b      	ldr	r3, [r7, #16]
 80024cc:	609a      	str	r2, [r3, #8]

        /* Change the DMA state */
        hdma->State = HAL_DMA_STATE_READY;
 80024ce:	687b      	ldr	r3, [r7, #4]
 80024d0:	2201      	movs	r2, #1
 80024d2:	f883 2035 	strb.w	r2, [r3, #53]	; 0x35

        /* Process Unlocked */
        __HAL_UNLOCK(hdma);
 80024d6:	687b      	ldr	r3, [r7, #4]
 80024d8:	2200      	movs	r2, #0
 80024da:	f883 2034 	strb.w	r2, [r3, #52]	; 0x34

        if(hdma->XferAbortCallback != NULL)
 80024de:	687b      	ldr	r3, [r7, #4]
 80024e0:	6d1b      	ldr	r3, [r3, #80]	; 0x50
 80024e2:	2b00      	cmp	r3, #0
 80024e4:	d07e      	beq.n	80025e4 <HAL_DMA_IRQHandler+0x30c>
        {
          hdma->XferAbortCallback(hdma);
 80024e6:	687b      	ldr	r3, [r7, #4]
 80024e8:	6d1b      	ldr	r3, [r3, #80]	; 0x50
 80024ea:	6878      	ldr	r0, [r7, #4]
 80024ec:	4798      	blx	r3
        }
        return;
 80024ee:	e079      	b.n	80025e4 <HAL_DMA_IRQHandler+0x30c>
      }

      if(((hdma->Instance->CR) & (uint32_t)(DMA_SxCR_DBM)) != RESET)
 80024f0:	687b      	ldr	r3, [r7, #4]
 80024f2:	681b      	ldr	r3, [r3, #0]
 80024f4:	681b      	ldr	r3, [r3, #0]
 80024f6:	f403 2380 	and.w	r3, r3, #262144	; 0x40000
 80024fa:	2b00      	cmp	r3, #0
 80024fc:	d01d      	beq.n	800253a <HAL_DMA_IRQHandler+0x262>
      {
        /* Current memory buffer used is Memory 0 */
        if((hdma->Instance->CR & DMA_SxCR_CT) == RESET)
 80024fe:	687b      	ldr	r3, [r7, #4]
 8002500:	681b      	ldr	r3, [r3, #0]
 8002502:	681b      	ldr	r3, [r3, #0]
 8002504:	f403 2300 	and.w	r3, r3, #524288	; 0x80000
 8002508:	2b00      	cmp	r3, #0
 800250a:	d10d      	bne.n	8002528 <HAL_DMA_IRQHandler+0x250>
        {
          if(hdma->XferM1CpltCallback != NULL)
 800250c:	687b      	ldr	r3, [r7, #4]
 800250e:	6c5b      	ldr	r3, [r3, #68]	; 0x44
 8002510:	2b00      	cmp	r3, #0
 8002512:	d031      	beq.n	8002578 <HAL_DMA_IRQHandler+0x2a0>
          {
            /* Transfer complete Callback for memory1 */
            hdma->XferM1CpltCallback(hdma);
 8002514:	687b      	ldr	r3, [r7, #4]
 8002516:	6c5b      	ldr	r3, [r3, #68]	; 0x44
 8002518:	6878      	ldr	r0, [r7, #4]
 800251a:	4798      	blx	r3
 800251c:	e02c      	b.n	8002578 <HAL_DMA_IRQHandler+0x2a0>
 800251e:	bf00      	nop
 8002520:	20000010 	.word	0x20000010
 8002524:	1b4e81b5 	.word	0x1b4e81b5
          }
        }
        /* Current memory buffer used is Memory 1 */
        else
        {
          if(hdma->XferCpltCallback != NULL)
 8002528:	687b      	ldr	r3, [r7, #4]
 800252a:	6bdb      	ldr	r3, [r3, #60]	; 0x3c
 800252c:	2b00      	cmp	r3, #0
 800252e:	d023      	beq.n	8002578 <HAL_DMA_IRQHandler+0x2a0>
          {
            /* Transfer complete Callback for memory0 */
            hdma->XferCpltCallback(hdma);
 8002530:	687b      	ldr	r3, [r7, #4]
 8002532:	6bdb      	ldr	r3, [r3, #60]	; 0x3c
 8002534:	6878      	ldr	r0, [r7, #4]
 8002536:	4798      	blx	r3
 8002538:	e01e      	b.n	8002578 <HAL_DMA_IRQHandler+0x2a0>
        }
      }
      /* Disable the transfer complete interrupt if the DMA mode is not CIRCULAR */
      else
      {
        if((hdma->Instance->CR & DMA_SxCR_CIRC) == RESET)
 800253a:	687b      	ldr	r3, [r7, #4]
 800253c:	681b      	ldr	r3, [r3, #0]
 800253e:	681b      	ldr	r3, [r3, #0]
 8002540:	f403 7380 	and.w	r3, r3, #256	; 0x100
 8002544:	2b00      	cmp	r3, #0
 8002546:	d10f      	bne.n	8002568 <HAL_DMA_IRQHandler+0x290>
        {
          /* Disable the transfer complete interrupt */
          hdma->Instance->CR  &= ~(DMA_IT_TC);
 8002548:	687b      	ldr	r3, [r7, #4]
 800254a:	681b      	ldr	r3, [r3, #0]
 800254c:	681a      	ldr	r2, [r3, #0]
 800254e:	687b      	ldr	r3, [r7, #4]
 8002550:	681b      	ldr	r3, [r3, #0]
 8002552:	f022 0210 	bic.w	r2, r2, #16
 8002556:	601a      	str	r2, [r3, #0]

          /* Change the DMA state */
          hdma->State = HAL_DMA_STATE_READY;
 8002558:	687b      	ldr	r3, [r7, #4]
 800255a:	2201      	movs	r2, #1
 800255c:	f883 2035 	strb.w	r2, [r3, #53]	; 0x35

          /* Process Unlocked */
          __HAL_UNLOCK(hdma);
 8002560:	687b      	ldr	r3, [r7, #4]
 8002562:	2200      	movs	r2, #0
 8002564:	f883 2034 	strb.w	r2, [r3, #52]	; 0x34
        }

        if(hdma->XferCpltCallback != NULL)
 8002568:	687b      	ldr	r3, [r7, #4]
 800256a:	6bdb      	ldr	r3, [r3, #60]	; 0x3c
 800256c:	2b00      	cmp	r3, #0
 800256e:	d003      	beq.n	8002578 <HAL_DMA_IRQHandler+0x2a0>
        {
          /* Transfer complete callback */
          hdma->XferCpltCallback(hdma);
 8002570:	687b      	ldr	r3, [r7, #4]
 8002572:	6bdb      	ldr	r3, [r3, #60]	; 0x3c
 8002574:	6878      	ldr	r0, [r7, #4]
 8002576:	4798      	blx	r3
      }
    }
  }
  
  /* manage error case */
  if(hdma->ErrorCode != HAL_DMA_ERROR_NONE)
 8002578:	687b      	ldr	r3, [r7, #4]
 800257a:	6d5b      	ldr	r3, [r3, #84]	; 0x54
 800257c:	2b00      	cmp	r3, #0
 800257e:	d032      	beq.n	80025e6 <HAL_DMA_IRQHandler+0x30e>
  {
    if((hdma->ErrorCode & HAL_DMA_ERROR_TE) != RESET)
 8002580:	687b      	ldr	r3, [r7, #4]
 8002582:	6d5b      	ldr	r3, [r3, #84]	; 0x54
 8002584:	f003 0301 	and.w	r3, r3, #1
 8002588:	2b00      	cmp	r3, #0
 800258a:	d022      	beq.n	80025d2 <HAL_DMA_IRQHandler+0x2fa>
    {
      hdma->State = HAL_DMA_STATE_ABORT;
 800258c:	687b      	ldr	r3, [r7, #4]
 800258e:	2205      	movs	r2, #5
 8002590:	f883 2035 	strb.w	r2, [r3, #53]	; 0x35

      /* Disable the stream */
      __HAL_DMA_DISABLE(hdma);
 8002594:	687b      	ldr	r3, [r7, #4]
 8002596:	681b      	ldr	r3, [r3, #0]
 8002598:	681a      	ldr	r2, [r3, #0]
 800259a:	687b      	ldr	r3, [r7, #4]
 800259c:	681b      	ldr	r3, [r3, #0]
 800259e:	f022 0201 	bic.w	r2, r2, #1
 80025a2:	601a      	str	r2, [r3, #0]

      do
      {
        if (++count > timeout)
 80025a4:	68bb      	ldr	r3, [r7, #8]
 80025a6:	3301      	adds	r3, #1
 80025a8:	60bb      	str	r3, [r7, #8]
 80025aa:	697a      	ldr	r2, [r7, #20]
 80025ac:	429a      	cmp	r2, r3
 80025ae:	d307      	bcc.n	80025c0 <HAL_DMA_IRQHandler+0x2e8>
        {
          break;
        }
      }
      while((hdma->Instance->CR & DMA_SxCR_EN) != RESET);
 80025b0:	687b      	ldr	r3, [r7, #4]
 80025b2:	681b      	ldr	r3, [r3, #0]
 80025b4:	681b      	ldr	r3, [r3, #0]
 80025b6:	f003 0301 	and.w	r3, r3, #1
 80025ba:	2b00      	cmp	r3, #0
 80025bc:	d1f2      	bne.n	80025a4 <HAL_DMA_IRQHandler+0x2cc>
 80025be:	e000      	b.n	80025c2 <HAL_DMA_IRQHandler+0x2ea>
          break;
 80025c0:	bf00      	nop

      /* Change the DMA state */
      hdma->State = HAL_DMA_STATE_READY;
 80025c2:	687b      	ldr	r3, [r7, #4]
 80025c4:	2201      	movs	r2, #1
 80025c6:	f883 2035 	strb.w	r2, [r3, #53]	; 0x35

      /* Process Unlocked */
      __HAL_UNLOCK(hdma);
 80025ca:	687b      	ldr	r3, [r7, #4]
 80025cc:	2200      	movs	r2, #0
 80025ce:	f883 2034 	strb.w	r2, [r3, #52]	; 0x34
    }

    if(hdma->XferErrorCallback != NULL)
 80025d2:	687b      	ldr	r3, [r7, #4]
 80025d4:	6cdb      	ldr	r3, [r3, #76]	; 0x4c
 80025d6:	2b00      	cmp	r3, #0
 80025d8:	d005      	beq.n	80025e6 <HAL_DMA_IRQHandler+0x30e>
    {
      /* Transfer error callback */
      hdma->XferErrorCallback(hdma);
 80025da:	687b      	ldr	r3, [r7, #4]
 80025dc:	6cdb      	ldr	r3, [r3, #76]	; 0x4c
 80025de:	6878      	ldr	r0, [r7, #4]
 80025e0:	4798      	blx	r3
 80025e2:	e000      	b.n	80025e6 <HAL_DMA_IRQHandler+0x30e>
        return;
 80025e4:	bf00      	nop
    }
  }
}
 80025e6:	3718      	adds	r7, #24
 80025e8:	46bd      	mov	sp, r7
 80025ea:	bd80      	pop	{r7, pc}

080025ec <DMA_CalcBaseAndBitshift>:
  * @param  hdma       pointer to a DMA_HandleTypeDef structure that contains
  *                     the configuration information for the specified DMA Stream. 
  * @retval Stream base address
  */
static uint32_t DMA_CalcBaseAndBitshift(DMA_HandleTypeDef *hdma)
{
 80025ec:	b480      	push	{r7}
 80025ee:	b085      	sub	sp, #20
 80025f0:	af00      	add	r7, sp, #0
 80025f2:	6078      	str	r0, [r7, #4]
  uint32_t stream_number = (((uint32_t)hdma->Instance & 0xFFU) - 16U) / 24U;
 80025f4:	687b      	ldr	r3, [r7, #4]
 80025f6:	681b      	ldr	r3, [r3, #0]
 80025f8:	b2db      	uxtb	r3, r3
 80025fa:	3b10      	subs	r3, #16
 80025fc:	4a14      	ldr	r2, [pc, #80]	; (8002650 <DMA_CalcBaseAndBitshift+0x64>)
 80025fe:	fba2 2303 	umull	r2, r3, r2, r3
 8002602:	091b      	lsrs	r3, r3, #4
 8002604:	60fb      	str	r3, [r7, #12]
  
  /* lookup table for necessary bitshift of flags within status registers */
  static const uint8_t flagBitshiftOffset[8U] = {0U, 6U, 16U, 22U, 0U, 6U, 16U, 22U};
  hdma->StreamIndex = flagBitshiftOffset[stream_number];
 8002606:	4a13      	ldr	r2, [pc, #76]	; (8002654 <DMA_CalcBaseAndBitshift+0x68>)
 8002608:	68fb      	ldr	r3, [r7, #12]
 800260a:	4413      	add	r3, r2
 800260c:	781b      	ldrb	r3, [r3, #0]
 800260e:	461a      	mov	r2, r3
 8002610:	687b      	ldr	r3, [r7, #4]
 8002612:	65da      	str	r2, [r3, #92]	; 0x5c
  
  if (stream_number > 3U)
 8002614:	68fb      	ldr	r3, [r7, #12]
 8002616:	2b03      	cmp	r3, #3
 8002618:	d909      	bls.n	800262e <DMA_CalcBaseAndBitshift+0x42>
  {
    /* return pointer to HISR and HIFCR */
    hdma->StreamBaseAddress = (((uint32_t)hdma->Instance & (uint32_t)(~0x3FFU)) + 4U);
 800261a:	687b      	ldr	r3, [r7, #4]
 800261c:	681b      	ldr	r3, [r3, #0]
 800261e:	f423 737f 	bic.w	r3, r3, #1020	; 0x3fc
 8002622:	f023 0303 	bic.w	r3, r3, #3
 8002626:	1d1a      	adds	r2, r3, #4
 8002628:	687b      	ldr	r3, [r7, #4]
 800262a:	659a      	str	r2, [r3, #88]	; 0x58
 800262c:	e007      	b.n	800263e <DMA_CalcBaseAndBitshift+0x52>
  }
  else
  {
    /* return pointer to LISR and LIFCR */
    hdma->StreamBaseAddress = ((uint32_t)hdma->Instance & (uint32_t)(~0x3FFU));
 800262e:	687b      	ldr	r3, [r7, #4]
 8002630:	681b      	ldr	r3, [r3, #0]
 8002632:	f423 737f 	bic.w	r3, r3, #1020	; 0x3fc
 8002636:	f023 0303 	bic.w	r3, r3, #3
 800263a:	687a      	ldr	r2, [r7, #4]
 800263c:	6593      	str	r3, [r2, #88]	; 0x58
  }
  
  return hdma->StreamBaseAddress;
 800263e:	687b      	ldr	r3, [r7, #4]
 8002640:	6d9b      	ldr	r3, [r3, #88]	; 0x58
}
 8002642:	4618      	mov	r0, r3
 8002644:	3714      	adds	r7, #20
 8002646:	46bd      	mov	sp, r7
 8002648:	f85d 7b04 	ldr.w	r7, [sp], #4
 800264c:	4770      	bx	lr
 800264e:	bf00      	nop
 8002650:	aaaaaaab 	.word	0xaaaaaaab
 8002654:	08006cb0 	.word	0x08006cb0

08002658 <DMA_CheckFifoParam>:
  * @param  hdma       pointer to a DMA_HandleTypeDef structure that contains
  *                     the configuration information for the specified DMA Stream. 
  * @retval HAL status
  */
static HAL_StatusTypeDef DMA_CheckFifoParam(DMA_HandleTypeDef *hdma)
{
 8002658:	b480      	push	{r7}
 800265a:	b085      	sub	sp, #20
 800265c:	af00      	add	r7, sp, #0
 800265e:	6078      	str	r0, [r7, #4]
  HAL_StatusTypeDef status = HAL_OK;
 8002660:	2300      	movs	r3, #0
 8002662:	73fb      	strb	r3, [r7, #15]
  uint32_t tmp = hdma->Init.FIFOThreshold;
 8002664:	687b      	ldr	r3, [r7, #4]
 8002666:	6a9b      	ldr	r3, [r3, #40]	; 0x28
 8002668:	60bb      	str	r3, [r7, #8]
  
  /* Memory Data size equal to Byte */
  if(hdma->Init.MemDataAlignment == DMA_MDATAALIGN_BYTE)
 800266a:	687b      	ldr	r3, [r7, #4]
 800266c:	699b      	ldr	r3, [r3, #24]
 800266e:	2b00      	cmp	r3, #0
 8002670:	d11f      	bne.n	80026b2 <DMA_CheckFifoParam+0x5a>
  {
    switch (tmp)
 8002672:	68bb      	ldr	r3, [r7, #8]
 8002674:	2b03      	cmp	r3, #3
 8002676:	d856      	bhi.n	8002726 <DMA_CheckFifoParam+0xce>
 8002678:	a201      	add	r2, pc, #4	; (adr r2, 8002680 <DMA_CheckFifoParam+0x28>)
 800267a:	f852 f023 	ldr.w	pc, [r2, r3, lsl #2]
 800267e:	bf00      	nop
 8002680:	08002691 	.word	0x08002691
 8002684:	080026a3 	.word	0x080026a3
 8002688:	08002691 	.word	0x08002691
 800268c:	08002727 	.word	0x08002727
    {
    case DMA_FIFO_THRESHOLD_1QUARTERFULL:
    case DMA_FIFO_THRESHOLD_3QUARTERSFULL:
      if ((hdma->Init.MemBurst & DMA_SxCR_MBURST_1) == DMA_SxCR_MBURST_1)
 8002690:	687b      	ldr	r3, [r7, #4]
 8002692:	6adb      	ldr	r3, [r3, #44]	; 0x2c
 8002694:	f003 7380 	and.w	r3, r3, #16777216	; 0x1000000
 8002698:	2b00      	cmp	r3, #0
 800269a:	d046      	beq.n	800272a <DMA_CheckFifoParam+0xd2>
      {
        status = HAL_ERROR;
 800269c:	2301      	movs	r3, #1
 800269e:	73fb      	strb	r3, [r7, #15]
      }
      break;
 80026a0:	e043      	b.n	800272a <DMA_CheckFifoParam+0xd2>
    case DMA_FIFO_THRESHOLD_HALFFULL:
      if (hdma->Init.MemBurst == DMA_MBURST_INC16)
 80026a2:	687b      	ldr	r3, [r7, #4]
 80026a4:	6adb      	ldr	r3, [r3, #44]	; 0x2c
 80026a6:	f1b3 7fc0 	cmp.w	r3, #25165824	; 0x1800000
 80026aa:	d140      	bne.n	800272e <DMA_CheckFifoParam+0xd6>
      {
        status = HAL_ERROR;
 80026ac:	2301      	movs	r3, #1
 80026ae:	73fb      	strb	r3, [r7, #15]
      }
      break;
 80026b0:	e03d      	b.n	800272e <DMA_CheckFifoParam+0xd6>
      break;
    }
  }
  
  /* Memory Data size equal to Half-Word */
  else if (hdma->Init.MemDataAlignment == DMA_MDATAALIGN_HALFWORD)
 80026b2:	687b      	ldr	r3, [r7, #4]
 80026b4:	699b      	ldr	r3, [r3, #24]
 80026b6:	f5b3 5f00 	cmp.w	r3, #8192	; 0x2000
 80026ba:	d121      	bne.n	8002700 <DMA_CheckFifoParam+0xa8>
  {
    switch (tmp)
 80026bc:	68bb      	ldr	r3, [r7, #8]
 80026be:	2b03      	cmp	r3, #3
 80026c0:	d837      	bhi.n	8002732 <DMA_CheckFifoParam+0xda>
 80026c2:	a201      	add	r2, pc, #4	; (adr r2, 80026c8 <DMA_CheckFifoParam+0x70>)
 80026c4:	f852 f023 	ldr.w	pc, [r2, r3, lsl #2]
 80026c8:	080026d9 	.word	0x080026d9
 80026cc:	080026df 	.word	0x080026df
 80026d0:	080026d9 	.word	0x080026d9
 80026d4:	080026f1 	.word	0x080026f1
    {
    case DMA_FIFO_THRESHOLD_1QUARTERFULL:
    case DMA_FIFO_THRESHOLD_3QUARTERSFULL:
      status = HAL_ERROR;
 80026d8:	2301      	movs	r3, #1
 80026da:	73fb      	strb	r3, [r7, #15]
      break;
 80026dc:	e030      	b.n	8002740 <DMA_CheckFifoParam+0xe8>
    case DMA_FIFO_THRESHOLD_HALFFULL:
      if ((hdma->Init.MemBurst & DMA_SxCR_MBURST_1) == DMA_SxCR_MBURST_1)
 80026de:	687b      	ldr	r3, [r7, #4]
 80026e0:	6adb      	ldr	r3, [r3, #44]	; 0x2c
 80026e2:	f003 7380 	and.w	r3, r3, #16777216	; 0x1000000
 80026e6:	2b00      	cmp	r3, #0
 80026e8:	d025      	beq.n	8002736 <DMA_CheckFifoParam+0xde>
      {
        status = HAL_ERROR;
 80026ea:	2301      	movs	r3, #1
 80026ec:	73fb      	strb	r3, [r7, #15]
      }
      break;
 80026ee:	e022      	b.n	8002736 <DMA_CheckFifoParam+0xde>
    case DMA_FIFO_THRESHOLD_FULL:
      if (hdma->Init.MemBurst == DMA_MBURST_INC16)
 80026f0:	687b      	ldr	r3, [r7, #4]
 80026f2:	6adb      	ldr	r3, [r3, #44]	; 0x2c
 80026f4:	f1b3 7fc0 	cmp.w	r3, #25165824	; 0x1800000
 80026f8:	d11f      	bne.n	800273a <DMA_CheckFifoParam+0xe2>
      {
        status = HAL_ERROR;
 80026fa:	2301      	movs	r3, #1
 80026fc:	73fb      	strb	r3, [r7, #15]
      }
      break;   
 80026fe:	e01c      	b.n	800273a <DMA_CheckFifoParam+0xe2>
  }
  
  /* Memory Data size equal to Word */
  else
  {
    switch (tmp)
 8002700:	68bb      	ldr	r3, [r7, #8]
 8002702:	2b02      	cmp	r3, #2
 8002704:	d903      	bls.n	800270e <DMA_CheckFifoParam+0xb6>
 8002706:	68bb      	ldr	r3, [r7, #8]
 8002708:	2b03      	cmp	r3, #3
 800270a:	d003      	beq.n	8002714 <DMA_CheckFifoParam+0xbc>
      {
        status = HAL_ERROR;
      }
      break;
    default:
      break;
 800270c:	e018      	b.n	8002740 <DMA_CheckFifoParam+0xe8>
      status = HAL_ERROR;
 800270e:	2301      	movs	r3, #1
 8002710:	73fb      	strb	r3, [r7, #15]
      break;
 8002712:	e015      	b.n	8002740 <DMA_CheckFifoParam+0xe8>
      if ((hdma->Init.MemBurst & DMA_SxCR_MBURST_1) == DMA_SxCR_MBURST_1)
 8002714:	687b      	ldr	r3, [r7, #4]
 8002716:	6adb      	ldr	r3, [r3, #44]	; 0x2c
 8002718:	f003 7380 	and.w	r3, r3, #16777216	; 0x1000000
 800271c:	2b00      	cmp	r3, #0
 800271e:	d00e      	beq.n	800273e <DMA_CheckFifoParam+0xe6>
        status = HAL_ERROR;
 8002720:	2301      	movs	r3, #1
 8002722:	73fb      	strb	r3, [r7, #15]
      break;
 8002724:	e00b      	b.n	800273e <DMA_CheckFifoParam+0xe6>
      break;
 8002726:	bf00      	nop
 8002728:	e00a      	b.n	8002740 <DMA_CheckFifoParam+0xe8>
      break;
 800272a:	bf00      	nop
 800272c:	e008      	b.n	8002740 <DMA_CheckFifoParam+0xe8>
      break;
 800272e:	bf00      	nop
 8002730:	e006      	b.n	8002740 <DMA_CheckFifoParam+0xe8>
      break;
 8002732:	bf00      	nop
 8002734:	e004      	b.n	8002740 <DMA_CheckFifoParam+0xe8>
      break;
 8002736:	bf00      	nop
 8002738:	e002      	b.n	8002740 <DMA_CheckFifoParam+0xe8>
      break;   
 800273a:	bf00      	nop
 800273c:	e000      	b.n	8002740 <DMA_CheckFifoParam+0xe8>
      break;
 800273e:	bf00      	nop
    }
  } 
  
  return status; 
 8002740:	7bfb      	ldrb	r3, [r7, #15]
}
 8002742:	4618      	mov	r0, r3
 8002744:	3714      	adds	r7, #20
 8002746:	46bd      	mov	sp, r7
 8002748:	f85d 7b04 	ldr.w	r7, [sp], #4
 800274c:	4770      	bx	lr
 800274e:	bf00      	nop

08002750 <HAL_GPIO_Init>:
  * @param  GPIO_Init pointer to a GPIO_InitTypeDef structure that contains
  *         the configuration information for the specified GPIO peripheral.
  * @retval None
  */
void HAL_GPIO_Init(GPIO_TypeDef  *GPIOx, GPIO_InitTypeDef *GPIO_Init)
{
 8002750:	b480      	push	{r7}
 8002752:	b089      	sub	sp, #36	; 0x24
 8002754:	af00      	add	r7, sp, #0
 8002756:	6078      	str	r0, [r7, #4]
 8002758:	6039      	str	r1, [r7, #0]
  uint32_t position;
  uint32_t ioposition = 0x00U;
 800275a:	2300      	movs	r3, #0
 800275c:	617b      	str	r3, [r7, #20]
  uint32_t iocurrent = 0x00U;
 800275e:	2300      	movs	r3, #0
 8002760:	613b      	str	r3, [r7, #16]
  uint32_t temp = 0x00U;
 8002762:	2300      	movs	r3, #0
 8002764:	61bb      	str	r3, [r7, #24]
  assert_param(IS_GPIO_ALL_INSTANCE(GPIOx));
  assert_param(IS_GPIO_PIN(GPIO_Init->Pin));
  assert_param(IS_GPIO_MODE(GPIO_Init->Mode));

  /* Configure the port pins */
  for(position = 0U; position < GPIO_NUMBER; position++)
 8002766:	2300      	movs	r3, #0
 8002768:	61fb      	str	r3, [r7, #28]
 800276a:	e177      	b.n	8002a5c <HAL_GPIO_Init+0x30c>
  {
    /* Get the IO position */
    ioposition = 0x01U << position;
 800276c:	2201      	movs	r2, #1
 800276e:	69fb      	ldr	r3, [r7, #28]
 8002770:	fa02 f303 	lsl.w	r3, r2, r3
 8002774:	617b      	str	r3, [r7, #20]
    /* Get the current IO position */
    iocurrent = (uint32_t)(GPIO_Init->Pin) & ioposition;
 8002776:	683b      	ldr	r3, [r7, #0]
 8002778:	681b      	ldr	r3, [r3, #0]
 800277a:	697a      	ldr	r2, [r7, #20]
 800277c:	4013      	ands	r3, r2
 800277e:	613b      	str	r3, [r7, #16]

    if(iocurrent == ioposition)
 8002780:	693a      	ldr	r2, [r7, #16]
 8002782:	697b      	ldr	r3, [r7, #20]
 8002784:	429a      	cmp	r2, r3
 8002786:	f040 8166 	bne.w	8002a56 <HAL_GPIO_Init+0x306>
    {
      /*--------------------- GPIO Mode Configuration ------------------------*/
      /* In case of Output or Alternate function mode selection */
      if(((GPIO_Init->Mode & GPIO_MODE) == MODE_OUTPUT) || \
 800278a:	683b      	ldr	r3, [r7, #0]
 800278c:	685b      	ldr	r3, [r3, #4]
 800278e:	f003 0303 	and.w	r3, r3, #3
 8002792:	2b01      	cmp	r3, #1
 8002794:	d005      	beq.n	80027a2 <HAL_GPIO_Init+0x52>
          (GPIO_Init->Mode & GPIO_MODE) == MODE_AF)
 8002796:	683b      	ldr	r3, [r7, #0]
 8002798:	685b      	ldr	r3, [r3, #4]
 800279a:	f003 0303 	and.w	r3, r3, #3
      if(((GPIO_Init->Mode & GPIO_MODE) == MODE_OUTPUT) || \
 800279e:	2b02      	cmp	r3, #2
 80027a0:	d130      	bne.n	8002804 <HAL_GPIO_Init+0xb4>
      {
        /* Check the Speed parameter */
        assert_param(IS_GPIO_SPEED(GPIO_Init->Speed));
        /* Configure the IO Speed */
        temp = GPIOx->OSPEEDR; 
 80027a2:	687b      	ldr	r3, [r7, #4]
 80027a4:	689b      	ldr	r3, [r3, #8]
 80027a6:	61bb      	str	r3, [r7, #24]
        temp &= ~(GPIO_OSPEEDER_OSPEEDR0 << (position * 2U));
 80027a8:	69fb      	ldr	r3, [r7, #28]
 80027aa:	005b      	lsls	r3, r3, #1
 80027ac:	2203      	movs	r2, #3
 80027ae:	fa02 f303 	lsl.w	r3, r2, r3
 80027b2:	43db      	mvns	r3, r3
 80027b4:	69ba      	ldr	r2, [r7, #24]
 80027b6:	4013      	ands	r3, r2
 80027b8:	61bb      	str	r3, [r7, #24]
        temp |= (GPIO_Init->Speed << (position * 2U));
 80027ba:	683b      	ldr	r3, [r7, #0]
 80027bc:	68da      	ldr	r2, [r3, #12]
 80027be:	69fb      	ldr	r3, [r7, #28]
 80027c0:	005b      	lsls	r3, r3, #1
 80027c2:	fa02 f303 	lsl.w	r3, r2, r3
 80027c6:	69ba      	ldr	r2, [r7, #24]
 80027c8:	4313      	orrs	r3, r2
 80027ca:	61bb      	str	r3, [r7, #24]
        GPIOx->OSPEEDR = temp;
 80027cc:	687b      	ldr	r3, [r7, #4]
 80027ce:	69ba      	ldr	r2, [r7, #24]
 80027d0:	609a      	str	r2, [r3, #8]

        /* Configure the IO Output Type */
        temp = GPIOx->OTYPER;
 80027d2:	687b      	ldr	r3, [r7, #4]
 80027d4:	685b      	ldr	r3, [r3, #4]
 80027d6:	61bb      	str	r3, [r7, #24]
        temp &= ~(GPIO_OTYPER_OT_0 << position) ;
 80027d8:	2201      	movs	r2, #1
 80027da:	69fb      	ldr	r3, [r7, #28]
 80027dc:	fa02 f303 	lsl.w	r3, r2, r3
 80027e0:	43db      	mvns	r3, r3
 80027e2:	69ba      	ldr	r2, [r7, #24]
 80027e4:	4013      	ands	r3, r2
 80027e6:	61bb      	str	r3, [r7, #24]
        temp |= (((GPIO_Init->Mode & OUTPUT_TYPE) >> OUTPUT_TYPE_Pos) << position);
 80027e8:	683b      	ldr	r3, [r7, #0]
 80027ea:	685b      	ldr	r3, [r3, #4]
 80027ec:	091b      	lsrs	r3, r3, #4
 80027ee:	f003 0201 	and.w	r2, r3, #1
 80027f2:	69fb      	ldr	r3, [r7, #28]
 80027f4:	fa02 f303 	lsl.w	r3, r2, r3
 80027f8:	69ba      	ldr	r2, [r7, #24]
 80027fa:	4313      	orrs	r3, r2
 80027fc:	61bb      	str	r3, [r7, #24]
        GPIOx->OTYPER = temp;
 80027fe:	687b      	ldr	r3, [r7, #4]
 8002800:	69ba      	ldr	r2, [r7, #24]
 8002802:	605a      	str	r2, [r3, #4]
       }

      if((GPIO_Init->Mode & GPIO_MODE) != MODE_ANALOG)
 8002804:	683b      	ldr	r3, [r7, #0]
 8002806:	685b      	ldr	r3, [r3, #4]
 8002808:	f003 0303 	and.w	r3, r3, #3
 800280c:	2b03      	cmp	r3, #3
 800280e:	d017      	beq.n	8002840 <HAL_GPIO_Init+0xf0>
      {
        /* Check the parameters */
        assert_param(IS_GPIO_PULL(GPIO_Init->Pull));
        
        /* Activate the Pull-up or Pull down resistor for the current IO */
        temp = GPIOx->PUPDR;
 8002810:	687b      	ldr	r3, [r7, #4]
 8002812:	68db      	ldr	r3, [r3, #12]
 8002814:	61bb      	str	r3, [r7, #24]
        temp &= ~(GPIO_PUPDR_PUPDR0 << (position * 2U));
 8002816:	69fb      	ldr	r3, [r7, #28]
 8002818:	005b      	lsls	r3, r3, #1
 800281a:	2203      	movs	r2, #3
 800281c:	fa02 f303 	lsl.w	r3, r2, r3
 8002820:	43db      	mvns	r3, r3
 8002822:	69ba      	ldr	r2, [r7, #24]
 8002824:	4013      	ands	r3, r2
 8002826:	61bb      	str	r3, [r7, #24]
        temp |= ((GPIO_Init->Pull) << (position * 2U));
 8002828:	683b      	ldr	r3, [r7, #0]
 800282a:	689a      	ldr	r2, [r3, #8]
 800282c:	69fb      	ldr	r3, [r7, #28]
 800282e:	005b      	lsls	r3, r3, #1
 8002830:	fa02 f303 	lsl.w	r3, r2, r3
 8002834:	69ba      	ldr	r2, [r7, #24]
 8002836:	4313      	orrs	r3, r2
 8002838:	61bb      	str	r3, [r7, #24]
        GPIOx->PUPDR = temp;
 800283a:	687b      	ldr	r3, [r7, #4]
 800283c:	69ba      	ldr	r2, [r7, #24]
 800283e:	60da      	str	r2, [r3, #12]
      }

      /* In case of Alternate function mode selection */
      if((GPIO_Init->Mode & GPIO_MODE) == MODE_AF)
 8002840:	683b      	ldr	r3, [r7, #0]
 8002842:	685b      	ldr	r3, [r3, #4]
 8002844:	f003 0303 	and.w	r3, r3, #3
 8002848:	2b02      	cmp	r3, #2
 800284a:	d123      	bne.n	8002894 <HAL_GPIO_Init+0x144>
      {
        /* Check the Alternate function parameter */
        assert_param(IS_GPIO_AF(GPIO_Init->Alternate));
        /* Configure Alternate function mapped with the current IO */
        temp = GPIOx->AFR[position >> 3U];
 800284c:	69fb      	ldr	r3, [r7, #28]
 800284e:	08da      	lsrs	r2, r3, #3
 8002850:	687b      	ldr	r3, [r7, #4]
 8002852:	3208      	adds	r2, #8
 8002854:	f853 3022 	ldr.w	r3, [r3, r2, lsl #2]
 8002858:	61bb      	str	r3, [r7, #24]
        temp &= ~(0xFU << ((uint32_t)(position & 0x07U) * 4U)) ;
 800285a:	69fb      	ldr	r3, [r7, #28]
 800285c:	f003 0307 	and.w	r3, r3, #7
 8002860:	009b      	lsls	r3, r3, #2
 8002862:	220f      	movs	r2, #15
 8002864:	fa02 f303 	lsl.w	r3, r2, r3
 8002868:	43db      	mvns	r3, r3
 800286a:	69ba      	ldr	r2, [r7, #24]
 800286c:	4013      	ands	r3, r2
 800286e:	61bb      	str	r3, [r7, #24]
        temp |= ((uint32_t)(GPIO_Init->Alternate) << (((uint32_t)position & 0x07U) * 4U));
 8002870:	683b      	ldr	r3, [r7, #0]
 8002872:	691a      	ldr	r2, [r3, #16]
 8002874:	69fb      	ldr	r3, [r7, #28]
 8002876:	f003 0307 	and.w	r3, r3, #7
 800287a:	009b      	lsls	r3, r3, #2
 800287c:	fa02 f303 	lsl.w	r3, r2, r3
 8002880:	69ba      	ldr	r2, [r7, #24]
 8002882:	4313      	orrs	r3, r2
 8002884:	61bb      	str	r3, [r7, #24]
        GPIOx->AFR[position >> 3U] = temp;
 8002886:	69fb      	ldr	r3, [r7, #28]
 8002888:	08da      	lsrs	r2, r3, #3
 800288a:	687b      	ldr	r3, [r7, #4]
 800288c:	3208      	adds	r2, #8
 800288e:	69b9      	ldr	r1, [r7, #24]
 8002890:	f843 1022 	str.w	r1, [r3, r2, lsl #2]
      }

      /* Configure IO Direction mode (Input, Output, Alternate or Analog) */
      temp = GPIOx->MODER;
 8002894:	687b      	ldr	r3, [r7, #4]
 8002896:	681b      	ldr	r3, [r3, #0]
 8002898:	61bb      	str	r3, [r7, #24]
      temp &= ~(GPIO_MODER_MODER0 << (position * 2U));
 800289a:	69fb      	ldr	r3, [r7, #28]
 800289c:	005b      	lsls	r3, r3, #1
 800289e:	2203      	movs	r2, #3
 80028a0:	fa02 f303 	lsl.w	r3, r2, r3
 80028a4:	43db      	mvns	r3, r3
 80028a6:	69ba      	ldr	r2, [r7, #24]
 80028a8:	4013      	ands	r3, r2
 80028aa:	61bb      	str	r3, [r7, #24]
      temp |= ((GPIO_Init->Mode & GPIO_MODE) << (position * 2U));
 80028ac:	683b      	ldr	r3, [r7, #0]
 80028ae:	685b      	ldr	r3, [r3, #4]
 80028b0:	f003 0203 	and.w	r2, r3, #3
 80028b4:	69fb      	ldr	r3, [r7, #28]
 80028b6:	005b      	lsls	r3, r3, #1
 80028b8:	fa02 f303 	lsl.w	r3, r2, r3
 80028bc:	69ba      	ldr	r2, [r7, #24]
 80028be:	4313      	orrs	r3, r2
 80028c0:	61bb      	str	r3, [r7, #24]
      GPIOx->MODER = temp;
 80028c2:	687b      	ldr	r3, [r7, #4]
 80028c4:	69ba      	ldr	r2, [r7, #24]
 80028c6:	601a      	str	r2, [r3, #0]

      /*--------------------- EXTI Mode Configuration ------------------------*/
      /* Configure the External Interrupt or event for the current IO */
      if((GPIO_Init->Mode & EXTI_MODE) != 0x00U)
 80028c8:	683b      	ldr	r3, [r7, #0]
 80028ca:	685b      	ldr	r3, [r3, #4]
 80028cc:	f403 3340 	and.w	r3, r3, #196608	; 0x30000
 80028d0:	2b00      	cmp	r3, #0
 80028d2:	f000 80c0 	beq.w	8002a56 <HAL_GPIO_Init+0x306>
      {
        /* Enable SYSCFG Clock */
        __HAL_RCC_SYSCFG_CLK_ENABLE();
 80028d6:	2300      	movs	r3, #0
 80028d8:	60fb      	str	r3, [r7, #12]
 80028da:	4b66      	ldr	r3, [pc, #408]	; (8002a74 <HAL_GPIO_Init+0x324>)
 80028dc:	6c5b      	ldr	r3, [r3, #68]	; 0x44
 80028de:	4a65      	ldr	r2, [pc, #404]	; (8002a74 <HAL_GPIO_Init+0x324>)
 80028e0:	f443 4380 	orr.w	r3, r3, #16384	; 0x4000
 80028e4:	6453      	str	r3, [r2, #68]	; 0x44
 80028e6:	4b63      	ldr	r3, [pc, #396]	; (8002a74 <HAL_GPIO_Init+0x324>)
 80028e8:	6c5b      	ldr	r3, [r3, #68]	; 0x44
 80028ea:	f403 4380 	and.w	r3, r3, #16384	; 0x4000
 80028ee:	60fb      	str	r3, [r7, #12]
 80028f0:	68fb      	ldr	r3, [r7, #12]

        temp = SYSCFG->EXTICR[position >> 2U];
 80028f2:	4a61      	ldr	r2, [pc, #388]	; (8002a78 <HAL_GPIO_Init+0x328>)
 80028f4:	69fb      	ldr	r3, [r7, #28]
 80028f6:	089b      	lsrs	r3, r3, #2
 80028f8:	3302      	adds	r3, #2
 80028fa:	f852 3023 	ldr.w	r3, [r2, r3, lsl #2]
 80028fe:	61bb      	str	r3, [r7, #24]
        temp &= ~(0x0FU << (4U * (position & 0x03U)));
 8002900:	69fb      	ldr	r3, [r7, #28]
 8002902:	f003 0303 	and.w	r3, r3, #3
 8002906:	009b      	lsls	r3, r3, #2
 8002908:	220f      	movs	r2, #15
 800290a:	fa02 f303 	lsl.w	r3, r2, r3
 800290e:	43db      	mvns	r3, r3
 8002910:	69ba      	ldr	r2, [r7, #24]
 8002912:	4013      	ands	r3, r2
 8002914:	61bb      	str	r3, [r7, #24]
        temp |= ((uint32_t)(GPIO_GET_INDEX(GPIOx)) << (4U * (position & 0x03U)));
 8002916:	687b      	ldr	r3, [r7, #4]
 8002918:	4a58      	ldr	r2, [pc, #352]	; (8002a7c <HAL_GPIO_Init+0x32c>)
 800291a:	4293      	cmp	r3, r2
 800291c:	d037      	beq.n	800298e <HAL_GPIO_Init+0x23e>
 800291e:	687b      	ldr	r3, [r7, #4]
 8002920:	4a57      	ldr	r2, [pc, #348]	; (8002a80 <HAL_GPIO_Init+0x330>)
 8002922:	4293      	cmp	r3, r2
 8002924:	d031      	beq.n	800298a <HAL_GPIO_Init+0x23a>
 8002926:	687b      	ldr	r3, [r7, #4]
 8002928:	4a56      	ldr	r2, [pc, #344]	; (8002a84 <HAL_GPIO_Init+0x334>)
 800292a:	4293      	cmp	r3, r2
 800292c:	d02b      	beq.n	8002986 <HAL_GPIO_Init+0x236>
 800292e:	687b      	ldr	r3, [r7, #4]
 8002930:	4a55      	ldr	r2, [pc, #340]	; (8002a88 <HAL_GPIO_Init+0x338>)
 8002932:	4293      	cmp	r3, r2
 8002934:	d025      	beq.n	8002982 <HAL_GPIO_Init+0x232>
 8002936:	687b      	ldr	r3, [r7, #4]
 8002938:	4a54      	ldr	r2, [pc, #336]	; (8002a8c <HAL_GPIO_Init+0x33c>)
 800293a:	4293      	cmp	r3, r2
 800293c:	d01f      	beq.n	800297e <HAL_GPIO_Init+0x22e>
 800293e:	687b      	ldr	r3, [r7, #4]
 8002940:	4a53      	ldr	r2, [pc, #332]	; (8002a90 <HAL_GPIO_Init+0x340>)
 8002942:	4293      	cmp	r3, r2
 8002944:	d019      	beq.n	800297a <HAL_GPIO_Init+0x22a>
 8002946:	687b      	ldr	r3, [r7, #4]
 8002948:	4a52      	ldr	r2, [pc, #328]	; (8002a94 <HAL_GPIO_Init+0x344>)
 800294a:	4293      	cmp	r3, r2
 800294c:	d013      	beq.n	8002976 <HAL_GPIO_Init+0x226>
 800294e:	687b      	ldr	r3, [r7, #4]
 8002950:	4a51      	ldr	r2, [pc, #324]	; (8002a98 <HAL_GPIO_Init+0x348>)
 8002952:	4293      	cmp	r3, r2
 8002954:	d00d      	beq.n	8002972 <HAL_GPIO_Init+0x222>
 8002956:	687b      	ldr	r3, [r7, #4]
 8002958:	4a50      	ldr	r2, [pc, #320]	; (8002a9c <HAL_GPIO_Init+0x34c>)
 800295a:	4293      	cmp	r3, r2
 800295c:	d007      	beq.n	800296e <HAL_GPIO_Init+0x21e>
 800295e:	687b      	ldr	r3, [r7, #4]
 8002960:	4a4f      	ldr	r2, [pc, #316]	; (8002aa0 <HAL_GPIO_Init+0x350>)
 8002962:	4293      	cmp	r3, r2
 8002964:	d101      	bne.n	800296a <HAL_GPIO_Init+0x21a>
 8002966:	2309      	movs	r3, #9
 8002968:	e012      	b.n	8002990 <HAL_GPIO_Init+0x240>
 800296a:	230a      	movs	r3, #10
 800296c:	e010      	b.n	8002990 <HAL_GPIO_Init+0x240>
 800296e:	2308      	movs	r3, #8
 8002970:	e00e      	b.n	8002990 <HAL_GPIO_Init+0x240>
 8002972:	2307      	movs	r3, #7
 8002974:	e00c      	b.n	8002990 <HAL_GPIO_Init+0x240>
 8002976:	2306      	movs	r3, #6
 8002978:	e00a      	b.n	8002990 <HAL_GPIO_Init+0x240>
 800297a:	2305      	movs	r3, #5
 800297c:	e008      	b.n	8002990 <HAL_GPIO_Init+0x240>
 800297e:	2304      	movs	r3, #4
 8002980:	e006      	b.n	8002990 <HAL_GPIO_Init+0x240>
 8002982:	2303      	movs	r3, #3
 8002984:	e004      	b.n	8002990 <HAL_GPIO_Init+0x240>
 8002986:	2302      	movs	r3, #2
 8002988:	e002      	b.n	8002990 <HAL_GPIO_Init+0x240>
 800298a:	2301      	movs	r3, #1
 800298c:	e000      	b.n	8002990 <HAL_GPIO_Init+0x240>
 800298e:	2300      	movs	r3, #0
 8002990:	69fa      	ldr	r2, [r7, #28]
 8002992:	f002 0203 	and.w	r2, r2, #3
 8002996:	0092      	lsls	r2, r2, #2
 8002998:	4093      	lsls	r3, r2
 800299a:	69ba      	ldr	r2, [r7, #24]
 800299c:	4313      	orrs	r3, r2
 800299e:	61bb      	str	r3, [r7, #24]
        SYSCFG->EXTICR[position >> 2U] = temp;
 80029a0:	4935      	ldr	r1, [pc, #212]	; (8002a78 <HAL_GPIO_Init+0x328>)
 80029a2:	69fb      	ldr	r3, [r7, #28]
 80029a4:	089b      	lsrs	r3, r3, #2
 80029a6:	3302      	adds	r3, #2
 80029a8:	69ba      	ldr	r2, [r7, #24]
 80029aa:	f841 2023 	str.w	r2, [r1, r3, lsl #2]

        /* Clear EXTI line configuration */
        temp = EXTI->IMR;
 80029ae:	4b3d      	ldr	r3, [pc, #244]	; (8002aa4 <HAL_GPIO_Init+0x354>)
 80029b0:	681b      	ldr	r3, [r3, #0]
 80029b2:	61bb      	str	r3, [r7, #24]
        temp &= ~((uint32_t)iocurrent);
 80029b4:	693b      	ldr	r3, [r7, #16]
 80029b6:	43db      	mvns	r3, r3
 80029b8:	69ba      	ldr	r2, [r7, #24]
 80029ba:	4013      	ands	r3, r2
 80029bc:	61bb      	str	r3, [r7, #24]
        if((GPIO_Init->Mode & EXTI_IT) != 0x00U)
 80029be:	683b      	ldr	r3, [r7, #0]
 80029c0:	685b      	ldr	r3, [r3, #4]
 80029c2:	f403 3380 	and.w	r3, r3, #65536	; 0x10000
 80029c6:	2b00      	cmp	r3, #0
 80029c8:	d003      	beq.n	80029d2 <HAL_GPIO_Init+0x282>
        {
          temp |= iocurrent;
 80029ca:	69ba      	ldr	r2, [r7, #24]
 80029cc:	693b      	ldr	r3, [r7, #16]
 80029ce:	4313      	orrs	r3, r2
 80029d0:	61bb      	str	r3, [r7, #24]
        }
        EXTI->IMR = temp;
 80029d2:	4a34      	ldr	r2, [pc, #208]	; (8002aa4 <HAL_GPIO_Init+0x354>)
 80029d4:	69bb      	ldr	r3, [r7, #24]
 80029d6:	6013      	str	r3, [r2, #0]

        temp = EXTI->EMR;
 80029d8:	4b32      	ldr	r3, [pc, #200]	; (8002aa4 <HAL_GPIO_Init+0x354>)
 80029da:	685b      	ldr	r3, [r3, #4]
 80029dc:	61bb      	str	r3, [r7, #24]
        temp &= ~((uint32_t)iocurrent);
 80029de:	693b      	ldr	r3, [r7, #16]
 80029e0:	43db      	mvns	r3, r3
 80029e2:	69ba      	ldr	r2, [r7, #24]
 80029e4:	4013      	ands	r3, r2
 80029e6:	61bb      	str	r3, [r7, #24]
        if((GPIO_Init->Mode & EXTI_EVT) != 0x00U)
 80029e8:	683b      	ldr	r3, [r7, #0]
 80029ea:	685b      	ldr	r3, [r3, #4]
 80029ec:	f403 3300 	and.w	r3, r3, #131072	; 0x20000
 80029f0:	2b00      	cmp	r3, #0
 80029f2:	d003      	beq.n	80029fc <HAL_GPIO_Init+0x2ac>
        {
          temp |= iocurrent;
 80029f4:	69ba      	ldr	r2, [r7, #24]
 80029f6:	693b      	ldr	r3, [r7, #16]
 80029f8:	4313      	orrs	r3, r2
 80029fa:	61bb      	str	r3, [r7, #24]
        }
        EXTI->EMR = temp;
 80029fc:	4a29      	ldr	r2, [pc, #164]	; (8002aa4 <HAL_GPIO_Init+0x354>)
 80029fe:	69bb      	ldr	r3, [r7, #24]
 8002a00:	6053      	str	r3, [r2, #4]

        /* Clear Rising Falling edge configuration */
        temp = EXTI->RTSR;
 8002a02:	4b28      	ldr	r3, [pc, #160]	; (8002aa4 <HAL_GPIO_Init+0x354>)
 8002a04:	689b      	ldr	r3, [r3, #8]
 8002a06:	61bb      	str	r3, [r7, #24]
        temp &= ~((uint32_t)iocurrent);
 8002a08:	693b      	ldr	r3, [r7, #16]
 8002a0a:	43db      	mvns	r3, r3
 8002a0c:	69ba      	ldr	r2, [r7, #24]
 8002a0e:	4013      	ands	r3, r2
 8002a10:	61bb      	str	r3, [r7, #24]
        if((GPIO_Init->Mode & TRIGGER_RISING) != 0x00U)
 8002a12:	683b      	ldr	r3, [r7, #0]
 8002a14:	685b      	ldr	r3, [r3, #4]
 8002a16:	f403 1380 	and.w	r3, r3, #1048576	; 0x100000
 8002a1a:	2b00      	cmp	r3, #0
 8002a1c:	d003      	beq.n	8002a26 <HAL_GPIO_Init+0x2d6>
        {
          temp |= iocurrent;
 8002a1e:	69ba      	ldr	r2, [r7, #24]
 8002a20:	693b      	ldr	r3, [r7, #16]
 8002a22:	4313      	orrs	r3, r2
 8002a24:	61bb      	str	r3, [r7, #24]
        }
        EXTI->RTSR = temp;
 8002a26:	4a1f      	ldr	r2, [pc, #124]	; (8002aa4 <HAL_GPIO_Init+0x354>)
 8002a28:	69bb      	ldr	r3, [r7, #24]
 8002a2a:	6093      	str	r3, [r2, #8]

        temp = EXTI->FTSR;
 8002a2c:	4b1d      	ldr	r3, [pc, #116]	; (8002aa4 <HAL_GPIO_Init+0x354>)
 8002a2e:	68db      	ldr	r3, [r3, #12]
 8002a30:	61bb      	str	r3, [r7, #24]
        temp &= ~((uint32_t)iocurrent);
 8002a32:	693b      	ldr	r3, [r7, #16]
 8002a34:	43db      	mvns	r3, r3
 8002a36:	69ba      	ldr	r2, [r7, #24]
 8002a38:	4013      	ands	r3, r2
 8002a3a:	61bb      	str	r3, [r7, #24]
        if((GPIO_Init->Mode & TRIGGER_FALLING) != 0x00U)
 8002a3c:	683b      	ldr	r3, [r7, #0]
 8002a3e:	685b      	ldr	r3, [r3, #4]
 8002a40:	f403 1300 	and.w	r3, r3, #2097152	; 0x200000
 8002a44:	2b00      	cmp	r3, #0
 8002a46:	d003      	beq.n	8002a50 <HAL_GPIO_Init+0x300>
        {
          temp |= iocurrent;
 8002a48:	69ba      	ldr	r2, [r7, #24]
 8002a4a:	693b      	ldr	r3, [r7, #16]
 8002a4c:	4313      	orrs	r3, r2
 8002a4e:	61bb      	str	r3, [r7, #24]
        }
        EXTI->FTSR = temp;
 8002a50:	4a14      	ldr	r2, [pc, #80]	; (8002aa4 <HAL_GPIO_Init+0x354>)
 8002a52:	69bb      	ldr	r3, [r7, #24]
 8002a54:	60d3      	str	r3, [r2, #12]
  for(position = 0U; position < GPIO_NUMBER; position++)
 8002a56:	69fb      	ldr	r3, [r7, #28]
 8002a58:	3301      	adds	r3, #1
 8002a5a:	61fb      	str	r3, [r7, #28]
 8002a5c:	69fb      	ldr	r3, [r7, #28]
 8002a5e:	2b0f      	cmp	r3, #15
 8002a60:	f67f ae84 	bls.w	800276c <HAL_GPIO_Init+0x1c>
      }
    }
  }
}
 8002a64:	bf00      	nop
 8002a66:	bf00      	nop
 8002a68:	3724      	adds	r7, #36	; 0x24
 8002a6a:	46bd      	mov	sp, r7
 8002a6c:	f85d 7b04 	ldr.w	r7, [sp], #4
 8002a70:	4770      	bx	lr
 8002a72:	bf00      	nop
 8002a74:	40023800 	.word	0x40023800
 8002a78:	40013800 	.word	0x40013800
 8002a7c:	40020000 	.word	0x40020000
 8002a80:	40020400 	.word	0x40020400
 8002a84:	40020800 	.word	0x40020800
 8002a88:	40020c00 	.word	0x40020c00
 8002a8c:	40021000 	.word	0x40021000
 8002a90:	40021400 	.word	0x40021400
 8002a94:	40021800 	.word	0x40021800
 8002a98:	40021c00 	.word	0x40021c00
 8002a9c:	40022000 	.word	0x40022000
 8002aa0:	40022400 	.word	0x40022400
 8002aa4:	40013c00 	.word	0x40013c00

08002aa8 <HAL_GPIO_WritePin>:
  *            @arg GPIO_PIN_RESET: to clear the port pin
  *            @arg GPIO_PIN_SET: to set the port pin
  * @retval None
  */
void HAL_GPIO_WritePin(GPIO_TypeDef* GPIOx, uint16_t GPIO_Pin, GPIO_PinState PinState)
{
 8002aa8:	b480      	push	{r7}
 8002aaa:	b083      	sub	sp, #12
 8002aac:	af00      	add	r7, sp, #0
 8002aae:	6078      	str	r0, [r7, #4]
 8002ab0:	460b      	mov	r3, r1
 8002ab2:	807b      	strh	r3, [r7, #2]
 8002ab4:	4613      	mov	r3, r2
 8002ab6:	707b      	strb	r3, [r7, #1]
  /* Check the parameters */
  assert_param(IS_GPIO_PIN(GPIO_Pin));
  assert_param(IS_GPIO_PIN_ACTION(PinState));

  if(PinState != GPIO_PIN_RESET)
 8002ab8:	787b      	ldrb	r3, [r7, #1]
 8002aba:	2b00      	cmp	r3, #0
 8002abc:	d003      	beq.n	8002ac6 <HAL_GPIO_WritePin+0x1e>
  {
    GPIOx->BSRR = GPIO_Pin;
 8002abe:	887a      	ldrh	r2, [r7, #2]
 8002ac0:	687b      	ldr	r3, [r7, #4]
 8002ac2:	619a      	str	r2, [r3, #24]
  }
  else
  {
    GPIOx->BSRR = (uint32_t)GPIO_Pin << 16U;
  }
}
 8002ac4:	e003      	b.n	8002ace <HAL_GPIO_WritePin+0x26>
    GPIOx->BSRR = (uint32_t)GPIO_Pin << 16U;
 8002ac6:	887b      	ldrh	r3, [r7, #2]
 8002ac8:	041a      	lsls	r2, r3, #16
 8002aca:	687b      	ldr	r3, [r7, #4]
 8002acc:	619a      	str	r2, [r3, #24]
}
 8002ace:	bf00      	nop
 8002ad0:	370c      	adds	r7, #12
 8002ad2:	46bd      	mov	sp, r7
 8002ad4:	f85d 7b04 	ldr.w	r7, [sp], #4
 8002ad8:	4770      	bx	lr

08002ada <HAL_GPIO_TogglePin>:
  *                      x can be (A..I) to select the GPIO peripheral for STM32F40XX and STM32F427X devices.
  * @param  GPIO_Pin Specifies the pins to be toggled.
  * @retval None
  */
void HAL_GPIO_TogglePin(GPIO_TypeDef* GPIOx, uint16_t GPIO_Pin)
{
 8002ada:	b480      	push	{r7}
 8002adc:	b085      	sub	sp, #20
 8002ade:	af00      	add	r7, sp, #0
 8002ae0:	6078      	str	r0, [r7, #4]
 8002ae2:	460b      	mov	r3, r1
 8002ae4:	807b      	strh	r3, [r7, #2]

  /* Check the parameters */
  assert_param(IS_GPIO_PIN(GPIO_Pin));

  /* get current Ouput Data Register value */
  odr = GPIOx->ODR;
 8002ae6:	687b      	ldr	r3, [r7, #4]
 8002ae8:	695b      	ldr	r3, [r3, #20]
 8002aea:	60fb      	str	r3, [r7, #12]

  /* Set selected pins that were at low level, and reset ones that were high */
  GPIOx->BSRR = ((odr & GPIO_Pin) << GPIO_NUMBER) | (~odr & GPIO_Pin);
 8002aec:	887a      	ldrh	r2, [r7, #2]
 8002aee:	68fb      	ldr	r3, [r7, #12]
 8002af0:	4013      	ands	r3, r2
 8002af2:	041a      	lsls	r2, r3, #16
 8002af4:	68fb      	ldr	r3, [r7, #12]
 8002af6:	43d9      	mvns	r1, r3
 8002af8:	887b      	ldrh	r3, [r7, #2]
 8002afa:	400b      	ands	r3, r1
 8002afc:	431a      	orrs	r2, r3
 8002afe:	687b      	ldr	r3, [r7, #4]
 8002b00:	619a      	str	r2, [r3, #24]
}
 8002b02:	bf00      	nop
 8002b04:	3714      	adds	r7, #20
 8002b06:	46bd      	mov	sp, r7
 8002b08:	f85d 7b04 	ldr.w	r7, [sp], #4
 8002b0c:	4770      	bx	lr
	...

08002b10 <HAL_ADC_MspInit>:
  *           - Peripheral's GPIO Configuration
  * @param hadc: ADC handle pointer
  * @retval None
  */
void HAL_ADC_MspInit(ADC_HandleTypeDef *hadc)
{
 8002b10:	b580      	push	{r7, lr}
 8002b12:	b08a      	sub	sp, #40	; 0x28
 8002b14:	af00      	add	r7, sp, #0
 8002b16:	6078      	str	r0, [r7, #4]
  GPIO_InitTypeDef          GPIO_InitStruct;
  static DMA_HandleTypeDef  hdma_adc;

  /*##-1- Enable peripherals and GPIO Clocks #################################*/
  /* ADC1 Periph clock enable */
  ADCx_CLK_ENABLE();
 8002b18:	2300      	movs	r3, #0
 8002b1a:	613b      	str	r3, [r7, #16]
 8002b1c:	4b3a      	ldr	r3, [pc, #232]	; (8002c08 <HAL_ADC_MspInit+0xf8>)
 8002b1e:	6c5b      	ldr	r3, [r3, #68]	; 0x44
 8002b20:	4a39      	ldr	r2, [pc, #228]	; (8002c08 <HAL_ADC_MspInit+0xf8>)
 8002b22:	f443 7380 	orr.w	r3, r3, #256	; 0x100
 8002b26:	6453      	str	r3, [r2, #68]	; 0x44
 8002b28:	4b37      	ldr	r3, [pc, #220]	; (8002c08 <HAL_ADC_MspInit+0xf8>)
 8002b2a:	6c5b      	ldr	r3, [r3, #68]	; 0x44
 8002b2c:	f403 7380 	and.w	r3, r3, #256	; 0x100
 8002b30:	613b      	str	r3, [r7, #16]
 8002b32:	693b      	ldr	r3, [r7, #16]
  /* Enable GPIO clock ****************************************/
  ADCx_CHANNEL_GPIO_CLK_ENABLE();
 8002b34:	2300      	movs	r3, #0
 8002b36:	60fb      	str	r3, [r7, #12]
 8002b38:	4b33      	ldr	r3, [pc, #204]	; (8002c08 <HAL_ADC_MspInit+0xf8>)
 8002b3a:	6b1b      	ldr	r3, [r3, #48]	; 0x30
 8002b3c:	4a32      	ldr	r2, [pc, #200]	; (8002c08 <HAL_ADC_MspInit+0xf8>)
 8002b3e:	f043 0301 	orr.w	r3, r3, #1
 8002b42:	6313      	str	r3, [r2, #48]	; 0x30
 8002b44:	4b30      	ldr	r3, [pc, #192]	; (8002c08 <HAL_ADC_MspInit+0xf8>)
 8002b46:	6b1b      	ldr	r3, [r3, #48]	; 0x30
 8002b48:	f003 0301 	and.w	r3, r3, #1
 8002b4c:	60fb      	str	r3, [r7, #12]
 8002b4e:	68fb      	ldr	r3, [r7, #12]
  /* Enable DMA2 clock */
  DMAx_CLK_ENABLE();
 8002b50:	2300      	movs	r3, #0
 8002b52:	60bb      	str	r3, [r7, #8]
 8002b54:	4b2c      	ldr	r3, [pc, #176]	; (8002c08 <HAL_ADC_MspInit+0xf8>)
 8002b56:	6b1b      	ldr	r3, [r3, #48]	; 0x30
 8002b58:	4a2b      	ldr	r2, [pc, #172]	; (8002c08 <HAL_ADC_MspInit+0xf8>)
 8002b5a:	f443 0380 	orr.w	r3, r3, #4194304	; 0x400000
 8002b5e:	6313      	str	r3, [r2, #48]	; 0x30
 8002b60:	4b29      	ldr	r3, [pc, #164]	; (8002c08 <HAL_ADC_MspInit+0xf8>)
 8002b62:	6b1b      	ldr	r3, [r3, #48]	; 0x30
 8002b64:	f403 0380 	and.w	r3, r3, #4194304	; 0x400000
 8002b68:	60bb      	str	r3, [r7, #8]
 8002b6a:	68bb      	ldr	r3, [r7, #8]

  /*##-2- Configure peripheral GPIO ##########################################*/
  /* ADC Channel GPIO pin configuration */
  GPIO_InitStruct.Pin = ADCx_CHANNEL_PIN;
 8002b6c:	2308      	movs	r3, #8
 8002b6e:	617b      	str	r3, [r7, #20]
  GPIO_InitStruct.Mode = GPIO_MODE_ANALOG;
 8002b70:	2303      	movs	r3, #3
 8002b72:	61bb      	str	r3, [r7, #24]
  GPIO_InitStruct.Pull = GPIO_NOPULL;
 8002b74:	2300      	movs	r3, #0
 8002b76:	61fb      	str	r3, [r7, #28]
  HAL_GPIO_Init(ADCx_CHANNEL_GPIO_PORT, &GPIO_InitStruct);
 8002b78:	f107 0314 	add.w	r3, r7, #20
 8002b7c:	4619      	mov	r1, r3
 8002b7e:	4823      	ldr	r0, [pc, #140]	; (8002c0c <HAL_ADC_MspInit+0xfc>)
 8002b80:	f7ff fde6 	bl	8002750 <HAL_GPIO_Init>

  /*##-3- Configure the DMA streams ##########################################*/
  /* Set the parameters to be configured */
  hdma_adc.Instance = ADCx_DMA_STREAM;
 8002b84:	4b22      	ldr	r3, [pc, #136]	; (8002c10 <HAL_ADC_MspInit+0x100>)
 8002b86:	4a23      	ldr	r2, [pc, #140]	; (8002c14 <HAL_ADC_MspInit+0x104>)
 8002b88:	601a      	str	r2, [r3, #0]
  hdma_adc.Init.Channel  = ADCx_DMA_CHANNEL;
 8002b8a:	4b21      	ldr	r3, [pc, #132]	; (8002c10 <HAL_ADC_MspInit+0x100>)
 8002b8c:	2200      	movs	r2, #0
 8002b8e:	605a      	str	r2, [r3, #4]
  hdma_adc.Init.Direction = DMA_PERIPH_TO_MEMORY;
 8002b90:	4b1f      	ldr	r3, [pc, #124]	; (8002c10 <HAL_ADC_MspInit+0x100>)
 8002b92:	2200      	movs	r2, #0
 8002b94:	609a      	str	r2, [r3, #8]
  hdma_adc.Init.PeriphInc = DMA_PINC_DISABLE;
 8002b96:	4b1e      	ldr	r3, [pc, #120]	; (8002c10 <HAL_ADC_MspInit+0x100>)
 8002b98:	2200      	movs	r2, #0
 8002b9a:	60da      	str	r2, [r3, #12]
  hdma_adc.Init.MemInc = DMA_MINC_ENABLE;
 8002b9c:	4b1c      	ldr	r3, [pc, #112]	; (8002c10 <HAL_ADC_MspInit+0x100>)
 8002b9e:	f44f 6280 	mov.w	r2, #1024	; 0x400
 8002ba2:	611a      	str	r2, [r3, #16]
  hdma_adc.Init.PeriphDataAlignment = DMA_PDATAALIGN_WORD;
 8002ba4:	4b1a      	ldr	r3, [pc, #104]	; (8002c10 <HAL_ADC_MspInit+0x100>)
 8002ba6:	f44f 5280 	mov.w	r2, #4096	; 0x1000
 8002baa:	615a      	str	r2, [r3, #20]
  hdma_adc.Init.MemDataAlignment = DMA_MDATAALIGN_WORD;
 8002bac:	4b18      	ldr	r3, [pc, #96]	; (8002c10 <HAL_ADC_MspInit+0x100>)
 8002bae:	f44f 4280 	mov.w	r2, #16384	; 0x4000
 8002bb2:	619a      	str	r2, [r3, #24]
  hdma_adc.Init.Mode = DMA_CIRCULAR;
 8002bb4:	4b16      	ldr	r3, [pc, #88]	; (8002c10 <HAL_ADC_MspInit+0x100>)
 8002bb6:	f44f 7280 	mov.w	r2, #256	; 0x100
 8002bba:	61da      	str	r2, [r3, #28]
  hdma_adc.Init.Priority = DMA_PRIORITY_HIGH;
 8002bbc:	4b14      	ldr	r3, [pc, #80]	; (8002c10 <HAL_ADC_MspInit+0x100>)
 8002bbe:	f44f 3200 	mov.w	r2, #131072	; 0x20000
 8002bc2:	621a      	str	r2, [r3, #32]
  hdma_adc.Init.FIFOMode = DMA_FIFOMODE_DISABLE;
 8002bc4:	4b12      	ldr	r3, [pc, #72]	; (8002c10 <HAL_ADC_MspInit+0x100>)
 8002bc6:	2200      	movs	r2, #0
 8002bc8:	625a      	str	r2, [r3, #36]	; 0x24
  hdma_adc.Init.FIFOThreshold = DMA_FIFO_THRESHOLD_HALFFULL;
 8002bca:	4b11      	ldr	r3, [pc, #68]	; (8002c10 <HAL_ADC_MspInit+0x100>)
 8002bcc:	2201      	movs	r2, #1
 8002bce:	629a      	str	r2, [r3, #40]	; 0x28
  hdma_adc.Init.MemBurst = DMA_MBURST_SINGLE;
 8002bd0:	4b0f      	ldr	r3, [pc, #60]	; (8002c10 <HAL_ADC_MspInit+0x100>)
 8002bd2:	2200      	movs	r2, #0
 8002bd4:	62da      	str	r2, [r3, #44]	; 0x2c
  hdma_adc.Init.PeriphBurst = DMA_PBURST_SINGLE;
 8002bd6:	4b0e      	ldr	r3, [pc, #56]	; (8002c10 <HAL_ADC_MspInit+0x100>)
 8002bd8:	2200      	movs	r2, #0
 8002bda:	631a      	str	r2, [r3, #48]	; 0x30

  HAL_DMA_Init(&hdma_adc);
 8002bdc:	480c      	ldr	r0, [pc, #48]	; (8002c10 <HAL_ADC_MspInit+0x100>)
 8002bde:	f7ff facd 	bl	800217c <HAL_DMA_Init>

  /* Associate the initialized DMA handle to the ADC handle */
  __HAL_LINKDMA(hadc, DMA_Handle, hdma_adc);
 8002be2:	687b      	ldr	r3, [r7, #4]
 8002be4:	4a0a      	ldr	r2, [pc, #40]	; (8002c10 <HAL_ADC_MspInit+0x100>)
 8002be6:	639a      	str	r2, [r3, #56]	; 0x38
 8002be8:	4a09      	ldr	r2, [pc, #36]	; (8002c10 <HAL_ADC_MspInit+0x100>)
 8002bea:	687b      	ldr	r3, [r7, #4]
 8002bec:	6393      	str	r3, [r2, #56]	; 0x38

  /*##-4- Configure the NVIC for DMA #########################################*/
  /* NVIC configuration for DMA transfer complete interrupt */
  HAL_NVIC_SetPriority(ADCx_DMA_IRQn, 0, 0);
 8002bee:	2200      	movs	r2, #0
 8002bf0:	2100      	movs	r1, #0
 8002bf2:	2038      	movs	r0, #56	; 0x38
 8002bf4:	f7ff fa8b 	bl	800210e <HAL_NVIC_SetPriority>
  HAL_NVIC_EnableIRQ(ADCx_DMA_IRQn);
 8002bf8:	2038      	movs	r0, #56	; 0x38
 8002bfa:	f7ff faa4 	bl	8002146 <HAL_NVIC_EnableIRQ>
}
 8002bfe:	bf00      	nop
 8002c00:	3728      	adds	r7, #40	; 0x28
 8002c02:	46bd      	mov	sp, r7
 8002c04:	bd80      	pop	{r7, pc}
 8002c06:	bf00      	nop
 8002c08:	40023800 	.word	0x40023800
 8002c0c:	40020000 	.word	0x40020000
 8002c10:	200002ac 	.word	0x200002ac
 8002c14:	40026410 	.word	0x40026410

08002c18 <HAL_UART_MspInit>:
  *           - Peripheral's GPIO Configuration
  * @param huart: UART handle pointer
  * @retval None
  */
void HAL_UART_MspInit(UART_HandleTypeDef *huart)
{
 8002c18:	b580      	push	{r7, lr}
 8002c1a:	b08a      	sub	sp, #40	; 0x28
 8002c1c:	af00      	add	r7, sp, #0
 8002c1e:	6078      	str	r0, [r7, #4]
  GPIO_InitTypeDef  GPIO_InitStruct;


  /*##-1- Enable peripherals and GPIO Clocks #################################*/
  /* Enable GPIO TX/RX clock */
  USARTx_TX_GPIO_CLK_ENABLE();
 8002c20:	2300      	movs	r3, #0
 8002c22:	613b      	str	r3, [r7, #16]
 8002c24:	4b23      	ldr	r3, [pc, #140]	; (8002cb4 <HAL_UART_MspInit+0x9c>)
 8002c26:	6b1b      	ldr	r3, [r3, #48]	; 0x30
 8002c28:	4a22      	ldr	r2, [pc, #136]	; (8002cb4 <HAL_UART_MspInit+0x9c>)
 8002c2a:	f043 0308 	orr.w	r3, r3, #8
 8002c2e:	6313      	str	r3, [r2, #48]	; 0x30
 8002c30:	4b20      	ldr	r3, [pc, #128]	; (8002cb4 <HAL_UART_MspInit+0x9c>)
 8002c32:	6b1b      	ldr	r3, [r3, #48]	; 0x30
 8002c34:	f003 0308 	and.w	r3, r3, #8
 8002c38:	613b      	str	r3, [r7, #16]
 8002c3a:	693b      	ldr	r3, [r7, #16]
  USARTx_RX_GPIO_CLK_ENABLE();
 8002c3c:	2300      	movs	r3, #0
 8002c3e:	60fb      	str	r3, [r7, #12]
 8002c40:	4b1c      	ldr	r3, [pc, #112]	; (8002cb4 <HAL_UART_MspInit+0x9c>)
 8002c42:	6b1b      	ldr	r3, [r3, #48]	; 0x30
 8002c44:	4a1b      	ldr	r2, [pc, #108]	; (8002cb4 <HAL_UART_MspInit+0x9c>)
 8002c46:	f043 0308 	orr.w	r3, r3, #8
 8002c4a:	6313      	str	r3, [r2, #48]	; 0x30
 8002c4c:	4b19      	ldr	r3, [pc, #100]	; (8002cb4 <HAL_UART_MspInit+0x9c>)
 8002c4e:	6b1b      	ldr	r3, [r3, #48]	; 0x30
 8002c50:	f003 0308 	and.w	r3, r3, #8
 8002c54:	60fb      	str	r3, [r7, #12]
 8002c56:	68fb      	ldr	r3, [r7, #12]


  /* Enable USARTx clock */
  USARTx_CLK_ENABLE();
 8002c58:	2300      	movs	r3, #0
 8002c5a:	60bb      	str	r3, [r7, #8]
 8002c5c:	4b15      	ldr	r3, [pc, #84]	; (8002cb4 <HAL_UART_MspInit+0x9c>)
 8002c5e:	6c1b      	ldr	r3, [r3, #64]	; 0x40
 8002c60:	4a14      	ldr	r2, [pc, #80]	; (8002cb4 <HAL_UART_MspInit+0x9c>)
 8002c62:	f443 2380 	orr.w	r3, r3, #262144	; 0x40000
 8002c66:	6413      	str	r3, [r2, #64]	; 0x40
 8002c68:	4b12      	ldr	r3, [pc, #72]	; (8002cb4 <HAL_UART_MspInit+0x9c>)
 8002c6a:	6c1b      	ldr	r3, [r3, #64]	; 0x40
 8002c6c:	f403 2380 	and.w	r3, r3, #262144	; 0x40000
 8002c70:	60bb      	str	r3, [r7, #8]
 8002c72:	68bb      	ldr	r3, [r7, #8]

  /*##-2- Configure peripheral GPIO ##########################################*/
  /* UART TX GPIO pin configuration  */
  GPIO_InitStruct.Pin       = USARTx_TX_PIN;
 8002c74:	f44f 7380 	mov.w	r3, #256	; 0x100
 8002c78:	617b      	str	r3, [r7, #20]
  GPIO_InitStruct.Mode      = GPIO_MODE_AF_PP;
 8002c7a:	2302      	movs	r3, #2
 8002c7c:	61bb      	str	r3, [r7, #24]
  GPIO_InitStruct.Pull      = GPIO_PULLUP;
 8002c7e:	2301      	movs	r3, #1
 8002c80:	61fb      	str	r3, [r7, #28]
  GPIO_InitStruct.Speed     = GPIO_SPEED_FREQ_VERY_HIGH;
 8002c82:	2303      	movs	r3, #3
 8002c84:	623b      	str	r3, [r7, #32]
  GPIO_InitStruct.Alternate = USARTx_TX_AF;
 8002c86:	2307      	movs	r3, #7
 8002c88:	627b      	str	r3, [r7, #36]	; 0x24

  HAL_GPIO_Init(USARTx_TX_GPIO_PORT, &GPIO_InitStruct);
 8002c8a:	f107 0314 	add.w	r3, r7, #20
 8002c8e:	4619      	mov	r1, r3
 8002c90:	4809      	ldr	r0, [pc, #36]	; (8002cb8 <HAL_UART_MspInit+0xa0>)
 8002c92:	f7ff fd5d 	bl	8002750 <HAL_GPIO_Init>

  /* UART RX GPIO pin configuration  */
  GPIO_InitStruct.Pin = USARTx_RX_PIN;
 8002c96:	f44f 7300 	mov.w	r3, #512	; 0x200
 8002c9a:	617b      	str	r3, [r7, #20]
  GPIO_InitStruct.Alternate = USARTx_RX_AF;
 8002c9c:	2307      	movs	r3, #7
 8002c9e:	627b      	str	r3, [r7, #36]	; 0x24

  HAL_GPIO_Init(USARTx_RX_GPIO_PORT, &GPIO_InitStruct);
 8002ca0:	f107 0314 	add.w	r3, r7, #20
 8002ca4:	4619      	mov	r1, r3
 8002ca6:	4804      	ldr	r0, [pc, #16]	; (8002cb8 <HAL_UART_MspInit+0xa0>)
 8002ca8:	f7ff fd52 	bl	8002750 <HAL_GPIO_Init>
}
 8002cac:	bf00      	nop
 8002cae:	3728      	adds	r7, #40	; 0x28
 8002cb0:	46bd      	mov	sp, r7
 8002cb2:	bd80      	pop	{r7, pc}
 8002cb4:	40023800 	.word	0x40023800
 8002cb8:	40020c00 	.word	0x40020c00

08002cbc <HAL_MspInit>:
  * @note   This function is called from HAL_Init() function to perform system
  *         level initialization (GPIOs, clock, DMA, interrupt).
  * @retval None
  */
void HAL_MspInit(void)
{
 8002cbc:	b480      	push	{r7}
 8002cbe:	af00      	add	r7, sp, #0

}
 8002cc0:	bf00      	nop
 8002cc2:	46bd      	mov	sp, r7
 8002cc4:	f85d 7b04 	ldr.w	r7, [sp], #4
 8002cc8:	4770      	bx	lr
	...

08002ccc <HAL_PWREx_EnableOverDrive>:
  *         During the Over-drive switch activation, no peripheral clocks should be enabled.   
  *         The peripheral clocks must be enabled once the Over-drive mode is activated.   
  * @retval HAL status
  */
HAL_StatusTypeDef HAL_PWREx_EnableOverDrive(void)
{
 8002ccc:	b580      	push	{r7, lr}
 8002cce:	b082      	sub	sp, #8
 8002cd0:	af00      	add	r7, sp, #0
  uint32_t tickstart = 0U;
 8002cd2:	2300      	movs	r3, #0
 8002cd4:	607b      	str	r3, [r7, #4]

  __HAL_RCC_PWR_CLK_ENABLE();
 8002cd6:	2300      	movs	r3, #0
 8002cd8:	603b      	str	r3, [r7, #0]
 8002cda:	4b20      	ldr	r3, [pc, #128]	; (8002d5c <HAL_PWREx_EnableOverDrive+0x90>)
 8002cdc:	6c1b      	ldr	r3, [r3, #64]	; 0x40
 8002cde:	4a1f      	ldr	r2, [pc, #124]	; (8002d5c <HAL_PWREx_EnableOverDrive+0x90>)
 8002ce0:	f043 5380 	orr.w	r3, r3, #268435456	; 0x10000000
 8002ce4:	6413      	str	r3, [r2, #64]	; 0x40
 8002ce6:	4b1d      	ldr	r3, [pc, #116]	; (8002d5c <HAL_PWREx_EnableOverDrive+0x90>)
 8002ce8:	6c1b      	ldr	r3, [r3, #64]	; 0x40
 8002cea:	f003 5380 	and.w	r3, r3, #268435456	; 0x10000000
 8002cee:	603b      	str	r3, [r7, #0]
 8002cf0:	683b      	ldr	r3, [r7, #0]
  
  /* Enable the Over-drive to extend the clock frequency to 180 Mhz */
  __HAL_PWR_OVERDRIVE_ENABLE();
 8002cf2:	4b1b      	ldr	r3, [pc, #108]	; (8002d60 <HAL_PWREx_EnableOverDrive+0x94>)
 8002cf4:	2201      	movs	r2, #1
 8002cf6:	601a      	str	r2, [r3, #0]

  /* Get tick */
  tickstart = HAL_GetTick();
 8002cf8:	f7fe fcee 	bl	80016d8 <HAL_GetTick>
 8002cfc:	6078      	str	r0, [r7, #4]

  while(!__HAL_PWR_GET_FLAG(PWR_FLAG_ODRDY))
 8002cfe:	e009      	b.n	8002d14 <HAL_PWREx_EnableOverDrive+0x48>
  {
    if((HAL_GetTick() - tickstart) > PWR_OVERDRIVE_TIMEOUT_VALUE)
 8002d00:	f7fe fcea 	bl	80016d8 <HAL_GetTick>
 8002d04:	4602      	mov	r2, r0
 8002d06:	687b      	ldr	r3, [r7, #4]
 8002d08:	1ad3      	subs	r3, r2, r3
 8002d0a:	f5b3 7f7a 	cmp.w	r3, #1000	; 0x3e8
 8002d0e:	d901      	bls.n	8002d14 <HAL_PWREx_EnableOverDrive+0x48>
    {
      return HAL_TIMEOUT;
 8002d10:	2303      	movs	r3, #3
 8002d12:	e01f      	b.n	8002d54 <HAL_PWREx_EnableOverDrive+0x88>
  while(!__HAL_PWR_GET_FLAG(PWR_FLAG_ODRDY))
 8002d14:	4b13      	ldr	r3, [pc, #76]	; (8002d64 <HAL_PWREx_EnableOverDrive+0x98>)
 8002d16:	685b      	ldr	r3, [r3, #4]
 8002d18:	f403 3380 	and.w	r3, r3, #65536	; 0x10000
 8002d1c:	f5b3 3f80 	cmp.w	r3, #65536	; 0x10000
 8002d20:	d1ee      	bne.n	8002d00 <HAL_PWREx_EnableOverDrive+0x34>
    }
  }
  
  /* Enable the Over-drive switch */
  __HAL_PWR_OVERDRIVESWITCHING_ENABLE();
 8002d22:	4b11      	ldr	r3, [pc, #68]	; (8002d68 <HAL_PWREx_EnableOverDrive+0x9c>)
 8002d24:	2201      	movs	r2, #1
 8002d26:	601a      	str	r2, [r3, #0]

  /* Get tick */
  tickstart = HAL_GetTick();
 8002d28:	f7fe fcd6 	bl	80016d8 <HAL_GetTick>
 8002d2c:	6078      	str	r0, [r7, #4]

  while(!__HAL_PWR_GET_FLAG(PWR_FLAG_ODSWRDY))
 8002d2e:	e009      	b.n	8002d44 <HAL_PWREx_EnableOverDrive+0x78>
  {
    if((HAL_GetTick() - tickstart ) > PWR_OVERDRIVE_TIMEOUT_VALUE)
 8002d30:	f7fe fcd2 	bl	80016d8 <HAL_GetTick>
 8002d34:	4602      	mov	r2, r0
 8002d36:	687b      	ldr	r3, [r7, #4]
 8002d38:	1ad3      	subs	r3, r2, r3
 8002d3a:	f5b3 7f7a 	cmp.w	r3, #1000	; 0x3e8
 8002d3e:	d901      	bls.n	8002d44 <HAL_PWREx_EnableOverDrive+0x78>
    {
      return HAL_TIMEOUT;
 8002d40:	2303      	movs	r3, #3
 8002d42:	e007      	b.n	8002d54 <HAL_PWREx_EnableOverDrive+0x88>
  while(!__HAL_PWR_GET_FLAG(PWR_FLAG_ODSWRDY))
 8002d44:	4b07      	ldr	r3, [pc, #28]	; (8002d64 <HAL_PWREx_EnableOverDrive+0x98>)
 8002d46:	685b      	ldr	r3, [r3, #4]
 8002d48:	f403 3300 	and.w	r3, r3, #131072	; 0x20000
 8002d4c:	f5b3 3f00 	cmp.w	r3, #131072	; 0x20000
 8002d50:	d1ee      	bne.n	8002d30 <HAL_PWREx_EnableOverDrive+0x64>
    }
  } 
  return HAL_OK;
 8002d52:	2300      	movs	r3, #0
}
 8002d54:	4618      	mov	r0, r3
 8002d56:	3708      	adds	r7, #8
 8002d58:	46bd      	mov	sp, r7
 8002d5a:	bd80      	pop	{r7, pc}
 8002d5c:	40023800 	.word	0x40023800
 8002d60:	420e0040 	.word	0x420e0040
 8002d64:	40007000 	.word	0x40007000
 8002d68:	420e0044 	.word	0x420e0044

08002d6c <HAL_RCC_OscConfig>:
  *         supported by this API. User should request a transition to HSE Off
  *         first and then HSE On or HSE Bypass.
  * @retval HAL status
  */
__weak HAL_StatusTypeDef HAL_RCC_OscConfig(RCC_OscInitTypeDef  *RCC_OscInitStruct)
{
 8002d6c:	b580      	push	{r7, lr}
 8002d6e:	b086      	sub	sp, #24
 8002d70:	af00      	add	r7, sp, #0
 8002d72:	6078      	str	r0, [r7, #4]
  uint32_t tickstart, pll_config;

  /* Check Null pointer */
  if(RCC_OscInitStruct == NULL)
 8002d74:	687b      	ldr	r3, [r7, #4]
 8002d76:	2b00      	cmp	r3, #0
 8002d78:	d101      	bne.n	8002d7e <HAL_RCC_OscConfig+0x12>
  {
    return HAL_ERROR;
 8002d7a:	2301      	movs	r3, #1
 8002d7c:	e267      	b.n	800324e <HAL_RCC_OscConfig+0x4e2>
  }

  /* Check the parameters */
  assert_param(IS_RCC_OSCILLATORTYPE(RCC_OscInitStruct->OscillatorType));
  /*------------------------------- HSE Configuration ------------------------*/
  if(((RCC_OscInitStruct->OscillatorType) & RCC_OSCILLATORTYPE_HSE) == RCC_OSCILLATORTYPE_HSE)
 8002d7e:	687b      	ldr	r3, [r7, #4]
 8002d80:	681b      	ldr	r3, [r3, #0]
 8002d82:	f003 0301 	and.w	r3, r3, #1
 8002d86:	2b00      	cmp	r3, #0
 8002d88:	d075      	beq.n	8002e76 <HAL_RCC_OscConfig+0x10a>
  {
    /* Check the parameters */
    assert_param(IS_RCC_HSE(RCC_OscInitStruct->HSEState));
    /* When the HSE is used as system clock or clock source for PLL in these cases HSE will not disabled */
    if((__HAL_RCC_GET_SYSCLK_SOURCE() == RCC_CFGR_SWS_HSE) ||\
 8002d8a:	4b88      	ldr	r3, [pc, #544]	; (8002fac <HAL_RCC_OscConfig+0x240>)
 8002d8c:	689b      	ldr	r3, [r3, #8]
 8002d8e:	f003 030c 	and.w	r3, r3, #12
 8002d92:	2b04      	cmp	r3, #4
 8002d94:	d00c      	beq.n	8002db0 <HAL_RCC_OscConfig+0x44>
      ((__HAL_RCC_GET_SYSCLK_SOURCE() == RCC_CFGR_SWS_PLL) && ((RCC->PLLCFGR & RCC_PLLCFGR_PLLSRC) == RCC_PLLCFGR_PLLSRC_HSE)))
 8002d96:	4b85      	ldr	r3, [pc, #532]	; (8002fac <HAL_RCC_OscConfig+0x240>)
 8002d98:	689b      	ldr	r3, [r3, #8]
 8002d9a:	f003 030c 	and.w	r3, r3, #12
    if((__HAL_RCC_GET_SYSCLK_SOURCE() == RCC_CFGR_SWS_HSE) ||\
 8002d9e:	2b08      	cmp	r3, #8
 8002da0:	d112      	bne.n	8002dc8 <HAL_RCC_OscConfig+0x5c>
      ((__HAL_RCC_GET_SYSCLK_SOURCE() == RCC_CFGR_SWS_PLL) && ((RCC->PLLCFGR & RCC_PLLCFGR_PLLSRC) == RCC_PLLCFGR_PLLSRC_HSE)))
 8002da2:	4b82      	ldr	r3, [pc, #520]	; (8002fac <HAL_RCC_OscConfig+0x240>)
 8002da4:	685b      	ldr	r3, [r3, #4]
 8002da6:	f403 0380 	and.w	r3, r3, #4194304	; 0x400000
 8002daa:	f5b3 0f80 	cmp.w	r3, #4194304	; 0x400000
 8002dae:	d10b      	bne.n	8002dc8 <HAL_RCC_OscConfig+0x5c>
    {
      if((__HAL_RCC_GET_FLAG(RCC_FLAG_HSERDY) != RESET) && (RCC_OscInitStruct->HSEState == RCC_HSE_OFF))
 8002db0:	4b7e      	ldr	r3, [pc, #504]	; (8002fac <HAL_RCC_OscConfig+0x240>)
 8002db2:	681b      	ldr	r3, [r3, #0]
 8002db4:	f403 3300 	and.w	r3, r3, #131072	; 0x20000
 8002db8:	2b00      	cmp	r3, #0
 8002dba:	d05b      	beq.n	8002e74 <HAL_RCC_OscConfig+0x108>
 8002dbc:	687b      	ldr	r3, [r7, #4]
 8002dbe:	685b      	ldr	r3, [r3, #4]
 8002dc0:	2b00      	cmp	r3, #0
 8002dc2:	d157      	bne.n	8002e74 <HAL_RCC_OscConfig+0x108>
      {
        return HAL_ERROR;
 8002dc4:	2301      	movs	r3, #1
 8002dc6:	e242      	b.n	800324e <HAL_RCC_OscConfig+0x4e2>
      }
    }
    else
    {
      /* Set the new HSE configuration ---------------------------------------*/
      __HAL_RCC_HSE_CONFIG(RCC_OscInitStruct->HSEState);
 8002dc8:	687b      	ldr	r3, [r7, #4]
 8002dca:	685b      	ldr	r3, [r3, #4]
 8002dcc:	f5b3 3f80 	cmp.w	r3, #65536	; 0x10000
 8002dd0:	d106      	bne.n	8002de0 <HAL_RCC_OscConfig+0x74>
 8002dd2:	4b76      	ldr	r3, [pc, #472]	; (8002fac <HAL_RCC_OscConfig+0x240>)
 8002dd4:	681b      	ldr	r3, [r3, #0]
 8002dd6:	4a75      	ldr	r2, [pc, #468]	; (8002fac <HAL_RCC_OscConfig+0x240>)
 8002dd8:	f443 3380 	orr.w	r3, r3, #65536	; 0x10000
 8002ddc:	6013      	str	r3, [r2, #0]
 8002dde:	e01d      	b.n	8002e1c <HAL_RCC_OscConfig+0xb0>
 8002de0:	687b      	ldr	r3, [r7, #4]
 8002de2:	685b      	ldr	r3, [r3, #4]
 8002de4:	f5b3 2fa0 	cmp.w	r3, #327680	; 0x50000
 8002de8:	d10c      	bne.n	8002e04 <HAL_RCC_OscConfig+0x98>
 8002dea:	4b70      	ldr	r3, [pc, #448]	; (8002fac <HAL_RCC_OscConfig+0x240>)
 8002dec:	681b      	ldr	r3, [r3, #0]
 8002dee:	4a6f      	ldr	r2, [pc, #444]	; (8002fac <HAL_RCC_OscConfig+0x240>)
 8002df0:	f443 2380 	orr.w	r3, r3, #262144	; 0x40000
 8002df4:	6013      	str	r3, [r2, #0]
 8002df6:	4b6d      	ldr	r3, [pc, #436]	; (8002fac <HAL_RCC_OscConfig+0x240>)
 8002df8:	681b      	ldr	r3, [r3, #0]
 8002dfa:	4a6c      	ldr	r2, [pc, #432]	; (8002fac <HAL_RCC_OscConfig+0x240>)
 8002dfc:	f443 3380 	orr.w	r3, r3, #65536	; 0x10000
 8002e00:	6013      	str	r3, [r2, #0]
 8002e02:	e00b      	b.n	8002e1c <HAL_RCC_OscConfig+0xb0>
 8002e04:	4b69      	ldr	r3, [pc, #420]	; (8002fac <HAL_RCC_OscConfig+0x240>)
 8002e06:	681b      	ldr	r3, [r3, #0]
 8002e08:	4a68      	ldr	r2, [pc, #416]	; (8002fac <HAL_RCC_OscConfig+0x240>)
 8002e0a:	f423 3380 	bic.w	r3, r3, #65536	; 0x10000
 8002e0e:	6013      	str	r3, [r2, #0]
 8002e10:	4b66      	ldr	r3, [pc, #408]	; (8002fac <HAL_RCC_OscConfig+0x240>)
 8002e12:	681b      	ldr	r3, [r3, #0]
 8002e14:	4a65      	ldr	r2, [pc, #404]	; (8002fac <HAL_RCC_OscConfig+0x240>)
 8002e16:	f423 2380 	bic.w	r3, r3, #262144	; 0x40000
 8002e1a:	6013      	str	r3, [r2, #0]

      /* Check the HSE State */
      if((RCC_OscInitStruct->HSEState) != RCC_HSE_OFF)
 8002e1c:	687b      	ldr	r3, [r7, #4]
 8002e1e:	685b      	ldr	r3, [r3, #4]
 8002e20:	2b00      	cmp	r3, #0
 8002e22:	d013      	beq.n	8002e4c <HAL_RCC_OscConfig+0xe0>
      {
        /* Get Start Tick */
        tickstart = HAL_GetTick();
 8002e24:	f7fe fc58 	bl	80016d8 <HAL_GetTick>
 8002e28:	6138      	str	r0, [r7, #16]

        /* Wait till HSE is ready */
        while(__HAL_RCC_GET_FLAG(RCC_FLAG_HSERDY) == RESET)
 8002e2a:	e008      	b.n	8002e3e <HAL_RCC_OscConfig+0xd2>
        {
          if((HAL_GetTick() - tickstart ) > HSE_TIMEOUT_VALUE)
 8002e2c:	f7fe fc54 	bl	80016d8 <HAL_GetTick>
 8002e30:	4602      	mov	r2, r0
 8002e32:	693b      	ldr	r3, [r7, #16]
 8002e34:	1ad3      	subs	r3, r2, r3
 8002e36:	2b64      	cmp	r3, #100	; 0x64
 8002e38:	d901      	bls.n	8002e3e <HAL_RCC_OscConfig+0xd2>
          {
            return HAL_TIMEOUT;
 8002e3a:	2303      	movs	r3, #3
 8002e3c:	e207      	b.n	800324e <HAL_RCC_OscConfig+0x4e2>
        while(__HAL_RCC_GET_FLAG(RCC_FLAG_HSERDY) == RESET)
 8002e3e:	4b5b      	ldr	r3, [pc, #364]	; (8002fac <HAL_RCC_OscConfig+0x240>)
 8002e40:	681b      	ldr	r3, [r3, #0]
 8002e42:	f403 3300 	and.w	r3, r3, #131072	; 0x20000
 8002e46:	2b00      	cmp	r3, #0
 8002e48:	d0f0      	beq.n	8002e2c <HAL_RCC_OscConfig+0xc0>
 8002e4a:	e014      	b.n	8002e76 <HAL_RCC_OscConfig+0x10a>
        }
      }
      else
      {
        /* Get Start Tick */
        tickstart = HAL_GetTick();
 8002e4c:	f7fe fc44 	bl	80016d8 <HAL_GetTick>
 8002e50:	6138      	str	r0, [r7, #16]

        /* Wait till HSE is bypassed or disabled */
        while(__HAL_RCC_GET_FLAG(RCC_FLAG_HSERDY) != RESET)
 8002e52:	e008      	b.n	8002e66 <HAL_RCC_OscConfig+0xfa>
        {
          if((HAL_GetTick() - tickstart ) > HSE_TIMEOUT_VALUE)
 8002e54:	f7fe fc40 	bl	80016d8 <HAL_GetTick>
 8002e58:	4602      	mov	r2, r0
 8002e5a:	693b      	ldr	r3, [r7, #16]
 8002e5c:	1ad3      	subs	r3, r2, r3
 8002e5e:	2b64      	cmp	r3, #100	; 0x64
 8002e60:	d901      	bls.n	8002e66 <HAL_RCC_OscConfig+0xfa>
          {
            return HAL_TIMEOUT;
 8002e62:	2303      	movs	r3, #3
 8002e64:	e1f3      	b.n	800324e <HAL_RCC_OscConfig+0x4e2>
        while(__HAL_RCC_GET_FLAG(RCC_FLAG_HSERDY) != RESET)
 8002e66:	4b51      	ldr	r3, [pc, #324]	; (8002fac <HAL_RCC_OscConfig+0x240>)
 8002e68:	681b      	ldr	r3, [r3, #0]
 8002e6a:	f403 3300 	and.w	r3, r3, #131072	; 0x20000
 8002e6e:	2b00      	cmp	r3, #0
 8002e70:	d1f0      	bne.n	8002e54 <HAL_RCC_OscConfig+0xe8>
 8002e72:	e000      	b.n	8002e76 <HAL_RCC_OscConfig+0x10a>
      if((__HAL_RCC_GET_FLAG(RCC_FLAG_HSERDY) != RESET) && (RCC_OscInitStruct->HSEState == RCC_HSE_OFF))
 8002e74:	bf00      	nop
        }
      }
    }
  }
  /*----------------------------- HSI Configuration --------------------------*/
  if(((RCC_OscInitStruct->OscillatorType) & RCC_OSCILLATORTYPE_HSI) == RCC_OSCILLATORTYPE_HSI)
 8002e76:	687b      	ldr	r3, [r7, #4]
 8002e78:	681b      	ldr	r3, [r3, #0]
 8002e7a:	f003 0302 	and.w	r3, r3, #2
 8002e7e:	2b00      	cmp	r3, #0
 8002e80:	d063      	beq.n	8002f4a <HAL_RCC_OscConfig+0x1de>
    /* Check the parameters */
    assert_param(IS_RCC_HSI(RCC_OscInitStruct->HSIState));
    assert_param(IS_RCC_CALIBRATION_VALUE(RCC_OscInitStruct->HSICalibrationValue));

    /* Check if HSI is used as system clock or as PLL source when PLL is selected as system clock */
    if((__HAL_RCC_GET_SYSCLK_SOURCE() == RCC_CFGR_SWS_HSI) ||\
 8002e82:	4b4a      	ldr	r3, [pc, #296]	; (8002fac <HAL_RCC_OscConfig+0x240>)
 8002e84:	689b      	ldr	r3, [r3, #8]
 8002e86:	f003 030c 	and.w	r3, r3, #12
 8002e8a:	2b00      	cmp	r3, #0
 8002e8c:	d00b      	beq.n	8002ea6 <HAL_RCC_OscConfig+0x13a>
      ((__HAL_RCC_GET_SYSCLK_SOURCE() == RCC_CFGR_SWS_PLL) && ((RCC->PLLCFGR & RCC_PLLCFGR_PLLSRC) == RCC_PLLCFGR_PLLSRC_HSI)))
 8002e8e:	4b47      	ldr	r3, [pc, #284]	; (8002fac <HAL_RCC_OscConfig+0x240>)
 8002e90:	689b      	ldr	r3, [r3, #8]
 8002e92:	f003 030c 	and.w	r3, r3, #12
    if((__HAL_RCC_GET_SYSCLK_SOURCE() == RCC_CFGR_SWS_HSI) ||\
 8002e96:	2b08      	cmp	r3, #8
 8002e98:	d11c      	bne.n	8002ed4 <HAL_RCC_OscConfig+0x168>
      ((__HAL_RCC_GET_SYSCLK_SOURCE() == RCC_CFGR_SWS_PLL) && ((RCC->PLLCFGR & RCC_PLLCFGR_PLLSRC) == RCC_PLLCFGR_PLLSRC_HSI)))
 8002e9a:	4b44      	ldr	r3, [pc, #272]	; (8002fac <HAL_RCC_OscConfig+0x240>)
 8002e9c:	685b      	ldr	r3, [r3, #4]
 8002e9e:	f403 0380 	and.w	r3, r3, #4194304	; 0x400000
 8002ea2:	2b00      	cmp	r3, #0
 8002ea4:	d116      	bne.n	8002ed4 <HAL_RCC_OscConfig+0x168>
    {
      /* When HSI is used as system clock it will not disabled */
      if((__HAL_RCC_GET_FLAG(RCC_FLAG_HSIRDY) != RESET) && (RCC_OscInitStruct->HSIState != RCC_HSI_ON))
 8002ea6:	4b41      	ldr	r3, [pc, #260]	; (8002fac <HAL_RCC_OscConfig+0x240>)
 8002ea8:	681b      	ldr	r3, [r3, #0]
 8002eaa:	f003 0302 	and.w	r3, r3, #2
 8002eae:	2b00      	cmp	r3, #0
 8002eb0:	d005      	beq.n	8002ebe <HAL_RCC_OscConfig+0x152>
 8002eb2:	687b      	ldr	r3, [r7, #4]
 8002eb4:	68db      	ldr	r3, [r3, #12]
 8002eb6:	2b01      	cmp	r3, #1
 8002eb8:	d001      	beq.n	8002ebe <HAL_RCC_OscConfig+0x152>
      {
        return HAL_ERROR;
 8002eba:	2301      	movs	r3, #1
 8002ebc:	e1c7      	b.n	800324e <HAL_RCC_OscConfig+0x4e2>
      }
      /* Otherwise, just the calibration is allowed */
      else
      {
        /* Adjusts the Internal High Speed oscillator (HSI) calibration value.*/
        __HAL_RCC_HSI_CALIBRATIONVALUE_ADJUST(RCC_OscInitStruct->HSICalibrationValue);
 8002ebe:	4b3b      	ldr	r3, [pc, #236]	; (8002fac <HAL_RCC_OscConfig+0x240>)
 8002ec0:	681b      	ldr	r3, [r3, #0]
 8002ec2:	f023 02f8 	bic.w	r2, r3, #248	; 0xf8
 8002ec6:	687b      	ldr	r3, [r7, #4]
 8002ec8:	691b      	ldr	r3, [r3, #16]
 8002eca:	00db      	lsls	r3, r3, #3
 8002ecc:	4937      	ldr	r1, [pc, #220]	; (8002fac <HAL_RCC_OscConfig+0x240>)
 8002ece:	4313      	orrs	r3, r2
 8002ed0:	600b      	str	r3, [r1, #0]
      if((__HAL_RCC_GET_FLAG(RCC_FLAG_HSIRDY) != RESET) && (RCC_OscInitStruct->HSIState != RCC_HSI_ON))
 8002ed2:	e03a      	b.n	8002f4a <HAL_RCC_OscConfig+0x1de>
      }
    }
    else
    {
      /* Check the HSI State */
      if((RCC_OscInitStruct->HSIState)!= RCC_HSI_OFF)
 8002ed4:	687b      	ldr	r3, [r7, #4]
 8002ed6:	68db      	ldr	r3, [r3, #12]
 8002ed8:	2b00      	cmp	r3, #0
 8002eda:	d020      	beq.n	8002f1e <HAL_RCC_OscConfig+0x1b2>
      {
        /* Enable the Internal High Speed oscillator (HSI). */
        __HAL_RCC_HSI_ENABLE();
 8002edc:	4b34      	ldr	r3, [pc, #208]	; (8002fb0 <HAL_RCC_OscConfig+0x244>)
 8002ede:	2201      	movs	r2, #1
 8002ee0:	601a      	str	r2, [r3, #0]

        /* Get Start Tick*/
        tickstart = HAL_GetTick();
 8002ee2:	f7fe fbf9 	bl	80016d8 <HAL_GetTick>
 8002ee6:	6138      	str	r0, [r7, #16]

        /* Wait till HSI is ready */
        while(__HAL_RCC_GET_FLAG(RCC_FLAG_HSIRDY) == RESET)
 8002ee8:	e008      	b.n	8002efc <HAL_RCC_OscConfig+0x190>
        {
          if((HAL_GetTick() - tickstart ) > HSI_TIMEOUT_VALUE)
 8002eea:	f7fe fbf5 	bl	80016d8 <HAL_GetTick>
 8002eee:	4602      	mov	r2, r0
 8002ef0:	693b      	ldr	r3, [r7, #16]
 8002ef2:	1ad3      	subs	r3, r2, r3
 8002ef4:	2b02      	cmp	r3, #2
 8002ef6:	d901      	bls.n	8002efc <HAL_RCC_OscConfig+0x190>
          {
            return HAL_TIMEOUT;
 8002ef8:	2303      	movs	r3, #3
 8002efa:	e1a8      	b.n	800324e <HAL_RCC_OscConfig+0x4e2>
        while(__HAL_RCC_GET_FLAG(RCC_FLAG_HSIRDY) == RESET)
 8002efc:	4b2b      	ldr	r3, [pc, #172]	; (8002fac <HAL_RCC_OscConfig+0x240>)
 8002efe:	681b      	ldr	r3, [r3, #0]
 8002f00:	f003 0302 	and.w	r3, r3, #2
 8002f04:	2b00      	cmp	r3, #0
 8002f06:	d0f0      	beq.n	8002eea <HAL_RCC_OscConfig+0x17e>
          }
        }

        /* Adjusts the Internal High Speed oscillator (HSI) calibration value. */
        __HAL_RCC_HSI_CALIBRATIONVALUE_ADJUST(RCC_OscInitStruct->HSICalibrationValue);
 8002f08:	4b28      	ldr	r3, [pc, #160]	; (8002fac <HAL_RCC_OscConfig+0x240>)
 8002f0a:	681b      	ldr	r3, [r3, #0]
 8002f0c:	f023 02f8 	bic.w	r2, r3, #248	; 0xf8
 8002f10:	687b      	ldr	r3, [r7, #4]
 8002f12:	691b      	ldr	r3, [r3, #16]
 8002f14:	00db      	lsls	r3, r3, #3
 8002f16:	4925      	ldr	r1, [pc, #148]	; (8002fac <HAL_RCC_OscConfig+0x240>)
 8002f18:	4313      	orrs	r3, r2
 8002f1a:	600b      	str	r3, [r1, #0]
 8002f1c:	e015      	b.n	8002f4a <HAL_RCC_OscConfig+0x1de>
      }
      else
      {
        /* Disable the Internal High Speed oscillator (HSI). */
        __HAL_RCC_HSI_DISABLE();
 8002f1e:	4b24      	ldr	r3, [pc, #144]	; (8002fb0 <HAL_RCC_OscConfig+0x244>)
 8002f20:	2200      	movs	r2, #0
 8002f22:	601a      	str	r2, [r3, #0]

        /* Get Start Tick*/
        tickstart = HAL_GetTick();
 8002f24:	f7fe fbd8 	bl	80016d8 <HAL_GetTick>
 8002f28:	6138      	str	r0, [r7, #16]

        /* Wait till HSI is ready */
        while(__HAL_RCC_GET_FLAG(RCC_FLAG_HSIRDY) != RESET)
 8002f2a:	e008      	b.n	8002f3e <HAL_RCC_OscConfig+0x1d2>
        {
          if((HAL_GetTick() - tickstart ) > HSI_TIMEOUT_VALUE)
 8002f2c:	f7fe fbd4 	bl	80016d8 <HAL_GetTick>
 8002f30:	4602      	mov	r2, r0
 8002f32:	693b      	ldr	r3, [r7, #16]
 8002f34:	1ad3      	subs	r3, r2, r3
 8002f36:	2b02      	cmp	r3, #2
 8002f38:	d901      	bls.n	8002f3e <HAL_RCC_OscConfig+0x1d2>
          {
            return HAL_TIMEOUT;
 8002f3a:	2303      	movs	r3, #3
 8002f3c:	e187      	b.n	800324e <HAL_RCC_OscConfig+0x4e2>
        while(__HAL_RCC_GET_FLAG(RCC_FLAG_HSIRDY) != RESET)
 8002f3e:	4b1b      	ldr	r3, [pc, #108]	; (8002fac <HAL_RCC_OscConfig+0x240>)
 8002f40:	681b      	ldr	r3, [r3, #0]
 8002f42:	f003 0302 	and.w	r3, r3, #2
 8002f46:	2b00      	cmp	r3, #0
 8002f48:	d1f0      	bne.n	8002f2c <HAL_RCC_OscConfig+0x1c0>
        }
      }
    }
  }
  /*------------------------------ LSI Configuration -------------------------*/
  if(((RCC_OscInitStruct->OscillatorType) & RCC_OSCILLATORTYPE_LSI) == RCC_OSCILLATORTYPE_LSI)
 8002f4a:	687b      	ldr	r3, [r7, #4]
 8002f4c:	681b      	ldr	r3, [r3, #0]
 8002f4e:	f003 0308 	and.w	r3, r3, #8
 8002f52:	2b00      	cmp	r3, #0
 8002f54:	d036      	beq.n	8002fc4 <HAL_RCC_OscConfig+0x258>
  {
    /* Check the parameters */
    assert_param(IS_RCC_LSI(RCC_OscInitStruct->LSIState));

    /* Check the LSI State */
    if((RCC_OscInitStruct->LSIState)!= RCC_LSI_OFF)
 8002f56:	687b      	ldr	r3, [r7, #4]
 8002f58:	695b      	ldr	r3, [r3, #20]
 8002f5a:	2b00      	cmp	r3, #0
 8002f5c:	d016      	beq.n	8002f8c <HAL_RCC_OscConfig+0x220>
    {
      /* Enable the Internal Low Speed oscillator (LSI). */
      __HAL_RCC_LSI_ENABLE();
 8002f5e:	4b15      	ldr	r3, [pc, #84]	; (8002fb4 <HAL_RCC_OscConfig+0x248>)
 8002f60:	2201      	movs	r2, #1
 8002f62:	601a      	str	r2, [r3, #0]

      /* Get Start Tick*/
      tickstart = HAL_GetTick();
 8002f64:	f7fe fbb8 	bl	80016d8 <HAL_GetTick>
 8002f68:	6138      	str	r0, [r7, #16]

      /* Wait till LSI is ready */
      while(__HAL_RCC_GET_FLAG(RCC_FLAG_LSIRDY) == RESET)
 8002f6a:	e008      	b.n	8002f7e <HAL_RCC_OscConfig+0x212>
      {
        if((HAL_GetTick() - tickstart ) > LSI_TIMEOUT_VALUE)
 8002f6c:	f7fe fbb4 	bl	80016d8 <HAL_GetTick>
 8002f70:	4602      	mov	r2, r0
 8002f72:	693b      	ldr	r3, [r7, #16]
 8002f74:	1ad3      	subs	r3, r2, r3
 8002f76:	2b02      	cmp	r3, #2
 8002f78:	d901      	bls.n	8002f7e <HAL_RCC_OscConfig+0x212>
        {
          return HAL_TIMEOUT;
 8002f7a:	2303      	movs	r3, #3
 8002f7c:	e167      	b.n	800324e <HAL_RCC_OscConfig+0x4e2>
      while(__HAL_RCC_GET_FLAG(RCC_FLAG_LSIRDY) == RESET)
 8002f7e:	4b0b      	ldr	r3, [pc, #44]	; (8002fac <HAL_RCC_OscConfig+0x240>)
 8002f80:	6f5b      	ldr	r3, [r3, #116]	; 0x74
 8002f82:	f003 0302 	and.w	r3, r3, #2
 8002f86:	2b00      	cmp	r3, #0
 8002f88:	d0f0      	beq.n	8002f6c <HAL_RCC_OscConfig+0x200>
 8002f8a:	e01b      	b.n	8002fc4 <HAL_RCC_OscConfig+0x258>
      }
    }
    else
    {
      /* Disable the Internal Low Speed oscillator (LSI). */
      __HAL_RCC_LSI_DISABLE();
 8002f8c:	4b09      	ldr	r3, [pc, #36]	; (8002fb4 <HAL_RCC_OscConfig+0x248>)
 8002f8e:	2200      	movs	r2, #0
 8002f90:	601a      	str	r2, [r3, #0]

      /* Get Start Tick */
      tickstart = HAL_GetTick();
 8002f92:	f7fe fba1 	bl	80016d8 <HAL_GetTick>
 8002f96:	6138      	str	r0, [r7, #16]

      /* Wait till LSI is ready */
      while(__HAL_RCC_GET_FLAG(RCC_FLAG_LSIRDY) != RESET)
 8002f98:	e00e      	b.n	8002fb8 <HAL_RCC_OscConfig+0x24c>
      {
        if((HAL_GetTick() - tickstart ) > LSI_TIMEOUT_VALUE)
 8002f9a:	f7fe fb9d 	bl	80016d8 <HAL_GetTick>
 8002f9e:	4602      	mov	r2, r0
 8002fa0:	693b      	ldr	r3, [r7, #16]
 8002fa2:	1ad3      	subs	r3, r2, r3
 8002fa4:	2b02      	cmp	r3, #2
 8002fa6:	d907      	bls.n	8002fb8 <HAL_RCC_OscConfig+0x24c>
        {
          return HAL_TIMEOUT;
 8002fa8:	2303      	movs	r3, #3
 8002faa:	e150      	b.n	800324e <HAL_RCC_OscConfig+0x4e2>
 8002fac:	40023800 	.word	0x40023800
 8002fb0:	42470000 	.word	0x42470000
 8002fb4:	42470e80 	.word	0x42470e80
      while(__HAL_RCC_GET_FLAG(RCC_FLAG_LSIRDY) != RESET)
 8002fb8:	4b88      	ldr	r3, [pc, #544]	; (80031dc <HAL_RCC_OscConfig+0x470>)
 8002fba:	6f5b      	ldr	r3, [r3, #116]	; 0x74
 8002fbc:	f003 0302 	and.w	r3, r3, #2
 8002fc0:	2b00      	cmp	r3, #0
 8002fc2:	d1ea      	bne.n	8002f9a <HAL_RCC_OscConfig+0x22e>
        }
      }
    }
  }
  /*------------------------------ LSE Configuration -------------------------*/
  if(((RCC_OscInitStruct->OscillatorType) & RCC_OSCILLATORTYPE_LSE) == RCC_OSCILLATORTYPE_LSE)
 8002fc4:	687b      	ldr	r3, [r7, #4]
 8002fc6:	681b      	ldr	r3, [r3, #0]
 8002fc8:	f003 0304 	and.w	r3, r3, #4
 8002fcc:	2b00      	cmp	r3, #0
 8002fce:	f000 8097 	beq.w	8003100 <HAL_RCC_OscConfig+0x394>
  {
    FlagStatus       pwrclkchanged = RESET;
 8002fd2:	2300      	movs	r3, #0
 8002fd4:	75fb      	strb	r3, [r7, #23]
    /* Check the parameters */
    assert_param(IS_RCC_LSE(RCC_OscInitStruct->LSEState));

    /* Update LSE configuration in Backup Domain control register    */
    /* Requires to enable write access to Backup Domain of necessary */
    if(__HAL_RCC_PWR_IS_CLK_DISABLED())
 8002fd6:	4b81      	ldr	r3, [pc, #516]	; (80031dc <HAL_RCC_OscConfig+0x470>)
 8002fd8:	6c1b      	ldr	r3, [r3, #64]	; 0x40
 8002fda:	f003 5380 	and.w	r3, r3, #268435456	; 0x10000000
 8002fde:	2b00      	cmp	r3, #0
 8002fe0:	d10f      	bne.n	8003002 <HAL_RCC_OscConfig+0x296>
    {
      __HAL_RCC_PWR_CLK_ENABLE();
 8002fe2:	2300      	movs	r3, #0
 8002fe4:	60bb      	str	r3, [r7, #8]
 8002fe6:	4b7d      	ldr	r3, [pc, #500]	; (80031dc <HAL_RCC_OscConfig+0x470>)
 8002fe8:	6c1b      	ldr	r3, [r3, #64]	; 0x40
 8002fea:	4a7c      	ldr	r2, [pc, #496]	; (80031dc <HAL_RCC_OscConfig+0x470>)
 8002fec:	f043 5380 	orr.w	r3, r3, #268435456	; 0x10000000
 8002ff0:	6413      	str	r3, [r2, #64]	; 0x40
 8002ff2:	4b7a      	ldr	r3, [pc, #488]	; (80031dc <HAL_RCC_OscConfig+0x470>)
 8002ff4:	6c1b      	ldr	r3, [r3, #64]	; 0x40
 8002ff6:	f003 5380 	and.w	r3, r3, #268435456	; 0x10000000
 8002ffa:	60bb      	str	r3, [r7, #8]
 8002ffc:	68bb      	ldr	r3, [r7, #8]
      pwrclkchanged = SET;
 8002ffe:	2301      	movs	r3, #1
 8003000:	75fb      	strb	r3, [r7, #23]
    }

    if(HAL_IS_BIT_CLR(PWR->CR, PWR_CR_DBP))
 8003002:	4b77      	ldr	r3, [pc, #476]	; (80031e0 <HAL_RCC_OscConfig+0x474>)
 8003004:	681b      	ldr	r3, [r3, #0]
 8003006:	f403 7380 	and.w	r3, r3, #256	; 0x100
 800300a:	2b00      	cmp	r3, #0
 800300c:	d118      	bne.n	8003040 <HAL_RCC_OscConfig+0x2d4>
    {
      /* Enable write access to Backup domain */
      SET_BIT(PWR->CR, PWR_CR_DBP);
 800300e:	4b74      	ldr	r3, [pc, #464]	; (80031e0 <HAL_RCC_OscConfig+0x474>)
 8003010:	681b      	ldr	r3, [r3, #0]
 8003012:	4a73      	ldr	r2, [pc, #460]	; (80031e0 <HAL_RCC_OscConfig+0x474>)
 8003014:	f443 7380 	orr.w	r3, r3, #256	; 0x100
 8003018:	6013      	str	r3, [r2, #0]

      /* Wait for Backup domain Write protection disable */
      tickstart = HAL_GetTick();
 800301a:	f7fe fb5d 	bl	80016d8 <HAL_GetTick>
 800301e:	6138      	str	r0, [r7, #16]

      while(HAL_IS_BIT_CLR(PWR->CR, PWR_CR_DBP))
 8003020:	e008      	b.n	8003034 <HAL_RCC_OscConfig+0x2c8>
      {
        if((HAL_GetTick() - tickstart) > RCC_DBP_TIMEOUT_VALUE)
 8003022:	f7fe fb59 	bl	80016d8 <HAL_GetTick>
 8003026:	4602      	mov	r2, r0
 8003028:	693b      	ldr	r3, [r7, #16]
 800302a:	1ad3      	subs	r3, r2, r3
 800302c:	2b02      	cmp	r3, #2
 800302e:	d901      	bls.n	8003034 <HAL_RCC_OscConfig+0x2c8>
        {
          return HAL_TIMEOUT;
 8003030:	2303      	movs	r3, #3
 8003032:	e10c      	b.n	800324e <HAL_RCC_OscConfig+0x4e2>
      while(HAL_IS_BIT_CLR(PWR->CR, PWR_CR_DBP))
 8003034:	4b6a      	ldr	r3, [pc, #424]	; (80031e0 <HAL_RCC_OscConfig+0x474>)
 8003036:	681b      	ldr	r3, [r3, #0]
 8003038:	f403 7380 	and.w	r3, r3, #256	; 0x100
 800303c:	2b00      	cmp	r3, #0
 800303e:	d0f0      	beq.n	8003022 <HAL_RCC_OscConfig+0x2b6>
        }
      }
    }

    /* Set the new LSE configuration -----------------------------------------*/
    __HAL_RCC_LSE_CONFIG(RCC_OscInitStruct->LSEState);
 8003040:	687b      	ldr	r3, [r7, #4]
 8003042:	689b      	ldr	r3, [r3, #8]
 8003044:	2b01      	cmp	r3, #1
 8003046:	d106      	bne.n	8003056 <HAL_RCC_OscConfig+0x2ea>
 8003048:	4b64      	ldr	r3, [pc, #400]	; (80031dc <HAL_RCC_OscConfig+0x470>)
 800304a:	6f1b      	ldr	r3, [r3, #112]	; 0x70
 800304c:	4a63      	ldr	r2, [pc, #396]	; (80031dc <HAL_RCC_OscConfig+0x470>)
 800304e:	f043 0301 	orr.w	r3, r3, #1
 8003052:	6713      	str	r3, [r2, #112]	; 0x70
 8003054:	e01c      	b.n	8003090 <HAL_RCC_OscConfig+0x324>
 8003056:	687b      	ldr	r3, [r7, #4]
 8003058:	689b      	ldr	r3, [r3, #8]
 800305a:	2b05      	cmp	r3, #5
 800305c:	d10c      	bne.n	8003078 <HAL_RCC_OscConfig+0x30c>
 800305e:	4b5f      	ldr	r3, [pc, #380]	; (80031dc <HAL_RCC_OscConfig+0x470>)
 8003060:	6f1b      	ldr	r3, [r3, #112]	; 0x70
 8003062:	4a5e      	ldr	r2, [pc, #376]	; (80031dc <HAL_RCC_OscConfig+0x470>)
 8003064:	f043 0304 	orr.w	r3, r3, #4
 8003068:	6713      	str	r3, [r2, #112]	; 0x70
 800306a:	4b5c      	ldr	r3, [pc, #368]	; (80031dc <HAL_RCC_OscConfig+0x470>)
 800306c:	6f1b      	ldr	r3, [r3, #112]	; 0x70
 800306e:	4a5b      	ldr	r2, [pc, #364]	; (80031dc <HAL_RCC_OscConfig+0x470>)
 8003070:	f043 0301 	orr.w	r3, r3, #1
 8003074:	6713      	str	r3, [r2, #112]	; 0x70
 8003076:	e00b      	b.n	8003090 <HAL_RCC_OscConfig+0x324>
 8003078:	4b58      	ldr	r3, [pc, #352]	; (80031dc <HAL_RCC_OscConfig+0x470>)
 800307a:	6f1b      	ldr	r3, [r3, #112]	; 0x70
 800307c:	4a57      	ldr	r2, [pc, #348]	; (80031dc <HAL_RCC_OscConfig+0x470>)
 800307e:	f023 0301 	bic.w	r3, r3, #1
 8003082:	6713      	str	r3, [r2, #112]	; 0x70
 8003084:	4b55      	ldr	r3, [pc, #340]	; (80031dc <HAL_RCC_OscConfig+0x470>)
 8003086:	6f1b      	ldr	r3, [r3, #112]	; 0x70
 8003088:	4a54      	ldr	r2, [pc, #336]	; (80031dc <HAL_RCC_OscConfig+0x470>)
 800308a:	f023 0304 	bic.w	r3, r3, #4
 800308e:	6713      	str	r3, [r2, #112]	; 0x70
    /* Check the LSE State */
    if((RCC_OscInitStruct->LSEState) != RCC_LSE_OFF)
 8003090:	687b      	ldr	r3, [r7, #4]
 8003092:	689b      	ldr	r3, [r3, #8]
 8003094:	2b00      	cmp	r3, #0
 8003096:	d015      	beq.n	80030c4 <HAL_RCC_OscConfig+0x358>
    {
      /* Get Start Tick*/
      tickstart = HAL_GetTick();
 8003098:	f7fe fb1e 	bl	80016d8 <HAL_GetTick>
 800309c:	6138      	str	r0, [r7, #16]

      /* Wait till LSE is ready */
      while(__HAL_RCC_GET_FLAG(RCC_FLAG_LSERDY) == RESET)
 800309e:	e00a      	b.n	80030b6 <HAL_RCC_OscConfig+0x34a>
      {
        if((HAL_GetTick() - tickstart ) > RCC_LSE_TIMEOUT_VALUE)
 80030a0:	f7fe fb1a 	bl	80016d8 <HAL_GetTick>
 80030a4:	4602      	mov	r2, r0
 80030a6:	693b      	ldr	r3, [r7, #16]
 80030a8:	1ad3      	subs	r3, r2, r3
 80030aa:	f241 3288 	movw	r2, #5000	; 0x1388
 80030ae:	4293      	cmp	r3, r2
 80030b0:	d901      	bls.n	80030b6 <HAL_RCC_OscConfig+0x34a>
        {
          return HAL_TIMEOUT;
 80030b2:	2303      	movs	r3, #3
 80030b4:	e0cb      	b.n	800324e <HAL_RCC_OscConfig+0x4e2>
      while(__HAL_RCC_GET_FLAG(RCC_FLAG_LSERDY) == RESET)
 80030b6:	4b49      	ldr	r3, [pc, #292]	; (80031dc <HAL_RCC_OscConfig+0x470>)
 80030b8:	6f1b      	ldr	r3, [r3, #112]	; 0x70
 80030ba:	f003 0302 	and.w	r3, r3, #2
 80030be:	2b00      	cmp	r3, #0
 80030c0:	d0ee      	beq.n	80030a0 <HAL_RCC_OscConfig+0x334>
 80030c2:	e014      	b.n	80030ee <HAL_RCC_OscConfig+0x382>
      }
    }
    else
    {
      /* Get Start Tick */
      tickstart = HAL_GetTick();
 80030c4:	f7fe fb08 	bl	80016d8 <HAL_GetTick>
 80030c8:	6138      	str	r0, [r7, #16]

      /* Wait till LSE is ready */
      while(__HAL_RCC_GET_FLAG(RCC_FLAG_LSERDY) != RESET)
 80030ca:	e00a      	b.n	80030e2 <HAL_RCC_OscConfig+0x376>
      {
        if((HAL_GetTick() - tickstart ) > RCC_LSE_TIMEOUT_VALUE)
 80030cc:	f7fe fb04 	bl	80016d8 <HAL_GetTick>
 80030d0:	4602      	mov	r2, r0
 80030d2:	693b      	ldr	r3, [r7, #16]
 80030d4:	1ad3      	subs	r3, r2, r3
 80030d6:	f241 3288 	movw	r2, #5000	; 0x1388
 80030da:	4293      	cmp	r3, r2
 80030dc:	d901      	bls.n	80030e2 <HAL_RCC_OscConfig+0x376>
        {
          return HAL_TIMEOUT;
 80030de:	2303      	movs	r3, #3
 80030e0:	e0b5      	b.n	800324e <HAL_RCC_OscConfig+0x4e2>
      while(__HAL_RCC_GET_FLAG(RCC_FLAG_LSERDY) != RESET)
 80030e2:	4b3e      	ldr	r3, [pc, #248]	; (80031dc <HAL_RCC_OscConfig+0x470>)
 80030e4:	6f1b      	ldr	r3, [r3, #112]	; 0x70
 80030e6:	f003 0302 	and.w	r3, r3, #2
 80030ea:	2b00      	cmp	r3, #0
 80030ec:	d1ee      	bne.n	80030cc <HAL_RCC_OscConfig+0x360>
        }
      }
    }

    /* Restore clock configuration if changed */
    if(pwrclkchanged == SET)
 80030ee:	7dfb      	ldrb	r3, [r7, #23]
 80030f0:	2b01      	cmp	r3, #1
 80030f2:	d105      	bne.n	8003100 <HAL_RCC_OscConfig+0x394>
    {
      __HAL_RCC_PWR_CLK_DISABLE();
 80030f4:	4b39      	ldr	r3, [pc, #228]	; (80031dc <HAL_RCC_OscConfig+0x470>)
 80030f6:	6c1b      	ldr	r3, [r3, #64]	; 0x40
 80030f8:	4a38      	ldr	r2, [pc, #224]	; (80031dc <HAL_RCC_OscConfig+0x470>)
 80030fa:	f023 5380 	bic.w	r3, r3, #268435456	; 0x10000000
 80030fe:	6413      	str	r3, [r2, #64]	; 0x40
    }
  }
  /*-------------------------------- PLL Configuration -----------------------*/
  /* Check the parameters */
  assert_param(IS_RCC_PLL(RCC_OscInitStruct->PLL.PLLState));
  if ((RCC_OscInitStruct->PLL.PLLState) != RCC_PLL_NONE)
 8003100:	687b      	ldr	r3, [r7, #4]
 8003102:	699b      	ldr	r3, [r3, #24]
 8003104:	2b00      	cmp	r3, #0
 8003106:	f000 80a1 	beq.w	800324c <HAL_RCC_OscConfig+0x4e0>
  {
    /* Check if the PLL is used as system clock or not */
    if(__HAL_RCC_GET_SYSCLK_SOURCE() != RCC_CFGR_SWS_PLL)
 800310a:	4b34      	ldr	r3, [pc, #208]	; (80031dc <HAL_RCC_OscConfig+0x470>)
 800310c:	689b      	ldr	r3, [r3, #8]
 800310e:	f003 030c 	and.w	r3, r3, #12
 8003112:	2b08      	cmp	r3, #8
 8003114:	d05c      	beq.n	80031d0 <HAL_RCC_OscConfig+0x464>
    {
      if((RCC_OscInitStruct->PLL.PLLState) == RCC_PLL_ON)
 8003116:	687b      	ldr	r3, [r7, #4]
 8003118:	699b      	ldr	r3, [r3, #24]
 800311a:	2b02      	cmp	r3, #2
 800311c:	d141      	bne.n	80031a2 <HAL_RCC_OscConfig+0x436>
        assert_param(IS_RCC_PLLN_VALUE(RCC_OscInitStruct->PLL.PLLN));
        assert_param(IS_RCC_PLLP_VALUE(RCC_OscInitStruct->PLL.PLLP));
        assert_param(IS_RCC_PLLQ_VALUE(RCC_OscInitStruct->PLL.PLLQ));

        /* Disable the main PLL. */
        __HAL_RCC_PLL_DISABLE();
 800311e:	4b31      	ldr	r3, [pc, #196]	; (80031e4 <HAL_RCC_OscConfig+0x478>)
 8003120:	2200      	movs	r2, #0
 8003122:	601a      	str	r2, [r3, #0]

        /* Get Start Tick */
        tickstart = HAL_GetTick();
 8003124:	f7fe fad8 	bl	80016d8 <HAL_GetTick>
 8003128:	6138      	str	r0, [r7, #16]

        /* Wait till PLL is ready */
        while(__HAL_RCC_GET_FLAG(RCC_FLAG_PLLRDY) != RESET)
 800312a:	e008      	b.n	800313e <HAL_RCC_OscConfig+0x3d2>
        {
          if((HAL_GetTick() - tickstart ) > PLL_TIMEOUT_VALUE)
 800312c:	f7fe fad4 	bl	80016d8 <HAL_GetTick>
 8003130:	4602      	mov	r2, r0
 8003132:	693b      	ldr	r3, [r7, #16]
 8003134:	1ad3      	subs	r3, r2, r3
 8003136:	2b02      	cmp	r3, #2
 8003138:	d901      	bls.n	800313e <HAL_RCC_OscConfig+0x3d2>
          {
            return HAL_TIMEOUT;
 800313a:	2303      	movs	r3, #3
 800313c:	e087      	b.n	800324e <HAL_RCC_OscConfig+0x4e2>
        while(__HAL_RCC_GET_FLAG(RCC_FLAG_PLLRDY) != RESET)
 800313e:	4b27      	ldr	r3, [pc, #156]	; (80031dc <HAL_RCC_OscConfig+0x470>)
 8003140:	681b      	ldr	r3, [r3, #0]
 8003142:	f003 7300 	and.w	r3, r3, #33554432	; 0x2000000
 8003146:	2b00      	cmp	r3, #0
 8003148:	d1f0      	bne.n	800312c <HAL_RCC_OscConfig+0x3c0>
          }
        }

        /* Configure the main PLL clock source, multiplication and division factors. */
        WRITE_REG(RCC->PLLCFGR, (RCC_OscInitStruct->PLL.PLLSource                                            | \
 800314a:	687b      	ldr	r3, [r7, #4]
 800314c:	69da      	ldr	r2, [r3, #28]
 800314e:	687b      	ldr	r3, [r7, #4]
 8003150:	6a1b      	ldr	r3, [r3, #32]
 8003152:	431a      	orrs	r2, r3
 8003154:	687b      	ldr	r3, [r7, #4]
 8003156:	6a5b      	ldr	r3, [r3, #36]	; 0x24
 8003158:	019b      	lsls	r3, r3, #6
 800315a:	431a      	orrs	r2, r3
 800315c:	687b      	ldr	r3, [r7, #4]
 800315e:	6a9b      	ldr	r3, [r3, #40]	; 0x28
 8003160:	085b      	lsrs	r3, r3, #1
 8003162:	3b01      	subs	r3, #1
 8003164:	041b      	lsls	r3, r3, #16
 8003166:	431a      	orrs	r2, r3
 8003168:	687b      	ldr	r3, [r7, #4]
 800316a:	6adb      	ldr	r3, [r3, #44]	; 0x2c
 800316c:	061b      	lsls	r3, r3, #24
 800316e:	491b      	ldr	r1, [pc, #108]	; (80031dc <HAL_RCC_OscConfig+0x470>)
 8003170:	4313      	orrs	r3, r2
 8003172:	604b      	str	r3, [r1, #4]
                                 RCC_OscInitStruct->PLL.PLLM                                                 | \
                                 (RCC_OscInitStruct->PLL.PLLN << RCC_PLLCFGR_PLLN_Pos)             | \
                                 (((RCC_OscInitStruct->PLL.PLLP >> 1U) - 1U) << RCC_PLLCFGR_PLLP_Pos) | \
                                 (RCC_OscInitStruct->PLL.PLLQ << RCC_PLLCFGR_PLLQ_Pos)));
        /* Enable the main PLL. */
        __HAL_RCC_PLL_ENABLE();
 8003174:	4b1b      	ldr	r3, [pc, #108]	; (80031e4 <HAL_RCC_OscConfig+0x478>)
 8003176:	2201      	movs	r2, #1
 8003178:	601a      	str	r2, [r3, #0]

        /* Get Start Tick */
        tickstart = HAL_GetTick();
 800317a:	f7fe faad 	bl	80016d8 <HAL_GetTick>
 800317e:	6138      	str	r0, [r7, #16]

        /* Wait till PLL is ready */
        while(__HAL_RCC_GET_FLAG(RCC_FLAG_PLLRDY) == RESET)
 8003180:	e008      	b.n	8003194 <HAL_RCC_OscConfig+0x428>
        {
          if((HAL_GetTick() - tickstart ) > PLL_TIMEOUT_VALUE)
 8003182:	f7fe faa9 	bl	80016d8 <HAL_GetTick>
 8003186:	4602      	mov	r2, r0
 8003188:	693b      	ldr	r3, [r7, #16]
 800318a:	1ad3      	subs	r3, r2, r3
 800318c:	2b02      	cmp	r3, #2
 800318e:	d901      	bls.n	8003194 <HAL_RCC_OscConfig+0x428>
          {
            return HAL_TIMEOUT;
 8003190:	2303      	movs	r3, #3
 8003192:	e05c      	b.n	800324e <HAL_RCC_OscConfig+0x4e2>
        while(__HAL_RCC_GET_FLAG(RCC_FLAG_PLLRDY) == RESET)
 8003194:	4b11      	ldr	r3, [pc, #68]	; (80031dc <HAL_RCC_OscConfig+0x470>)
 8003196:	681b      	ldr	r3, [r3, #0]
 8003198:	f003 7300 	and.w	r3, r3, #33554432	; 0x2000000
 800319c:	2b00      	cmp	r3, #0
 800319e:	d0f0      	beq.n	8003182 <HAL_RCC_OscConfig+0x416>
 80031a0:	e054      	b.n	800324c <HAL_RCC_OscConfig+0x4e0>
        }
      }
      else
      {
        /* Disable the main PLL. */
        __HAL_RCC_PLL_DISABLE();
 80031a2:	4b10      	ldr	r3, [pc, #64]	; (80031e4 <HAL_RCC_OscConfig+0x478>)
 80031a4:	2200      	movs	r2, #0
 80031a6:	601a      	str	r2, [r3, #0]

        /* Get Start Tick */
        tickstart = HAL_GetTick();
 80031a8:	f7fe fa96 	bl	80016d8 <HAL_GetTick>
 80031ac:	6138      	str	r0, [r7, #16]

        /* Wait till PLL is ready */
        while(__HAL_RCC_GET_FLAG(RCC_FLAG_PLLRDY) != RESET)
 80031ae:	e008      	b.n	80031c2 <HAL_RCC_OscConfig+0x456>
        {
          if((HAL_GetTick() - tickstart ) > PLL_TIMEOUT_VALUE)
 80031b0:	f7fe fa92 	bl	80016d8 <HAL_GetTick>
 80031b4:	4602      	mov	r2, r0
 80031b6:	693b      	ldr	r3, [r7, #16]
 80031b8:	1ad3      	subs	r3, r2, r3
 80031ba:	2b02      	cmp	r3, #2
 80031bc:	d901      	bls.n	80031c2 <HAL_RCC_OscConfig+0x456>
          {
            return HAL_TIMEOUT;
 80031be:	2303      	movs	r3, #3
 80031c0:	e045      	b.n	800324e <HAL_RCC_OscConfig+0x4e2>
        while(__HAL_RCC_GET_FLAG(RCC_FLAG_PLLRDY) != RESET)
 80031c2:	4b06      	ldr	r3, [pc, #24]	; (80031dc <HAL_RCC_OscConfig+0x470>)
 80031c4:	681b      	ldr	r3, [r3, #0]
 80031c6:	f003 7300 	and.w	r3, r3, #33554432	; 0x2000000
 80031ca:	2b00      	cmp	r3, #0
 80031cc:	d1f0      	bne.n	80031b0 <HAL_RCC_OscConfig+0x444>
 80031ce:	e03d      	b.n	800324c <HAL_RCC_OscConfig+0x4e0>
      }
    }
    else
    {
      /* Check if there is a request to disable the PLL used as System clock source */
      if((RCC_OscInitStruct->PLL.PLLState) == RCC_PLL_OFF)
 80031d0:	687b      	ldr	r3, [r7, #4]
 80031d2:	699b      	ldr	r3, [r3, #24]
 80031d4:	2b01      	cmp	r3, #1
 80031d6:	d107      	bne.n	80031e8 <HAL_RCC_OscConfig+0x47c>
      {
        return HAL_ERROR;
 80031d8:	2301      	movs	r3, #1
 80031da:	e038      	b.n	800324e <HAL_RCC_OscConfig+0x4e2>
 80031dc:	40023800 	.word	0x40023800
 80031e0:	40007000 	.word	0x40007000
 80031e4:	42470060 	.word	0x42470060
      }
      else
      {
        /* Do not return HAL_ERROR if request repeats the current configuration */
        pll_config = RCC->PLLCFGR;
 80031e8:	4b1b      	ldr	r3, [pc, #108]	; (8003258 <HAL_RCC_OscConfig+0x4ec>)
 80031ea:	685b      	ldr	r3, [r3, #4]
 80031ec:	60fb      	str	r3, [r7, #12]
            (READ_BIT(pll_config, RCC_PLLCFGR_PLLN) != (RCC_OscInitStruct->PLL.PLLN) << RCC_PLLCFGR_PLLN_Pos) ||
            (READ_BIT(pll_config, RCC_PLLCFGR_PLLP) != (((RCC_OscInitStruct->PLL.PLLP >> 1U) - 1U)) << RCC_PLLCFGR_PLLP_Pos) ||
            (READ_BIT(pll_config, RCC_PLLCFGR_PLLQ) != (RCC_OscInitStruct->PLL.PLLQ << RCC_PLLCFGR_PLLQ_Pos)) ||
            (READ_BIT(pll_config, RCC_PLLCFGR_PLLR) != (RCC_OscInitStruct->PLL.PLLR << RCC_PLLCFGR_PLLR_Pos)))
#else
        if (((RCC_OscInitStruct->PLL.PLLState) == RCC_PLL_OFF) ||
 80031ee:	687b      	ldr	r3, [r7, #4]
 80031f0:	699b      	ldr	r3, [r3, #24]
 80031f2:	2b01      	cmp	r3, #1
 80031f4:	d028      	beq.n	8003248 <HAL_RCC_OscConfig+0x4dc>
            (READ_BIT(pll_config, RCC_PLLCFGR_PLLSRC) != RCC_OscInitStruct->PLL.PLLSource) ||
 80031f6:	68fb      	ldr	r3, [r7, #12]
 80031f8:	f403 0280 	and.w	r2, r3, #4194304	; 0x400000
 80031fc:	687b      	ldr	r3, [r7, #4]
 80031fe:	69db      	ldr	r3, [r3, #28]
        if (((RCC_OscInitStruct->PLL.PLLState) == RCC_PLL_OFF) ||
 8003200:	429a      	cmp	r2, r3
 8003202:	d121      	bne.n	8003248 <HAL_RCC_OscConfig+0x4dc>
            (READ_BIT(pll_config, RCC_PLLCFGR_PLLM) != (RCC_OscInitStruct->PLL.PLLM) << RCC_PLLCFGR_PLLM_Pos) ||
 8003204:	68fb      	ldr	r3, [r7, #12]
 8003206:	f003 023f 	and.w	r2, r3, #63	; 0x3f
 800320a:	687b      	ldr	r3, [r7, #4]
 800320c:	6a1b      	ldr	r3, [r3, #32]
            (READ_BIT(pll_config, RCC_PLLCFGR_PLLSRC) != RCC_OscInitStruct->PLL.PLLSource) ||
 800320e:	429a      	cmp	r2, r3
 8003210:	d11a      	bne.n	8003248 <HAL_RCC_OscConfig+0x4dc>
            (READ_BIT(pll_config, RCC_PLLCFGR_PLLN) != (RCC_OscInitStruct->PLL.PLLN) << RCC_PLLCFGR_PLLN_Pos) ||
 8003212:	68fa      	ldr	r2, [r7, #12]
 8003214:	f647 73c0 	movw	r3, #32704	; 0x7fc0
 8003218:	4013      	ands	r3, r2
 800321a:	687a      	ldr	r2, [r7, #4]
 800321c:	6a52      	ldr	r2, [r2, #36]	; 0x24
 800321e:	0192      	lsls	r2, r2, #6
            (READ_BIT(pll_config, RCC_PLLCFGR_PLLM) != (RCC_OscInitStruct->PLL.PLLM) << RCC_PLLCFGR_PLLM_Pos) ||
 8003220:	4293      	cmp	r3, r2
 8003222:	d111      	bne.n	8003248 <HAL_RCC_OscConfig+0x4dc>
            (READ_BIT(pll_config, RCC_PLLCFGR_PLLP) != (((RCC_OscInitStruct->PLL.PLLP >> 1U) - 1U)) << RCC_PLLCFGR_PLLP_Pos) ||
 8003224:	68fb      	ldr	r3, [r7, #12]
 8003226:	f403 3240 	and.w	r2, r3, #196608	; 0x30000
 800322a:	687b      	ldr	r3, [r7, #4]
 800322c:	6a9b      	ldr	r3, [r3, #40]	; 0x28
 800322e:	085b      	lsrs	r3, r3, #1
 8003230:	3b01      	subs	r3, #1
 8003232:	041b      	lsls	r3, r3, #16
            (READ_BIT(pll_config, RCC_PLLCFGR_PLLN) != (RCC_OscInitStruct->PLL.PLLN) << RCC_PLLCFGR_PLLN_Pos) ||
 8003234:	429a      	cmp	r2, r3
 8003236:	d107      	bne.n	8003248 <HAL_RCC_OscConfig+0x4dc>
            (READ_BIT(pll_config, RCC_PLLCFGR_PLLQ) != (RCC_OscInitStruct->PLL.PLLQ << RCC_PLLCFGR_PLLQ_Pos)))
 8003238:	68fb      	ldr	r3, [r7, #12]
 800323a:	f003 6270 	and.w	r2, r3, #251658240	; 0xf000000
 800323e:	687b      	ldr	r3, [r7, #4]
 8003240:	6adb      	ldr	r3, [r3, #44]	; 0x2c
 8003242:	061b      	lsls	r3, r3, #24
            (READ_BIT(pll_config, RCC_PLLCFGR_PLLP) != (((RCC_OscInitStruct->PLL.PLLP >> 1U) - 1U)) << RCC_PLLCFGR_PLLP_Pos) ||
 8003244:	429a      	cmp	r2, r3
 8003246:	d001      	beq.n	800324c <HAL_RCC_OscConfig+0x4e0>
#endif
        {
          return HAL_ERROR;
 8003248:	2301      	movs	r3, #1
 800324a:	e000      	b.n	800324e <HAL_RCC_OscConfig+0x4e2>
        }
      }
    }
  }
  return HAL_OK;
 800324c:	2300      	movs	r3, #0
}
 800324e:	4618      	mov	r0, r3
 8003250:	3718      	adds	r7, #24
 8003252:	46bd      	mov	sp, r7
 8003254:	bd80      	pop	{r7, pc}
 8003256:	bf00      	nop
 8003258:	40023800 	.word	0x40023800

0800325c <HAL_RCC_ClockConfig>:
  *         HPRE[3:0] bits to ensure that HCLK not exceed the maximum allowed frequency
  *         (for more details refer to section above "Initialization/de-initialization functions")
  * @retval None
  */
HAL_StatusTypeDef HAL_RCC_ClockConfig(RCC_ClkInitTypeDef  *RCC_ClkInitStruct, uint32_t FLatency)
{
 800325c:	b580      	push	{r7, lr}
 800325e:	b084      	sub	sp, #16
 8003260:	af00      	add	r7, sp, #0
 8003262:	6078      	str	r0, [r7, #4]
 8003264:	6039      	str	r1, [r7, #0]
  uint32_t tickstart;

  /* Check Null pointer */
  if(RCC_ClkInitStruct == NULL)
 8003266:	687b      	ldr	r3, [r7, #4]
 8003268:	2b00      	cmp	r3, #0
 800326a:	d101      	bne.n	8003270 <HAL_RCC_ClockConfig+0x14>
  {
    return HAL_ERROR;
 800326c:	2301      	movs	r3, #1
 800326e:	e0cc      	b.n	800340a <HAL_RCC_ClockConfig+0x1ae>
  /* To correctly read data from FLASH memory, the number of wait states (LATENCY)
    must be correctly programmed according to the frequency of the CPU clock
    (HCLK) and the supply voltage of the device. */

  /* Increasing the number of wait states because of higher CPU frequency */
  if(FLatency > __HAL_FLASH_GET_LATENCY())
 8003270:	4b68      	ldr	r3, [pc, #416]	; (8003414 <HAL_RCC_ClockConfig+0x1b8>)
 8003272:	681b      	ldr	r3, [r3, #0]
 8003274:	f003 030f 	and.w	r3, r3, #15
 8003278:	683a      	ldr	r2, [r7, #0]
 800327a:	429a      	cmp	r2, r3
 800327c:	d90c      	bls.n	8003298 <HAL_RCC_ClockConfig+0x3c>
  {
    /* Program the new number of wait states to the LATENCY bits in the FLASH_ACR register */
    __HAL_FLASH_SET_LATENCY(FLatency);
 800327e:	4b65      	ldr	r3, [pc, #404]	; (8003414 <HAL_RCC_ClockConfig+0x1b8>)
 8003280:	683a      	ldr	r2, [r7, #0]
 8003282:	b2d2      	uxtb	r2, r2
 8003284:	701a      	strb	r2, [r3, #0]

    /* Check that the new number of wait states is taken into account to access the Flash
    memory by reading the FLASH_ACR register */
    if(__HAL_FLASH_GET_LATENCY() != FLatency)
 8003286:	4b63      	ldr	r3, [pc, #396]	; (8003414 <HAL_RCC_ClockConfig+0x1b8>)
 8003288:	681b      	ldr	r3, [r3, #0]
 800328a:	f003 030f 	and.w	r3, r3, #15
 800328e:	683a      	ldr	r2, [r7, #0]
 8003290:	429a      	cmp	r2, r3
 8003292:	d001      	beq.n	8003298 <HAL_RCC_ClockConfig+0x3c>
    {
      return HAL_ERROR;
 8003294:	2301      	movs	r3, #1
 8003296:	e0b8      	b.n	800340a <HAL_RCC_ClockConfig+0x1ae>
    }
  }

  /*-------------------------- HCLK Configuration --------------------------*/
  if(((RCC_ClkInitStruct->ClockType) & RCC_CLOCKTYPE_HCLK) == RCC_CLOCKTYPE_HCLK)
 8003298:	687b      	ldr	r3, [r7, #4]
 800329a:	681b      	ldr	r3, [r3, #0]
 800329c:	f003 0302 	and.w	r3, r3, #2
 80032a0:	2b00      	cmp	r3, #0
 80032a2:	d020      	beq.n	80032e6 <HAL_RCC_ClockConfig+0x8a>
  {
    /* Set the highest APBx dividers in order to ensure that we do not go through
       a non-spec phase whatever we decrease or increase HCLK. */
    if(((RCC_ClkInitStruct->ClockType) & RCC_CLOCKTYPE_PCLK1) == RCC_CLOCKTYPE_PCLK1)
 80032a4:	687b      	ldr	r3, [r7, #4]
 80032a6:	681b      	ldr	r3, [r3, #0]
 80032a8:	f003 0304 	and.w	r3, r3, #4
 80032ac:	2b00      	cmp	r3, #0
 80032ae:	d005      	beq.n	80032bc <HAL_RCC_ClockConfig+0x60>
    {
      MODIFY_REG(RCC->CFGR, RCC_CFGR_PPRE1, RCC_HCLK_DIV16);
 80032b0:	4b59      	ldr	r3, [pc, #356]	; (8003418 <HAL_RCC_ClockConfig+0x1bc>)
 80032b2:	689b      	ldr	r3, [r3, #8]
 80032b4:	4a58      	ldr	r2, [pc, #352]	; (8003418 <HAL_RCC_ClockConfig+0x1bc>)
 80032b6:	f443 53e0 	orr.w	r3, r3, #7168	; 0x1c00
 80032ba:	6093      	str	r3, [r2, #8]
    }

    if(((RCC_ClkInitStruct->ClockType) & RCC_CLOCKTYPE_PCLK2) == RCC_CLOCKTYPE_PCLK2)
 80032bc:	687b      	ldr	r3, [r7, #4]
 80032be:	681b      	ldr	r3, [r3, #0]
 80032c0:	f003 0308 	and.w	r3, r3, #8
 80032c4:	2b00      	cmp	r3, #0
 80032c6:	d005      	beq.n	80032d4 <HAL_RCC_ClockConfig+0x78>
    {
      MODIFY_REG(RCC->CFGR, RCC_CFGR_PPRE2, (RCC_HCLK_DIV16 << 3));
 80032c8:	4b53      	ldr	r3, [pc, #332]	; (8003418 <HAL_RCC_ClockConfig+0x1bc>)
 80032ca:	689b      	ldr	r3, [r3, #8]
 80032cc:	4a52      	ldr	r2, [pc, #328]	; (8003418 <HAL_RCC_ClockConfig+0x1bc>)
 80032ce:	f443 4360 	orr.w	r3, r3, #57344	; 0xe000
 80032d2:	6093      	str	r3, [r2, #8]
    }

    assert_param(IS_RCC_HCLK(RCC_ClkInitStruct->AHBCLKDivider));
    MODIFY_REG(RCC->CFGR, RCC_CFGR_HPRE, RCC_ClkInitStruct->AHBCLKDivider);
 80032d4:	4b50      	ldr	r3, [pc, #320]	; (8003418 <HAL_RCC_ClockConfig+0x1bc>)
 80032d6:	689b      	ldr	r3, [r3, #8]
 80032d8:	f023 02f0 	bic.w	r2, r3, #240	; 0xf0
 80032dc:	687b      	ldr	r3, [r7, #4]
 80032de:	689b      	ldr	r3, [r3, #8]
 80032e0:	494d      	ldr	r1, [pc, #308]	; (8003418 <HAL_RCC_ClockConfig+0x1bc>)
 80032e2:	4313      	orrs	r3, r2
 80032e4:	608b      	str	r3, [r1, #8]
  }

  /*------------------------- SYSCLK Configuration ---------------------------*/
  if(((RCC_ClkInitStruct->ClockType) & RCC_CLOCKTYPE_SYSCLK) == RCC_CLOCKTYPE_SYSCLK)
 80032e6:	687b      	ldr	r3, [r7, #4]
 80032e8:	681b      	ldr	r3, [r3, #0]
 80032ea:	f003 0301 	and.w	r3, r3, #1
 80032ee:	2b00      	cmp	r3, #0
 80032f0:	d044      	beq.n	800337c <HAL_RCC_ClockConfig+0x120>
  {
    assert_param(IS_RCC_SYSCLKSOURCE(RCC_ClkInitStruct->SYSCLKSource));

    /* HSE is selected as System Clock Source */
    if(RCC_ClkInitStruct->SYSCLKSource == RCC_SYSCLKSOURCE_HSE)
 80032f2:	687b      	ldr	r3, [r7, #4]
 80032f4:	685b      	ldr	r3, [r3, #4]
 80032f6:	2b01      	cmp	r3, #1
 80032f8:	d107      	bne.n	800330a <HAL_RCC_ClockConfig+0xae>
    {
      /* Check the HSE ready flag */
      if(__HAL_RCC_GET_FLAG(RCC_FLAG_HSERDY) == RESET)
 80032fa:	4b47      	ldr	r3, [pc, #284]	; (8003418 <HAL_RCC_ClockConfig+0x1bc>)
 80032fc:	681b      	ldr	r3, [r3, #0]
 80032fe:	f403 3300 	and.w	r3, r3, #131072	; 0x20000
 8003302:	2b00      	cmp	r3, #0
 8003304:	d119      	bne.n	800333a <HAL_RCC_ClockConfig+0xde>
      {
        return HAL_ERROR;
 8003306:	2301      	movs	r3, #1
 8003308:	e07f      	b.n	800340a <HAL_RCC_ClockConfig+0x1ae>
      }
    }
    /* PLL is selected as System Clock Source */
    else if((RCC_ClkInitStruct->SYSCLKSource == RCC_SYSCLKSOURCE_PLLCLK)   ||
 800330a:	687b      	ldr	r3, [r7, #4]
 800330c:	685b      	ldr	r3, [r3, #4]
 800330e:	2b02      	cmp	r3, #2
 8003310:	d003      	beq.n	800331a <HAL_RCC_ClockConfig+0xbe>
            (RCC_ClkInitStruct->SYSCLKSource == RCC_SYSCLKSOURCE_PLLRCLK))
 8003312:	687b      	ldr	r3, [r7, #4]
 8003314:	685b      	ldr	r3, [r3, #4]
    else if((RCC_ClkInitStruct->SYSCLKSource == RCC_SYSCLKSOURCE_PLLCLK)   ||
 8003316:	2b03      	cmp	r3, #3
 8003318:	d107      	bne.n	800332a <HAL_RCC_ClockConfig+0xce>
    {
      /* Check the PLL ready flag */
      if(__HAL_RCC_GET_FLAG(RCC_FLAG_PLLRDY) == RESET)
 800331a:	4b3f      	ldr	r3, [pc, #252]	; (8003418 <HAL_RCC_ClockConfig+0x1bc>)
 800331c:	681b      	ldr	r3, [r3, #0]
 800331e:	f003 7300 	and.w	r3, r3, #33554432	; 0x2000000
 8003322:	2b00      	cmp	r3, #0
 8003324:	d109      	bne.n	800333a <HAL_RCC_ClockConfig+0xde>
      {
        return HAL_ERROR;
 8003326:	2301      	movs	r3, #1
 8003328:	e06f      	b.n	800340a <HAL_RCC_ClockConfig+0x1ae>
    }
    /* HSI is selected as System Clock Source */
    else
    {
      /* Check the HSI ready flag */
      if(__HAL_RCC_GET_FLAG(RCC_FLAG_HSIRDY) == RESET)
 800332a:	4b3b      	ldr	r3, [pc, #236]	; (8003418 <HAL_RCC_ClockConfig+0x1bc>)
 800332c:	681b      	ldr	r3, [r3, #0]
 800332e:	f003 0302 	and.w	r3, r3, #2
 8003332:	2b00      	cmp	r3, #0
 8003334:	d101      	bne.n	800333a <HAL_RCC_ClockConfig+0xde>
      {
        return HAL_ERROR;
 8003336:	2301      	movs	r3, #1
 8003338:	e067      	b.n	800340a <HAL_RCC_ClockConfig+0x1ae>
      }
    }

    __HAL_RCC_SYSCLK_CONFIG(RCC_ClkInitStruct->SYSCLKSource);
 800333a:	4b37      	ldr	r3, [pc, #220]	; (8003418 <HAL_RCC_ClockConfig+0x1bc>)
 800333c:	689b      	ldr	r3, [r3, #8]
 800333e:	f023 0203 	bic.w	r2, r3, #3
 8003342:	687b      	ldr	r3, [r7, #4]
 8003344:	685b      	ldr	r3, [r3, #4]
 8003346:	4934      	ldr	r1, [pc, #208]	; (8003418 <HAL_RCC_ClockConfig+0x1bc>)
 8003348:	4313      	orrs	r3, r2
 800334a:	608b      	str	r3, [r1, #8]

    /* Get Start Tick */
    tickstart = HAL_GetTick();
 800334c:	f7fe f9c4 	bl	80016d8 <HAL_GetTick>
 8003350:	60f8      	str	r0, [r7, #12]

    while (__HAL_RCC_GET_SYSCLK_SOURCE() != (RCC_ClkInitStruct->SYSCLKSource << RCC_CFGR_SWS_Pos))
 8003352:	e00a      	b.n	800336a <HAL_RCC_ClockConfig+0x10e>
    {
      if ((HAL_GetTick() - tickstart) > CLOCKSWITCH_TIMEOUT_VALUE)
 8003354:	f7fe f9c0 	bl	80016d8 <HAL_GetTick>
 8003358:	4602      	mov	r2, r0
 800335a:	68fb      	ldr	r3, [r7, #12]
 800335c:	1ad3      	subs	r3, r2, r3
 800335e:	f241 3288 	movw	r2, #5000	; 0x1388
 8003362:	4293      	cmp	r3, r2
 8003364:	d901      	bls.n	800336a <HAL_RCC_ClockConfig+0x10e>
      {
        return HAL_TIMEOUT;
 8003366:	2303      	movs	r3, #3
 8003368:	e04f      	b.n	800340a <HAL_RCC_ClockConfig+0x1ae>
    while (__HAL_RCC_GET_SYSCLK_SOURCE() != (RCC_ClkInitStruct->SYSCLKSource << RCC_CFGR_SWS_Pos))
 800336a:	4b2b      	ldr	r3, [pc, #172]	; (8003418 <HAL_RCC_ClockConfig+0x1bc>)
 800336c:	689b      	ldr	r3, [r3, #8]
 800336e:	f003 020c 	and.w	r2, r3, #12
 8003372:	687b      	ldr	r3, [r7, #4]
 8003374:	685b      	ldr	r3, [r3, #4]
 8003376:	009b      	lsls	r3, r3, #2
 8003378:	429a      	cmp	r2, r3
 800337a:	d1eb      	bne.n	8003354 <HAL_RCC_ClockConfig+0xf8>
      }
    }
  }

  /* Decreasing the number of wait states because of lower CPU frequency */
  if(FLatency < __HAL_FLASH_GET_LATENCY())
 800337c:	4b25      	ldr	r3, [pc, #148]	; (8003414 <HAL_RCC_ClockConfig+0x1b8>)
 800337e:	681b      	ldr	r3, [r3, #0]
 8003380:	f003 030f 	and.w	r3, r3, #15
 8003384:	683a      	ldr	r2, [r7, #0]
 8003386:	429a      	cmp	r2, r3
 8003388:	d20c      	bcs.n	80033a4 <HAL_RCC_ClockConfig+0x148>
  {
     /* Program the new number of wait states to the LATENCY bits in the FLASH_ACR register */
    __HAL_FLASH_SET_LATENCY(FLatency);
 800338a:	4b22      	ldr	r3, [pc, #136]	; (8003414 <HAL_RCC_ClockConfig+0x1b8>)
 800338c:	683a      	ldr	r2, [r7, #0]
 800338e:	b2d2      	uxtb	r2, r2
 8003390:	701a      	strb	r2, [r3, #0]

    /* Check that the new number of wait states is taken into account to access the Flash
    memory by reading the FLASH_ACR register */
    if(__HAL_FLASH_GET_LATENCY() != FLatency)
 8003392:	4b20      	ldr	r3, [pc, #128]	; (8003414 <HAL_RCC_ClockConfig+0x1b8>)
 8003394:	681b      	ldr	r3, [r3, #0]
 8003396:	f003 030f 	and.w	r3, r3, #15
 800339a:	683a      	ldr	r2, [r7, #0]
 800339c:	429a      	cmp	r2, r3
 800339e:	d001      	beq.n	80033a4 <HAL_RCC_ClockConfig+0x148>
    {
      return HAL_ERROR;
 80033a0:	2301      	movs	r3, #1
 80033a2:	e032      	b.n	800340a <HAL_RCC_ClockConfig+0x1ae>
    }
  }

  /*-------------------------- PCLK1 Configuration ---------------------------*/
  if(((RCC_ClkInitStruct->ClockType) & RCC_CLOCKTYPE_PCLK1) == RCC_CLOCKTYPE_PCLK1)
 80033a4:	687b      	ldr	r3, [r7, #4]
 80033a6:	681b      	ldr	r3, [r3, #0]
 80033a8:	f003 0304 	and.w	r3, r3, #4
 80033ac:	2b00      	cmp	r3, #0
 80033ae:	d008      	beq.n	80033c2 <HAL_RCC_ClockConfig+0x166>
  {
    assert_param(IS_RCC_PCLK(RCC_ClkInitStruct->APB1CLKDivider));
    MODIFY_REG(RCC->CFGR, RCC_CFGR_PPRE1, RCC_ClkInitStruct->APB1CLKDivider);
 80033b0:	4b19      	ldr	r3, [pc, #100]	; (8003418 <HAL_RCC_ClockConfig+0x1bc>)
 80033b2:	689b      	ldr	r3, [r3, #8]
 80033b4:	f423 52e0 	bic.w	r2, r3, #7168	; 0x1c00
 80033b8:	687b      	ldr	r3, [r7, #4]
 80033ba:	68db      	ldr	r3, [r3, #12]
 80033bc:	4916      	ldr	r1, [pc, #88]	; (8003418 <HAL_RCC_ClockConfig+0x1bc>)
 80033be:	4313      	orrs	r3, r2
 80033c0:	608b      	str	r3, [r1, #8]
  }

  /*-------------------------- PCLK2 Configuration ---------------------------*/
  if(((RCC_ClkInitStruct->ClockType) & RCC_CLOCKTYPE_PCLK2) == RCC_CLOCKTYPE_PCLK2)
 80033c2:	687b      	ldr	r3, [r7, #4]
 80033c4:	681b      	ldr	r3, [r3, #0]
 80033c6:	f003 0308 	and.w	r3, r3, #8
 80033ca:	2b00      	cmp	r3, #0
 80033cc:	d009      	beq.n	80033e2 <HAL_RCC_ClockConfig+0x186>
  {
    assert_param(IS_RCC_PCLK(RCC_ClkInitStruct->APB2CLKDivider));
    MODIFY_REG(RCC->CFGR, RCC_CFGR_PPRE2, ((RCC_ClkInitStruct->APB2CLKDivider) << 3U));
 80033ce:	4b12      	ldr	r3, [pc, #72]	; (8003418 <HAL_RCC_ClockConfig+0x1bc>)
 80033d0:	689b      	ldr	r3, [r3, #8]
 80033d2:	f423 4260 	bic.w	r2, r3, #57344	; 0xe000
 80033d6:	687b      	ldr	r3, [r7, #4]
 80033d8:	691b      	ldr	r3, [r3, #16]
 80033da:	00db      	lsls	r3, r3, #3
 80033dc:	490e      	ldr	r1, [pc, #56]	; (8003418 <HAL_RCC_ClockConfig+0x1bc>)
 80033de:	4313      	orrs	r3, r2
 80033e0:	608b      	str	r3, [r1, #8]
  }

  /* Update the SystemCoreClock global variable */
  SystemCoreClock = HAL_RCC_GetSysClockFreq() >> AHBPrescTable[(RCC->CFGR & RCC_CFGR_HPRE)>> RCC_CFGR_HPRE_Pos];
 80033e2:	f000 f821 	bl	8003428 <HAL_RCC_GetSysClockFreq>
 80033e6:	4602      	mov	r2, r0
 80033e8:	4b0b      	ldr	r3, [pc, #44]	; (8003418 <HAL_RCC_ClockConfig+0x1bc>)
 80033ea:	689b      	ldr	r3, [r3, #8]
 80033ec:	091b      	lsrs	r3, r3, #4
 80033ee:	f003 030f 	and.w	r3, r3, #15
 80033f2:	490a      	ldr	r1, [pc, #40]	; (800341c <HAL_RCC_ClockConfig+0x1c0>)
 80033f4:	5ccb      	ldrb	r3, [r1, r3]
 80033f6:	fa22 f303 	lsr.w	r3, r2, r3
 80033fa:	4a09      	ldr	r2, [pc, #36]	; (8003420 <HAL_RCC_ClockConfig+0x1c4>)
 80033fc:	6013      	str	r3, [r2, #0]

  /* Configure the source of time base considering new system clocks settings */
  HAL_InitTick (uwTickPrio);
 80033fe:	4b09      	ldr	r3, [pc, #36]	; (8003424 <HAL_RCC_ClockConfig+0x1c8>)
 8003400:	681b      	ldr	r3, [r3, #0]
 8003402:	4618      	mov	r0, r3
 8003404:	f7fe f924 	bl	8001650 <HAL_InitTick>

  return HAL_OK;
 8003408:	2300      	movs	r3, #0
}
 800340a:	4618      	mov	r0, r3
 800340c:	3710      	adds	r7, #16
 800340e:	46bd      	mov	sp, r7
 8003410:	bd80      	pop	{r7, pc}
 8003412:	bf00      	nop
 8003414:	40023c00 	.word	0x40023c00
 8003418:	40023800 	.word	0x40023800
 800341c:	08006c98 	.word	0x08006c98
 8003420:	20000010 	.word	0x20000010
 8003424:	20000014 	.word	0x20000014

08003428 <HAL_RCC_GetSysClockFreq>:
  *
  *
  * @retval SYSCLK frequency
  */
__weak uint32_t HAL_RCC_GetSysClockFreq(void)
{
 8003428:	e92d 4fb0 	stmdb	sp!, {r4, r5, r7, r8, r9, sl, fp, lr}
 800342c:	b094      	sub	sp, #80	; 0x50
 800342e:	af00      	add	r7, sp, #0
  uint32_t pllm = 0U, pllvco = 0U, pllp = 0U;
 8003430:	2300      	movs	r3, #0
 8003432:	647b      	str	r3, [r7, #68]	; 0x44
 8003434:	2300      	movs	r3, #0
 8003436:	64fb      	str	r3, [r7, #76]	; 0x4c
 8003438:	2300      	movs	r3, #0
 800343a:	643b      	str	r3, [r7, #64]	; 0x40
  uint32_t sysclockfreq = 0U;
 800343c:	2300      	movs	r3, #0
 800343e:	64bb      	str	r3, [r7, #72]	; 0x48

  /* Get SYSCLK source -------------------------------------------------------*/
  switch (RCC->CFGR & RCC_CFGR_SWS)
 8003440:	4b79      	ldr	r3, [pc, #484]	; (8003628 <HAL_RCC_GetSysClockFreq+0x200>)
 8003442:	689b      	ldr	r3, [r3, #8]
 8003444:	f003 030c 	and.w	r3, r3, #12
 8003448:	2b08      	cmp	r3, #8
 800344a:	d00d      	beq.n	8003468 <HAL_RCC_GetSysClockFreq+0x40>
 800344c:	2b08      	cmp	r3, #8
 800344e:	f200 80e1 	bhi.w	8003614 <HAL_RCC_GetSysClockFreq+0x1ec>
 8003452:	2b00      	cmp	r3, #0
 8003454:	d002      	beq.n	800345c <HAL_RCC_GetSysClockFreq+0x34>
 8003456:	2b04      	cmp	r3, #4
 8003458:	d003      	beq.n	8003462 <HAL_RCC_GetSysClockFreq+0x3a>
 800345a:	e0db      	b.n	8003614 <HAL_RCC_GetSysClockFreq+0x1ec>
  {
    case RCC_CFGR_SWS_HSI:  /* HSI used as system clock source */
    {
      sysclockfreq = HSI_VALUE;
 800345c:	4b73      	ldr	r3, [pc, #460]	; (800362c <HAL_RCC_GetSysClockFreq+0x204>)
 800345e:	64bb      	str	r3, [r7, #72]	; 0x48
       break;
 8003460:	e0db      	b.n	800361a <HAL_RCC_GetSysClockFreq+0x1f2>
    }
    case RCC_CFGR_SWS_HSE:  /* HSE used as system clock  source */
    {
      sysclockfreq = HSE_VALUE;
 8003462:	4b73      	ldr	r3, [pc, #460]	; (8003630 <HAL_RCC_GetSysClockFreq+0x208>)
 8003464:	64bb      	str	r3, [r7, #72]	; 0x48
      break;
 8003466:	e0d8      	b.n	800361a <HAL_RCC_GetSysClockFreq+0x1f2>
    }
    case RCC_CFGR_SWS_PLL:  /* PLL used as system clock  source */
    {
      /* PLL_VCO = (HSE_VALUE or HSI_VALUE / PLLM) * PLLN
      SYSCLK = PLL_VCO / PLLP */
      pllm = RCC->PLLCFGR & RCC_PLLCFGR_PLLM;
 8003468:	4b6f      	ldr	r3, [pc, #444]	; (8003628 <HAL_RCC_GetSysClockFreq+0x200>)
 800346a:	685b      	ldr	r3, [r3, #4]
 800346c:	f003 033f 	and.w	r3, r3, #63	; 0x3f
 8003470:	647b      	str	r3, [r7, #68]	; 0x44
      if(__HAL_RCC_GET_PLL_OSCSOURCE() != RCC_PLLSOURCE_HSI)
 8003472:	4b6d      	ldr	r3, [pc, #436]	; (8003628 <HAL_RCC_GetSysClockFreq+0x200>)
 8003474:	685b      	ldr	r3, [r3, #4]
 8003476:	f403 0380 	and.w	r3, r3, #4194304	; 0x400000
 800347a:	2b00      	cmp	r3, #0
 800347c:	d063      	beq.n	8003546 <HAL_RCC_GetSysClockFreq+0x11e>
      {
        /* HSE used as PLL clock source */
        pllvco = (uint32_t) ((((uint64_t) HSE_VALUE * ((uint64_t) ((RCC->PLLCFGR & RCC_PLLCFGR_PLLN) >> RCC_PLLCFGR_PLLN_Pos)))) / (uint64_t)pllm);
 800347e:	4b6a      	ldr	r3, [pc, #424]	; (8003628 <HAL_RCC_GetSysClockFreq+0x200>)
 8003480:	685b      	ldr	r3, [r3, #4]
 8003482:	099b      	lsrs	r3, r3, #6
 8003484:	2200      	movs	r2, #0
 8003486:	63bb      	str	r3, [r7, #56]	; 0x38
 8003488:	63fa      	str	r2, [r7, #60]	; 0x3c
 800348a:	6bbb      	ldr	r3, [r7, #56]	; 0x38
 800348c:	f3c3 0308 	ubfx	r3, r3, #0, #9
 8003490:	633b      	str	r3, [r7, #48]	; 0x30
 8003492:	2300      	movs	r3, #0
 8003494:	637b      	str	r3, [r7, #52]	; 0x34
 8003496:	e9d7 450c 	ldrd	r4, r5, [r7, #48]	; 0x30
 800349a:	4622      	mov	r2, r4
 800349c:	462b      	mov	r3, r5
 800349e:	f04f 0000 	mov.w	r0, #0
 80034a2:	f04f 0100 	mov.w	r1, #0
 80034a6:	0159      	lsls	r1, r3, #5
 80034a8:	ea41 61d2 	orr.w	r1, r1, r2, lsr #27
 80034ac:	0150      	lsls	r0, r2, #5
 80034ae:	4602      	mov	r2, r0
 80034b0:	460b      	mov	r3, r1
 80034b2:	4621      	mov	r1, r4
 80034b4:	1a51      	subs	r1, r2, r1
 80034b6:	6139      	str	r1, [r7, #16]
 80034b8:	4629      	mov	r1, r5
 80034ba:	eb63 0301 	sbc.w	r3, r3, r1
 80034be:	617b      	str	r3, [r7, #20]
 80034c0:	f04f 0200 	mov.w	r2, #0
 80034c4:	f04f 0300 	mov.w	r3, #0
 80034c8:	e9d7 ab04 	ldrd	sl, fp, [r7, #16]
 80034cc:	4659      	mov	r1, fp
 80034ce:	018b      	lsls	r3, r1, #6
 80034d0:	4651      	mov	r1, sl
 80034d2:	ea43 6391 	orr.w	r3, r3, r1, lsr #26
 80034d6:	4651      	mov	r1, sl
 80034d8:	018a      	lsls	r2, r1, #6
 80034da:	4651      	mov	r1, sl
 80034dc:	ebb2 0801 	subs.w	r8, r2, r1
 80034e0:	4659      	mov	r1, fp
 80034e2:	eb63 0901 	sbc.w	r9, r3, r1
 80034e6:	f04f 0200 	mov.w	r2, #0
 80034ea:	f04f 0300 	mov.w	r3, #0
 80034ee:	ea4f 03c9 	mov.w	r3, r9, lsl #3
 80034f2:	ea43 7358 	orr.w	r3, r3, r8, lsr #29
 80034f6:	ea4f 02c8 	mov.w	r2, r8, lsl #3
 80034fa:	4690      	mov	r8, r2
 80034fc:	4699      	mov	r9, r3
 80034fe:	4623      	mov	r3, r4
 8003500:	eb18 0303 	adds.w	r3, r8, r3
 8003504:	60bb      	str	r3, [r7, #8]
 8003506:	462b      	mov	r3, r5
 8003508:	eb49 0303 	adc.w	r3, r9, r3
 800350c:	60fb      	str	r3, [r7, #12]
 800350e:	f04f 0200 	mov.w	r2, #0
 8003512:	f04f 0300 	mov.w	r3, #0
 8003516:	e9d7 4502 	ldrd	r4, r5, [r7, #8]
 800351a:	4629      	mov	r1, r5
 800351c:	024b      	lsls	r3, r1, #9
 800351e:	4621      	mov	r1, r4
 8003520:	ea43 53d1 	orr.w	r3, r3, r1, lsr #23
 8003524:	4621      	mov	r1, r4
 8003526:	024a      	lsls	r2, r1, #9
 8003528:	4610      	mov	r0, r2
 800352a:	4619      	mov	r1, r3
 800352c:	6c7b      	ldr	r3, [r7, #68]	; 0x44
 800352e:	2200      	movs	r2, #0
 8003530:	62bb      	str	r3, [r7, #40]	; 0x28
 8003532:	62fa      	str	r2, [r7, #44]	; 0x2c
 8003534:	e9d7 230a 	ldrd	r2, r3, [r7, #40]	; 0x28
 8003538:	f7fd fb46 	bl	8000bc8 <__aeabi_uldivmod>
 800353c:	4602      	mov	r2, r0
 800353e:	460b      	mov	r3, r1
 8003540:	4613      	mov	r3, r2
 8003542:	64fb      	str	r3, [r7, #76]	; 0x4c
 8003544:	e058      	b.n	80035f8 <HAL_RCC_GetSysClockFreq+0x1d0>
      }
      else
      {
        /* HSI used as PLL clock source */
        pllvco = (uint32_t) ((((uint64_t) HSI_VALUE * ((uint64_t) ((RCC->PLLCFGR & RCC_PLLCFGR_PLLN) >> RCC_PLLCFGR_PLLN_Pos)))) / (uint64_t)pllm);
 8003546:	4b38      	ldr	r3, [pc, #224]	; (8003628 <HAL_RCC_GetSysClockFreq+0x200>)
 8003548:	685b      	ldr	r3, [r3, #4]
 800354a:	099b      	lsrs	r3, r3, #6
 800354c:	2200      	movs	r2, #0
 800354e:	4618      	mov	r0, r3
 8003550:	4611      	mov	r1, r2
 8003552:	f3c0 0308 	ubfx	r3, r0, #0, #9
 8003556:	623b      	str	r3, [r7, #32]
 8003558:	2300      	movs	r3, #0
 800355a:	627b      	str	r3, [r7, #36]	; 0x24
 800355c:	e9d7 8908 	ldrd	r8, r9, [r7, #32]
 8003560:	4642      	mov	r2, r8
 8003562:	464b      	mov	r3, r9
 8003564:	f04f 0000 	mov.w	r0, #0
 8003568:	f04f 0100 	mov.w	r1, #0
 800356c:	0159      	lsls	r1, r3, #5
 800356e:	ea41 61d2 	orr.w	r1, r1, r2, lsr #27
 8003572:	0150      	lsls	r0, r2, #5
 8003574:	4602      	mov	r2, r0
 8003576:	460b      	mov	r3, r1
 8003578:	4641      	mov	r1, r8
 800357a:	ebb2 0a01 	subs.w	sl, r2, r1
 800357e:	4649      	mov	r1, r9
 8003580:	eb63 0b01 	sbc.w	fp, r3, r1
 8003584:	f04f 0200 	mov.w	r2, #0
 8003588:	f04f 0300 	mov.w	r3, #0
 800358c:	ea4f 138b 	mov.w	r3, fp, lsl #6
 8003590:	ea43 639a 	orr.w	r3, r3, sl, lsr #26
 8003594:	ea4f 128a 	mov.w	r2, sl, lsl #6
 8003598:	ebb2 040a 	subs.w	r4, r2, sl
 800359c:	eb63 050b 	sbc.w	r5, r3, fp
 80035a0:	f04f 0200 	mov.w	r2, #0
 80035a4:	f04f 0300 	mov.w	r3, #0
 80035a8:	00eb      	lsls	r3, r5, #3
 80035aa:	ea43 7354 	orr.w	r3, r3, r4, lsr #29
 80035ae:	00e2      	lsls	r2, r4, #3
 80035b0:	4614      	mov	r4, r2
 80035b2:	461d      	mov	r5, r3
 80035b4:	4643      	mov	r3, r8
 80035b6:	18e3      	adds	r3, r4, r3
 80035b8:	603b      	str	r3, [r7, #0]
 80035ba:	464b      	mov	r3, r9
 80035bc:	eb45 0303 	adc.w	r3, r5, r3
 80035c0:	607b      	str	r3, [r7, #4]
 80035c2:	f04f 0200 	mov.w	r2, #0
 80035c6:	f04f 0300 	mov.w	r3, #0
 80035ca:	e9d7 4500 	ldrd	r4, r5, [r7]
 80035ce:	4629      	mov	r1, r5
 80035d0:	028b      	lsls	r3, r1, #10
 80035d2:	4621      	mov	r1, r4
 80035d4:	ea43 5391 	orr.w	r3, r3, r1, lsr #22
 80035d8:	4621      	mov	r1, r4
 80035da:	028a      	lsls	r2, r1, #10
 80035dc:	4610      	mov	r0, r2
 80035de:	4619      	mov	r1, r3
 80035e0:	6c7b      	ldr	r3, [r7, #68]	; 0x44
 80035e2:	2200      	movs	r2, #0
 80035e4:	61bb      	str	r3, [r7, #24]
 80035e6:	61fa      	str	r2, [r7, #28]
 80035e8:	e9d7 2306 	ldrd	r2, r3, [r7, #24]
 80035ec:	f7fd faec 	bl	8000bc8 <__aeabi_uldivmod>
 80035f0:	4602      	mov	r2, r0
 80035f2:	460b      	mov	r3, r1
 80035f4:	4613      	mov	r3, r2
 80035f6:	64fb      	str	r3, [r7, #76]	; 0x4c
      }
      pllp = ((((RCC->PLLCFGR & RCC_PLLCFGR_PLLP) >> RCC_PLLCFGR_PLLP_Pos) + 1U) *2U);
 80035f8:	4b0b      	ldr	r3, [pc, #44]	; (8003628 <HAL_RCC_GetSysClockFreq+0x200>)
 80035fa:	685b      	ldr	r3, [r3, #4]
 80035fc:	0c1b      	lsrs	r3, r3, #16
 80035fe:	f003 0303 	and.w	r3, r3, #3
 8003602:	3301      	adds	r3, #1
 8003604:	005b      	lsls	r3, r3, #1
 8003606:	643b      	str	r3, [r7, #64]	; 0x40

      sysclockfreq = pllvco/pllp;
 8003608:	6cfa      	ldr	r2, [r7, #76]	; 0x4c
 800360a:	6c3b      	ldr	r3, [r7, #64]	; 0x40
 800360c:	fbb2 f3f3 	udiv	r3, r2, r3
 8003610:	64bb      	str	r3, [r7, #72]	; 0x48
      break;
 8003612:	e002      	b.n	800361a <HAL_RCC_GetSysClockFreq+0x1f2>
    }
    default:
    {
      sysclockfreq = HSI_VALUE;
 8003614:	4b05      	ldr	r3, [pc, #20]	; (800362c <HAL_RCC_GetSysClockFreq+0x204>)
 8003616:	64bb      	str	r3, [r7, #72]	; 0x48
      break;
 8003618:	bf00      	nop
    }
  }
  return sysclockfreq;
 800361a:	6cbb      	ldr	r3, [r7, #72]	; 0x48
}
 800361c:	4618      	mov	r0, r3
 800361e:	3750      	adds	r7, #80	; 0x50
 8003620:	46bd      	mov	sp, r7
 8003622:	e8bd 8fb0 	ldmia.w	sp!, {r4, r5, r7, r8, r9, sl, fp, pc}
 8003626:	bf00      	nop
 8003628:	40023800 	.word	0x40023800
 800362c:	00f42400 	.word	0x00f42400
 8003630:	007a1200 	.word	0x007a1200

08003634 <HAL_RCC_GetHCLKFreq>:
  * @note   The SystemCoreClock CMSIS variable is used to store System Clock Frequency
  *         and updated within this function
  * @retval HCLK frequency
  */
uint32_t HAL_RCC_GetHCLKFreq(void)
{
 8003634:	b480      	push	{r7}
 8003636:	af00      	add	r7, sp, #0
  return SystemCoreClock;
 8003638:	4b03      	ldr	r3, [pc, #12]	; (8003648 <HAL_RCC_GetHCLKFreq+0x14>)
 800363a:	681b      	ldr	r3, [r3, #0]
}
 800363c:	4618      	mov	r0, r3
 800363e:	46bd      	mov	sp, r7
 8003640:	f85d 7b04 	ldr.w	r7, [sp], #4
 8003644:	4770      	bx	lr
 8003646:	bf00      	nop
 8003648:	20000010 	.word	0x20000010

0800364c <HAL_RCC_GetPCLK1Freq>:
  * @note   Each time PCLK1 changes, this function must be called to update the
  *         right PCLK1 value. Otherwise, any configuration based on this function will be incorrect.
  * @retval PCLK1 frequency
  */
uint32_t HAL_RCC_GetPCLK1Freq(void)
{
 800364c:	b580      	push	{r7, lr}
 800364e:	af00      	add	r7, sp, #0
  /* Get HCLK source and Compute PCLK1 frequency ---------------------------*/
  return (HAL_RCC_GetHCLKFreq() >> APBPrescTable[(RCC->CFGR & RCC_CFGR_PPRE1)>> RCC_CFGR_PPRE1_Pos]);
 8003650:	f7ff fff0 	bl	8003634 <HAL_RCC_GetHCLKFreq>
 8003654:	4602      	mov	r2, r0
 8003656:	4b05      	ldr	r3, [pc, #20]	; (800366c <HAL_RCC_GetPCLK1Freq+0x20>)
 8003658:	689b      	ldr	r3, [r3, #8]
 800365a:	0a9b      	lsrs	r3, r3, #10
 800365c:	f003 0307 	and.w	r3, r3, #7
 8003660:	4903      	ldr	r1, [pc, #12]	; (8003670 <HAL_RCC_GetPCLK1Freq+0x24>)
 8003662:	5ccb      	ldrb	r3, [r1, r3]
 8003664:	fa22 f303 	lsr.w	r3, r2, r3
}
 8003668:	4618      	mov	r0, r3
 800366a:	bd80      	pop	{r7, pc}
 800366c:	40023800 	.word	0x40023800
 8003670:	08006ca8 	.word	0x08006ca8

08003674 <HAL_RCC_GetPCLK2Freq>:
  * @note   Each time PCLK2 changes, this function must be called to update the
  *         right PCLK2 value. Otherwise, any configuration based on this function will be incorrect.
  * @retval PCLK2 frequency
  */
uint32_t HAL_RCC_GetPCLK2Freq(void)
{
 8003674:	b580      	push	{r7, lr}
 8003676:	af00      	add	r7, sp, #0
  /* Get HCLK source and Compute PCLK2 frequency ---------------------------*/
  return (HAL_RCC_GetHCLKFreq()>> APBPrescTable[(RCC->CFGR & RCC_CFGR_PPRE2)>> RCC_CFGR_PPRE2_Pos]);
 8003678:	f7ff ffdc 	bl	8003634 <HAL_RCC_GetHCLKFreq>
 800367c:	4602      	mov	r2, r0
 800367e:	4b05      	ldr	r3, [pc, #20]	; (8003694 <HAL_RCC_GetPCLK2Freq+0x20>)
 8003680:	689b      	ldr	r3, [r3, #8]
 8003682:	0b5b      	lsrs	r3, r3, #13
 8003684:	f003 0307 	and.w	r3, r3, #7
 8003688:	4903      	ldr	r1, [pc, #12]	; (8003698 <HAL_RCC_GetPCLK2Freq+0x24>)
 800368a:	5ccb      	ldrb	r3, [r1, r3]
 800368c:	fa22 f303 	lsr.w	r3, r2, r3
}
 8003690:	4618      	mov	r0, r3
 8003692:	bd80      	pop	{r7, pc}
 8003694:	40023800 	.word	0x40023800
 8003698:	08006ca8 	.word	0x08006ca8

0800369c <HAL_UART_Init>:
  * @param  huart  Pointer to a UART_HandleTypeDef structure that contains
  *                the configuration information for the specified UART module.
  * @retval HAL status
  */
HAL_StatusTypeDef HAL_UART_Init(UART_HandleTypeDef *huart)
{
 800369c:	b580      	push	{r7, lr}
 800369e:	b082      	sub	sp, #8
 80036a0:	af00      	add	r7, sp, #0
 80036a2:	6078      	str	r0, [r7, #4]
  /* Check the UART handle allocation */
  if (huart == NULL)
 80036a4:	687b      	ldr	r3, [r7, #4]
 80036a6:	2b00      	cmp	r3, #0
 80036a8:	d101      	bne.n	80036ae <HAL_UART_Init+0x12>
  {
    return HAL_ERROR;
 80036aa:	2301      	movs	r3, #1
 80036ac:	e03f      	b.n	800372e <HAL_UART_Init+0x92>
    assert_param(IS_UART_INSTANCE(huart->Instance));
  }
  assert_param(IS_UART_WORD_LENGTH(huart->Init.WordLength));
  assert_param(IS_UART_OVERSAMPLING(huart->Init.OverSampling));

  if (huart->gState == HAL_UART_STATE_RESET)
 80036ae:	687b      	ldr	r3, [r7, #4]
 80036b0:	f893 303d 	ldrb.w	r3, [r3, #61]	; 0x3d
 80036b4:	b2db      	uxtb	r3, r3
 80036b6:	2b00      	cmp	r3, #0
 80036b8:	d106      	bne.n	80036c8 <HAL_UART_Init+0x2c>
  {
    /* Allocate lock resource and initialize it */
    huart->Lock = HAL_UNLOCKED;
 80036ba:	687b      	ldr	r3, [r7, #4]
 80036bc:	2200      	movs	r2, #0
 80036be:	f883 203c 	strb.w	r2, [r3, #60]	; 0x3c

    /* Init the low level hardware */
    huart->MspInitCallback(huart);
#else
    /* Init the low level hardware : GPIO, CLOCK */
    HAL_UART_MspInit(huart);
 80036c2:	6878      	ldr	r0, [r7, #4]
 80036c4:	f7ff faa8 	bl	8002c18 <HAL_UART_MspInit>
#endif /* (USE_HAL_UART_REGISTER_CALLBACKS) */
  }

  huart->gState = HAL_UART_STATE_BUSY;
 80036c8:	687b      	ldr	r3, [r7, #4]
 80036ca:	2224      	movs	r2, #36	; 0x24
 80036cc:	f883 203d 	strb.w	r2, [r3, #61]	; 0x3d

  /* Disable the peripheral */
  __HAL_UART_DISABLE(huart);
 80036d0:	687b      	ldr	r3, [r7, #4]
 80036d2:	681b      	ldr	r3, [r3, #0]
 80036d4:	68da      	ldr	r2, [r3, #12]
 80036d6:	687b      	ldr	r3, [r7, #4]
 80036d8:	681b      	ldr	r3, [r3, #0]
 80036da:	f422 5200 	bic.w	r2, r2, #8192	; 0x2000
 80036de:	60da      	str	r2, [r3, #12]

  /* Set the UART Communication parameters */
  UART_SetConfig(huart);
 80036e0:	6878      	ldr	r0, [r7, #4]
 80036e2:	f000 f929 	bl	8003938 <UART_SetConfig>

  /* In asynchronous mode, the following bits must be kept cleared:
     - LINEN and CLKEN bits in the USART_CR2 register,
     - SCEN, HDSEL and IREN  bits in the USART_CR3 register.*/
  CLEAR_BIT(huart->Instance->CR2, (USART_CR2_LINEN | USART_CR2_CLKEN));
 80036e6:	687b      	ldr	r3, [r7, #4]
 80036e8:	681b      	ldr	r3, [r3, #0]
 80036ea:	691a      	ldr	r2, [r3, #16]
 80036ec:	687b      	ldr	r3, [r7, #4]
 80036ee:	681b      	ldr	r3, [r3, #0]
 80036f0:	f422 4290 	bic.w	r2, r2, #18432	; 0x4800
 80036f4:	611a      	str	r2, [r3, #16]
  CLEAR_BIT(huart->Instance->CR3, (USART_CR3_SCEN | USART_CR3_HDSEL | USART_CR3_IREN));
 80036f6:	687b      	ldr	r3, [r7, #4]
 80036f8:	681b      	ldr	r3, [r3, #0]
 80036fa:	695a      	ldr	r2, [r3, #20]
 80036fc:	687b      	ldr	r3, [r7, #4]
 80036fe:	681b      	ldr	r3, [r3, #0]
 8003700:	f022 022a 	bic.w	r2, r2, #42	; 0x2a
 8003704:	615a      	str	r2, [r3, #20]

  /* Enable the peripheral */
  __HAL_UART_ENABLE(huart);
 8003706:	687b      	ldr	r3, [r7, #4]
 8003708:	681b      	ldr	r3, [r3, #0]
 800370a:	68da      	ldr	r2, [r3, #12]
 800370c:	687b      	ldr	r3, [r7, #4]
 800370e:	681b      	ldr	r3, [r3, #0]
 8003710:	f442 5200 	orr.w	r2, r2, #8192	; 0x2000
 8003714:	60da      	str	r2, [r3, #12]

  /* Initialize the UART state */
  huart->ErrorCode = HAL_UART_ERROR_NONE;
 8003716:	687b      	ldr	r3, [r7, #4]
 8003718:	2200      	movs	r2, #0
 800371a:	641a      	str	r2, [r3, #64]	; 0x40
  huart->gState = HAL_UART_STATE_READY;
 800371c:	687b      	ldr	r3, [r7, #4]
 800371e:	2220      	movs	r2, #32
 8003720:	f883 203d 	strb.w	r2, [r3, #61]	; 0x3d
  huart->RxState = HAL_UART_STATE_READY;
 8003724:	687b      	ldr	r3, [r7, #4]
 8003726:	2220      	movs	r2, #32
 8003728:	f883 203e 	strb.w	r2, [r3, #62]	; 0x3e

  return HAL_OK;
 800372c:	2300      	movs	r3, #0
}
 800372e:	4618      	mov	r0, r3
 8003730:	3708      	adds	r7, #8
 8003732:	46bd      	mov	sp, r7
 8003734:	bd80      	pop	{r7, pc}

08003736 <HAL_UART_Transmit>:
  * @param  Size  Amount of data elements (u8 or u16) to be sent
  * @param  Timeout Timeout duration
  * @retval HAL status
  */
HAL_StatusTypeDef HAL_UART_Transmit(UART_HandleTypeDef *huart, uint8_t *pData, uint16_t Size, uint32_t Timeout)
{
 8003736:	b580      	push	{r7, lr}
 8003738:	b08a      	sub	sp, #40	; 0x28
 800373a:	af02      	add	r7, sp, #8
 800373c:	60f8      	str	r0, [r7, #12]
 800373e:	60b9      	str	r1, [r7, #8]
 8003740:	603b      	str	r3, [r7, #0]
 8003742:	4613      	mov	r3, r2
 8003744:	80fb      	strh	r3, [r7, #6]
  uint8_t  *pdata8bits;
  uint16_t *pdata16bits;
  uint32_t tickstart = 0U;
 8003746:	2300      	movs	r3, #0
 8003748:	617b      	str	r3, [r7, #20]

  /* Check that a Tx process is not already ongoing */
  if (huart->gState == HAL_UART_STATE_READY)
 800374a:	68fb      	ldr	r3, [r7, #12]
 800374c:	f893 303d 	ldrb.w	r3, [r3, #61]	; 0x3d
 8003750:	b2db      	uxtb	r3, r3
 8003752:	2b20      	cmp	r3, #32
 8003754:	d17c      	bne.n	8003850 <HAL_UART_Transmit+0x11a>
  {
    if ((pData == NULL) || (Size == 0U))
 8003756:	68bb      	ldr	r3, [r7, #8]
 8003758:	2b00      	cmp	r3, #0
 800375a:	d002      	beq.n	8003762 <HAL_UART_Transmit+0x2c>
 800375c:	88fb      	ldrh	r3, [r7, #6]
 800375e:	2b00      	cmp	r3, #0
 8003760:	d101      	bne.n	8003766 <HAL_UART_Transmit+0x30>
    {
      return  HAL_ERROR;
 8003762:	2301      	movs	r3, #1
 8003764:	e075      	b.n	8003852 <HAL_UART_Transmit+0x11c>
    }

    /* Process Locked */
    __HAL_LOCK(huart);
 8003766:	68fb      	ldr	r3, [r7, #12]
 8003768:	f893 303c 	ldrb.w	r3, [r3, #60]	; 0x3c
 800376c:	2b01      	cmp	r3, #1
 800376e:	d101      	bne.n	8003774 <HAL_UART_Transmit+0x3e>
 8003770:	2302      	movs	r3, #2
 8003772:	e06e      	b.n	8003852 <HAL_UART_Transmit+0x11c>
 8003774:	68fb      	ldr	r3, [r7, #12]
 8003776:	2201      	movs	r2, #1
 8003778:	f883 203c 	strb.w	r2, [r3, #60]	; 0x3c

    huart->ErrorCode = HAL_UART_ERROR_NONE;
 800377c:	68fb      	ldr	r3, [r7, #12]
 800377e:	2200      	movs	r2, #0
 8003780:	641a      	str	r2, [r3, #64]	; 0x40
    huart->gState = HAL_UART_STATE_BUSY_TX;
 8003782:	68fb      	ldr	r3, [r7, #12]
 8003784:	2221      	movs	r2, #33	; 0x21
 8003786:	f883 203d 	strb.w	r2, [r3, #61]	; 0x3d

    /* Init tickstart for timeout management */
    tickstart = HAL_GetTick();
 800378a:	f7fd ffa5 	bl	80016d8 <HAL_GetTick>
 800378e:	6178      	str	r0, [r7, #20]

    huart->TxXferSize = Size;
 8003790:	68fb      	ldr	r3, [r7, #12]
 8003792:	88fa      	ldrh	r2, [r7, #6]
 8003794:	849a      	strh	r2, [r3, #36]	; 0x24
    huart->TxXferCount = Size;
 8003796:	68fb      	ldr	r3, [r7, #12]
 8003798:	88fa      	ldrh	r2, [r7, #6]
 800379a:	84da      	strh	r2, [r3, #38]	; 0x26

    /* In case of 9bits/No Parity transfer, pData needs to be handled as a uint16_t pointer */
    if ((huart->Init.WordLength == UART_WORDLENGTH_9B) && (huart->Init.Parity == UART_PARITY_NONE))
 800379c:	68fb      	ldr	r3, [r7, #12]
 800379e:	689b      	ldr	r3, [r3, #8]
 80037a0:	f5b3 5f80 	cmp.w	r3, #4096	; 0x1000
 80037a4:	d108      	bne.n	80037b8 <HAL_UART_Transmit+0x82>
 80037a6:	68fb      	ldr	r3, [r7, #12]
 80037a8:	691b      	ldr	r3, [r3, #16]
 80037aa:	2b00      	cmp	r3, #0
 80037ac:	d104      	bne.n	80037b8 <HAL_UART_Transmit+0x82>
    {
      pdata8bits  = NULL;
 80037ae:	2300      	movs	r3, #0
 80037b0:	61fb      	str	r3, [r7, #28]
      pdata16bits = (uint16_t *) pData;
 80037b2:	68bb      	ldr	r3, [r7, #8]
 80037b4:	61bb      	str	r3, [r7, #24]
 80037b6:	e003      	b.n	80037c0 <HAL_UART_Transmit+0x8a>
    }
    else
    {
      pdata8bits  = pData;
 80037b8:	68bb      	ldr	r3, [r7, #8]
 80037ba:	61fb      	str	r3, [r7, #28]
      pdata16bits = NULL;
 80037bc:	2300      	movs	r3, #0
 80037be:	61bb      	str	r3, [r7, #24]
    }

    /* Process Unlocked */
    __HAL_UNLOCK(huart);
 80037c0:	68fb      	ldr	r3, [r7, #12]
 80037c2:	2200      	movs	r2, #0
 80037c4:	f883 203c 	strb.w	r2, [r3, #60]	; 0x3c

    while (huart->TxXferCount > 0U)
 80037c8:	e02a      	b.n	8003820 <HAL_UART_Transmit+0xea>
    {
      if (UART_WaitOnFlagUntilTimeout(huart, UART_FLAG_TXE, RESET, tickstart, Timeout) != HAL_OK)
 80037ca:	683b      	ldr	r3, [r7, #0]
 80037cc:	9300      	str	r3, [sp, #0]
 80037ce:	697b      	ldr	r3, [r7, #20]
 80037d0:	2200      	movs	r2, #0
 80037d2:	2180      	movs	r1, #128	; 0x80
 80037d4:	68f8      	ldr	r0, [r7, #12]
 80037d6:	f000 f840 	bl	800385a <UART_WaitOnFlagUntilTimeout>
 80037da:	4603      	mov	r3, r0
 80037dc:	2b00      	cmp	r3, #0
 80037de:	d001      	beq.n	80037e4 <HAL_UART_Transmit+0xae>
      {
        return HAL_TIMEOUT;
 80037e0:	2303      	movs	r3, #3
 80037e2:	e036      	b.n	8003852 <HAL_UART_Transmit+0x11c>
      }
      if (pdata8bits == NULL)
 80037e4:	69fb      	ldr	r3, [r7, #28]
 80037e6:	2b00      	cmp	r3, #0
 80037e8:	d10b      	bne.n	8003802 <HAL_UART_Transmit+0xcc>
      {
        huart->Instance->DR = (uint16_t)(*pdata16bits & 0x01FFU);
 80037ea:	69bb      	ldr	r3, [r7, #24]
 80037ec:	881b      	ldrh	r3, [r3, #0]
 80037ee:	461a      	mov	r2, r3
 80037f0:	68fb      	ldr	r3, [r7, #12]
 80037f2:	681b      	ldr	r3, [r3, #0]
 80037f4:	f3c2 0208 	ubfx	r2, r2, #0, #9
 80037f8:	605a      	str	r2, [r3, #4]
        pdata16bits++;
 80037fa:	69bb      	ldr	r3, [r7, #24]
 80037fc:	3302      	adds	r3, #2
 80037fe:	61bb      	str	r3, [r7, #24]
 8003800:	e007      	b.n	8003812 <HAL_UART_Transmit+0xdc>
      }
      else
      {
        huart->Instance->DR = (uint8_t)(*pdata8bits & 0xFFU);
 8003802:	69fb      	ldr	r3, [r7, #28]
 8003804:	781a      	ldrb	r2, [r3, #0]
 8003806:	68fb      	ldr	r3, [r7, #12]
 8003808:	681b      	ldr	r3, [r3, #0]
 800380a:	605a      	str	r2, [r3, #4]
        pdata8bits++;
 800380c:	69fb      	ldr	r3, [r7, #28]
 800380e:	3301      	adds	r3, #1
 8003810:	61fb      	str	r3, [r7, #28]
      }
      huart->TxXferCount--;
 8003812:	68fb      	ldr	r3, [r7, #12]
 8003814:	8cdb      	ldrh	r3, [r3, #38]	; 0x26
 8003816:	b29b      	uxth	r3, r3
 8003818:	3b01      	subs	r3, #1
 800381a:	b29a      	uxth	r2, r3
 800381c:	68fb      	ldr	r3, [r7, #12]
 800381e:	84da      	strh	r2, [r3, #38]	; 0x26
    while (huart->TxXferCount > 0U)
 8003820:	68fb      	ldr	r3, [r7, #12]
 8003822:	8cdb      	ldrh	r3, [r3, #38]	; 0x26
 8003824:	b29b      	uxth	r3, r3
 8003826:	2b00      	cmp	r3, #0
 8003828:	d1cf      	bne.n	80037ca <HAL_UART_Transmit+0x94>
    }

    if (UART_WaitOnFlagUntilTimeout(huart, UART_FLAG_TC, RESET, tickstart, Timeout) != HAL_OK)
 800382a:	683b      	ldr	r3, [r7, #0]
 800382c:	9300      	str	r3, [sp, #0]
 800382e:	697b      	ldr	r3, [r7, #20]
 8003830:	2200      	movs	r2, #0
 8003832:	2140      	movs	r1, #64	; 0x40
 8003834:	68f8      	ldr	r0, [r7, #12]
 8003836:	f000 f810 	bl	800385a <UART_WaitOnFlagUntilTimeout>
 800383a:	4603      	mov	r3, r0
 800383c:	2b00      	cmp	r3, #0
 800383e:	d001      	beq.n	8003844 <HAL_UART_Transmit+0x10e>
    {
      return HAL_TIMEOUT;
 8003840:	2303      	movs	r3, #3
 8003842:	e006      	b.n	8003852 <HAL_UART_Transmit+0x11c>
    }

    /* At end of Tx process, restore huart->gState to Ready */
    huart->gState = HAL_UART_STATE_READY;
 8003844:	68fb      	ldr	r3, [r7, #12]
 8003846:	2220      	movs	r2, #32
 8003848:	f883 203d 	strb.w	r2, [r3, #61]	; 0x3d

    return HAL_OK;
 800384c:	2300      	movs	r3, #0
 800384e:	e000      	b.n	8003852 <HAL_UART_Transmit+0x11c>
  }
  else
  {
    return HAL_BUSY;
 8003850:	2302      	movs	r3, #2
  }
}
 8003852:	4618      	mov	r0, r3
 8003854:	3720      	adds	r7, #32
 8003856:	46bd      	mov	sp, r7
 8003858:	bd80      	pop	{r7, pc}

0800385a <UART_WaitOnFlagUntilTimeout>:
  * @param  Timeout Timeout duration
  * @retval HAL status
  */
static HAL_StatusTypeDef UART_WaitOnFlagUntilTimeout(UART_HandleTypeDef *huart, uint32_t Flag, FlagStatus Status,
                                                     uint32_t Tickstart, uint32_t Timeout)
{
 800385a:	b580      	push	{r7, lr}
 800385c:	b090      	sub	sp, #64	; 0x40
 800385e:	af00      	add	r7, sp, #0
 8003860:	60f8      	str	r0, [r7, #12]
 8003862:	60b9      	str	r1, [r7, #8]
 8003864:	603b      	str	r3, [r7, #0]
 8003866:	4613      	mov	r3, r2
 8003868:	71fb      	strb	r3, [r7, #7]
  /* Wait until flag is set */
  while ((__HAL_UART_GET_FLAG(huart, Flag) ? SET : RESET) == Status)
 800386a:	e050      	b.n	800390e <UART_WaitOnFlagUntilTimeout+0xb4>
  {
    /* Check for the Timeout */
    if (Timeout != HAL_MAX_DELAY)
 800386c:	6cbb      	ldr	r3, [r7, #72]	; 0x48
 800386e:	f1b3 3fff 	cmp.w	r3, #4294967295
 8003872:	d04c      	beq.n	800390e <UART_WaitOnFlagUntilTimeout+0xb4>
    {
      if ((Timeout == 0U) || ((HAL_GetTick() - Tickstart) > Timeout))
 8003874:	6cbb      	ldr	r3, [r7, #72]	; 0x48
 8003876:	2b00      	cmp	r3, #0
 8003878:	d007      	beq.n	800388a <UART_WaitOnFlagUntilTimeout+0x30>
 800387a:	f7fd ff2d 	bl	80016d8 <HAL_GetTick>
 800387e:	4602      	mov	r2, r0
 8003880:	683b      	ldr	r3, [r7, #0]
 8003882:	1ad3      	subs	r3, r2, r3
 8003884:	6cba      	ldr	r2, [r7, #72]	; 0x48
 8003886:	429a      	cmp	r2, r3
 8003888:	d241      	bcs.n	800390e <UART_WaitOnFlagUntilTimeout+0xb4>
      {
        /* Disable TXE, RXNE, PE and ERR (Frame error, noise error, overrun error) interrupts for the interrupt process */
        ATOMIC_CLEAR_BIT(huart->Instance->CR1, (USART_CR1_RXNEIE | USART_CR1_PEIE | USART_CR1_TXEIE));
 800388a:	68fb      	ldr	r3, [r7, #12]
 800388c:	681b      	ldr	r3, [r3, #0]
 800388e:	330c      	adds	r3, #12
 8003890:	62bb      	str	r3, [r7, #40]	; 0x28
 */
__STATIC_FORCEINLINE uint32_t __LDREXW(volatile uint32_t *addr)
{
    uint32_t result;

   __ASM volatile ("ldrex %0, %1" : "=r" (result) : "Q" (*addr) );
 8003892:	6abb      	ldr	r3, [r7, #40]	; 0x28
 8003894:	e853 3f00 	ldrex	r3, [r3]
 8003898:	627b      	str	r3, [r7, #36]	; 0x24
   return(result);
 800389a:	6a7b      	ldr	r3, [r7, #36]	; 0x24
 800389c:	f423 73d0 	bic.w	r3, r3, #416	; 0x1a0
 80038a0:	63fb      	str	r3, [r7, #60]	; 0x3c
 80038a2:	68fb      	ldr	r3, [r7, #12]
 80038a4:	681b      	ldr	r3, [r3, #0]
 80038a6:	330c      	adds	r3, #12
 80038a8:	6bfa      	ldr	r2, [r7, #60]	; 0x3c
 80038aa:	637a      	str	r2, [r7, #52]	; 0x34
 80038ac:	633b      	str	r3, [r7, #48]	; 0x30
 */
__STATIC_FORCEINLINE uint32_t __STREXW(uint32_t value, volatile uint32_t *addr)
{
   uint32_t result;

   __ASM volatile ("strex %0, %2, %1" : "=&r" (result), "=Q" (*addr) : "r" (value) );
 80038ae:	6b39      	ldr	r1, [r7, #48]	; 0x30
 80038b0:	6b7a      	ldr	r2, [r7, #52]	; 0x34
 80038b2:	e841 2300 	strex	r3, r2, [r1]
 80038b6:	62fb      	str	r3, [r7, #44]	; 0x2c
   return(result);
 80038b8:	6afb      	ldr	r3, [r7, #44]	; 0x2c
 80038ba:	2b00      	cmp	r3, #0
 80038bc:	d1e5      	bne.n	800388a <UART_WaitOnFlagUntilTimeout+0x30>
        ATOMIC_CLEAR_BIT(huart->Instance->CR3, USART_CR3_EIE);
 80038be:	68fb      	ldr	r3, [r7, #12]
 80038c0:	681b      	ldr	r3, [r3, #0]
 80038c2:	3314      	adds	r3, #20
 80038c4:	617b      	str	r3, [r7, #20]
   __ASM volatile ("ldrex %0, %1" : "=r" (result) : "Q" (*addr) );
 80038c6:	697b      	ldr	r3, [r7, #20]
 80038c8:	e853 3f00 	ldrex	r3, [r3]
 80038cc:	613b      	str	r3, [r7, #16]
   return(result);
 80038ce:	693b      	ldr	r3, [r7, #16]
 80038d0:	f023 0301 	bic.w	r3, r3, #1
 80038d4:	63bb      	str	r3, [r7, #56]	; 0x38
 80038d6:	68fb      	ldr	r3, [r7, #12]
 80038d8:	681b      	ldr	r3, [r3, #0]
 80038da:	3314      	adds	r3, #20
 80038dc:	6bba      	ldr	r2, [r7, #56]	; 0x38
 80038de:	623a      	str	r2, [r7, #32]
 80038e0:	61fb      	str	r3, [r7, #28]
   __ASM volatile ("strex %0, %2, %1" : "=&r" (result), "=Q" (*addr) : "r" (value) );
 80038e2:	69f9      	ldr	r1, [r7, #28]
 80038e4:	6a3a      	ldr	r2, [r7, #32]
 80038e6:	e841 2300 	strex	r3, r2, [r1]
 80038ea:	61bb      	str	r3, [r7, #24]
   return(result);
 80038ec:	69bb      	ldr	r3, [r7, #24]
 80038ee:	2b00      	cmp	r3, #0
 80038f0:	d1e5      	bne.n	80038be <UART_WaitOnFlagUntilTimeout+0x64>

        huart->gState  = HAL_UART_STATE_READY;
 80038f2:	68fb      	ldr	r3, [r7, #12]
 80038f4:	2220      	movs	r2, #32
 80038f6:	f883 203d 	strb.w	r2, [r3, #61]	; 0x3d
        huart->RxState = HAL_UART_STATE_READY;
 80038fa:	68fb      	ldr	r3, [r7, #12]
 80038fc:	2220      	movs	r2, #32
 80038fe:	f883 203e 	strb.w	r2, [r3, #62]	; 0x3e

        /* Process Unlocked */
        __HAL_UNLOCK(huart);
 8003902:	68fb      	ldr	r3, [r7, #12]
 8003904:	2200      	movs	r2, #0
 8003906:	f883 203c 	strb.w	r2, [r3, #60]	; 0x3c

        return HAL_TIMEOUT;
 800390a:	2303      	movs	r3, #3
 800390c:	e00f      	b.n	800392e <UART_WaitOnFlagUntilTimeout+0xd4>
  while ((__HAL_UART_GET_FLAG(huart, Flag) ? SET : RESET) == Status)
 800390e:	68fb      	ldr	r3, [r7, #12]
 8003910:	681b      	ldr	r3, [r3, #0]
 8003912:	681a      	ldr	r2, [r3, #0]
 8003914:	68bb      	ldr	r3, [r7, #8]
 8003916:	4013      	ands	r3, r2
 8003918:	68ba      	ldr	r2, [r7, #8]
 800391a:	429a      	cmp	r2, r3
 800391c:	bf0c      	ite	eq
 800391e:	2301      	moveq	r3, #1
 8003920:	2300      	movne	r3, #0
 8003922:	b2db      	uxtb	r3, r3
 8003924:	461a      	mov	r2, r3
 8003926:	79fb      	ldrb	r3, [r7, #7]
 8003928:	429a      	cmp	r2, r3
 800392a:	d09f      	beq.n	800386c <UART_WaitOnFlagUntilTimeout+0x12>
      }
    }
  }
  return HAL_OK;
 800392c:	2300      	movs	r3, #0
}
 800392e:	4618      	mov	r0, r3
 8003930:	3740      	adds	r7, #64	; 0x40
 8003932:	46bd      	mov	sp, r7
 8003934:	bd80      	pop	{r7, pc}
	...

08003938 <UART_SetConfig>:
  * @param  huart  Pointer to a UART_HandleTypeDef structure that contains
  *                the configuration information for the specified UART module.
  * @retval None
  */
static void UART_SetConfig(UART_HandleTypeDef *huart)
{
 8003938:	e92d 4fb0 	stmdb	sp!, {r4, r5, r7, r8, r9, sl, fp, lr}
 800393c:	b0c0      	sub	sp, #256	; 0x100
 800393e:	af00      	add	r7, sp, #0
 8003940:	f8c7 00f4 	str.w	r0, [r7, #244]	; 0xf4
  assert_param(IS_UART_MODE(huart->Init.Mode));

  /*-------------------------- USART CR2 Configuration -----------------------*/
  /* Configure the UART Stop Bits: Set STOP[13:12] bits
     according to huart->Init.StopBits value */
  MODIFY_REG(huart->Instance->CR2, USART_CR2_STOP, huart->Init.StopBits);
 8003944:	f8d7 30f4 	ldr.w	r3, [r7, #244]	; 0xf4
 8003948:	681b      	ldr	r3, [r3, #0]
 800394a:	691b      	ldr	r3, [r3, #16]
 800394c:	f423 5040 	bic.w	r0, r3, #12288	; 0x3000
 8003950:	f8d7 30f4 	ldr.w	r3, [r7, #244]	; 0xf4
 8003954:	68d9      	ldr	r1, [r3, #12]
 8003956:	f8d7 30f4 	ldr.w	r3, [r7, #244]	; 0xf4
 800395a:	681a      	ldr	r2, [r3, #0]
 800395c:	ea40 0301 	orr.w	r3, r0, r1
 8003960:	6113      	str	r3, [r2, #16]
     Set the M bits according to huart->Init.WordLength value
     Set PCE and PS bits according to huart->Init.Parity value
     Set TE and RE bits according to huart->Init.Mode value
     Set OVER8 bit according to huart->Init.OverSampling value */

  tmpreg = (uint32_t)huart->Init.WordLength | huart->Init.Parity | huart->Init.Mode | huart->Init.OverSampling;
 8003962:	f8d7 30f4 	ldr.w	r3, [r7, #244]	; 0xf4
 8003966:	689a      	ldr	r2, [r3, #8]
 8003968:	f8d7 30f4 	ldr.w	r3, [r7, #244]	; 0xf4
 800396c:	691b      	ldr	r3, [r3, #16]
 800396e:	431a      	orrs	r2, r3
 8003970:	f8d7 30f4 	ldr.w	r3, [r7, #244]	; 0xf4
 8003974:	695b      	ldr	r3, [r3, #20]
 8003976:	431a      	orrs	r2, r3
 8003978:	f8d7 30f4 	ldr.w	r3, [r7, #244]	; 0xf4
 800397c:	69db      	ldr	r3, [r3, #28]
 800397e:	4313      	orrs	r3, r2
 8003980:	f8c7 30f8 	str.w	r3, [r7, #248]	; 0xf8
  MODIFY_REG(huart->Instance->CR1,
 8003984:	f8d7 30f4 	ldr.w	r3, [r7, #244]	; 0xf4
 8003988:	681b      	ldr	r3, [r3, #0]
 800398a:	68db      	ldr	r3, [r3, #12]
 800398c:	f423 4116 	bic.w	r1, r3, #38400	; 0x9600
 8003990:	f021 010c 	bic.w	r1, r1, #12
 8003994:	f8d7 30f4 	ldr.w	r3, [r7, #244]	; 0xf4
 8003998:	681a      	ldr	r2, [r3, #0]
 800399a:	f8d7 30f8 	ldr.w	r3, [r7, #248]	; 0xf8
 800399e:	430b      	orrs	r3, r1
 80039a0:	60d3      	str	r3, [r2, #12]
             (uint32_t)(USART_CR1_M | USART_CR1_PCE | USART_CR1_PS | USART_CR1_TE | USART_CR1_RE | USART_CR1_OVER8),
             tmpreg);

  /*-------------------------- USART CR3 Configuration -----------------------*/
  /* Configure the UART HFC: Set CTSE and RTSE bits according to huart->Init.HwFlowCtl value */
  MODIFY_REG(huart->Instance->CR3, (USART_CR3_RTSE | USART_CR3_CTSE), huart->Init.HwFlowCtl);
 80039a2:	f8d7 30f4 	ldr.w	r3, [r7, #244]	; 0xf4
 80039a6:	681b      	ldr	r3, [r3, #0]
 80039a8:	695b      	ldr	r3, [r3, #20]
 80039aa:	f423 7040 	bic.w	r0, r3, #768	; 0x300
 80039ae:	f8d7 30f4 	ldr.w	r3, [r7, #244]	; 0xf4
 80039b2:	6999      	ldr	r1, [r3, #24]
 80039b4:	f8d7 30f4 	ldr.w	r3, [r7, #244]	; 0xf4
 80039b8:	681a      	ldr	r2, [r3, #0]
 80039ba:	ea40 0301 	orr.w	r3, r0, r1
 80039be:	6153      	str	r3, [r2, #20]
    if ((huart->Instance == USART1) || (huart->Instance == USART6) || (huart->Instance == UART9) || (huart->Instance == UART10))
    {
      pclk = HAL_RCC_GetPCLK2Freq();
    }
#elif defined(USART6)
    if ((huart->Instance == USART1) || (huart->Instance == USART6))
 80039c0:	f8d7 30f4 	ldr.w	r3, [r7, #244]	; 0xf4
 80039c4:	681a      	ldr	r2, [r3, #0]
 80039c6:	4b8f      	ldr	r3, [pc, #572]	; (8003c04 <UART_SetConfig+0x2cc>)
 80039c8:	429a      	cmp	r2, r3
 80039ca:	d005      	beq.n	80039d8 <UART_SetConfig+0xa0>
 80039cc:	f8d7 30f4 	ldr.w	r3, [r7, #244]	; 0xf4
 80039d0:	681a      	ldr	r2, [r3, #0]
 80039d2:	4b8d      	ldr	r3, [pc, #564]	; (8003c08 <UART_SetConfig+0x2d0>)
 80039d4:	429a      	cmp	r2, r3
 80039d6:	d104      	bne.n	80039e2 <UART_SetConfig+0xaa>
    {
      pclk = HAL_RCC_GetPCLK2Freq();
 80039d8:	f7ff fe4c 	bl	8003674 <HAL_RCC_GetPCLK2Freq>
 80039dc:	f8c7 00fc 	str.w	r0, [r7, #252]	; 0xfc
 80039e0:	e003      	b.n	80039ea <UART_SetConfig+0xb2>
      pclk = HAL_RCC_GetPCLK2Freq();
    }
#endif /* USART6 */
    else
    {
      pclk = HAL_RCC_GetPCLK1Freq();
 80039e2:	f7ff fe33 	bl	800364c <HAL_RCC_GetPCLK1Freq>
 80039e6:	f8c7 00fc 	str.w	r0, [r7, #252]	; 0xfc
    }
  /*-------------------------- USART BRR Configuration ---------------------*/
  if (huart->Init.OverSampling == UART_OVERSAMPLING_8)
 80039ea:	f8d7 30f4 	ldr.w	r3, [r7, #244]	; 0xf4
 80039ee:	69db      	ldr	r3, [r3, #28]
 80039f0:	f5b3 4f00 	cmp.w	r3, #32768	; 0x8000
 80039f4:	f040 810c 	bne.w	8003c10 <UART_SetConfig+0x2d8>
  {
    huart->Instance->BRR = UART_BRR_SAMPLING8(pclk, huart->Init.BaudRate);
 80039f8:	f8d7 30fc 	ldr.w	r3, [r7, #252]	; 0xfc
 80039fc:	2200      	movs	r2, #0
 80039fe:	f8c7 30e8 	str.w	r3, [r7, #232]	; 0xe8
 8003a02:	f8c7 20ec 	str.w	r2, [r7, #236]	; 0xec
 8003a06:	e9d7 453a 	ldrd	r4, r5, [r7, #232]	; 0xe8
 8003a0a:	4622      	mov	r2, r4
 8003a0c:	462b      	mov	r3, r5
 8003a0e:	1891      	adds	r1, r2, r2
 8003a10:	65b9      	str	r1, [r7, #88]	; 0x58
 8003a12:	415b      	adcs	r3, r3
 8003a14:	65fb      	str	r3, [r7, #92]	; 0x5c
 8003a16:	e9d7 2316 	ldrd	r2, r3, [r7, #88]	; 0x58
 8003a1a:	4621      	mov	r1, r4
 8003a1c:	eb12 0801 	adds.w	r8, r2, r1
 8003a20:	4629      	mov	r1, r5
 8003a22:	eb43 0901 	adc.w	r9, r3, r1
 8003a26:	f04f 0200 	mov.w	r2, #0
 8003a2a:	f04f 0300 	mov.w	r3, #0
 8003a2e:	ea4f 03c9 	mov.w	r3, r9, lsl #3
 8003a32:	ea43 7358 	orr.w	r3, r3, r8, lsr #29
 8003a36:	ea4f 02c8 	mov.w	r2, r8, lsl #3
 8003a3a:	4690      	mov	r8, r2
 8003a3c:	4699      	mov	r9, r3
 8003a3e:	4623      	mov	r3, r4
 8003a40:	eb18 0303 	adds.w	r3, r8, r3
 8003a44:	f8c7 30e0 	str.w	r3, [r7, #224]	; 0xe0
 8003a48:	462b      	mov	r3, r5
 8003a4a:	eb49 0303 	adc.w	r3, r9, r3
 8003a4e:	f8c7 30e4 	str.w	r3, [r7, #228]	; 0xe4
 8003a52:	f8d7 30f4 	ldr.w	r3, [r7, #244]	; 0xf4
 8003a56:	685b      	ldr	r3, [r3, #4]
 8003a58:	2200      	movs	r2, #0
 8003a5a:	f8c7 30d8 	str.w	r3, [r7, #216]	; 0xd8
 8003a5e:	f8c7 20dc 	str.w	r2, [r7, #220]	; 0xdc
 8003a62:	e9d7 1236 	ldrd	r1, r2, [r7, #216]	; 0xd8
 8003a66:	460b      	mov	r3, r1
 8003a68:	18db      	adds	r3, r3, r3
 8003a6a:	653b      	str	r3, [r7, #80]	; 0x50
 8003a6c:	4613      	mov	r3, r2
 8003a6e:	eb42 0303 	adc.w	r3, r2, r3
 8003a72:	657b      	str	r3, [r7, #84]	; 0x54
 8003a74:	e9d7 2314 	ldrd	r2, r3, [r7, #80]	; 0x50
 8003a78:	e9d7 0138 	ldrd	r0, r1, [r7, #224]	; 0xe0
 8003a7c:	f7fd f8a4 	bl	8000bc8 <__aeabi_uldivmod>
 8003a80:	4602      	mov	r2, r0
 8003a82:	460b      	mov	r3, r1
 8003a84:	4b61      	ldr	r3, [pc, #388]	; (8003c0c <UART_SetConfig+0x2d4>)
 8003a86:	fba3 2302 	umull	r2, r3, r3, r2
 8003a8a:	095b      	lsrs	r3, r3, #5
 8003a8c:	011c      	lsls	r4, r3, #4
 8003a8e:	f8d7 30fc 	ldr.w	r3, [r7, #252]	; 0xfc
 8003a92:	2200      	movs	r2, #0
 8003a94:	f8c7 30d0 	str.w	r3, [r7, #208]	; 0xd0
 8003a98:	f8c7 20d4 	str.w	r2, [r7, #212]	; 0xd4
 8003a9c:	e9d7 8934 	ldrd	r8, r9, [r7, #208]	; 0xd0
 8003aa0:	4642      	mov	r2, r8
 8003aa2:	464b      	mov	r3, r9
 8003aa4:	1891      	adds	r1, r2, r2
 8003aa6:	64b9      	str	r1, [r7, #72]	; 0x48
 8003aa8:	415b      	adcs	r3, r3
 8003aaa:	64fb      	str	r3, [r7, #76]	; 0x4c
 8003aac:	e9d7 2312 	ldrd	r2, r3, [r7, #72]	; 0x48
 8003ab0:	4641      	mov	r1, r8
 8003ab2:	eb12 0a01 	adds.w	sl, r2, r1
 8003ab6:	4649      	mov	r1, r9
 8003ab8:	eb43 0b01 	adc.w	fp, r3, r1
 8003abc:	f04f 0200 	mov.w	r2, #0
 8003ac0:	f04f 0300 	mov.w	r3, #0
 8003ac4:	ea4f 03cb 	mov.w	r3, fp, lsl #3
 8003ac8:	ea43 735a 	orr.w	r3, r3, sl, lsr #29
 8003acc:	ea4f 02ca 	mov.w	r2, sl, lsl #3
 8003ad0:	4692      	mov	sl, r2
 8003ad2:	469b      	mov	fp, r3
 8003ad4:	4643      	mov	r3, r8
 8003ad6:	eb1a 0303 	adds.w	r3, sl, r3
 8003ada:	f8c7 30c8 	str.w	r3, [r7, #200]	; 0xc8
 8003ade:	464b      	mov	r3, r9
 8003ae0:	eb4b 0303 	adc.w	r3, fp, r3
 8003ae4:	f8c7 30cc 	str.w	r3, [r7, #204]	; 0xcc
 8003ae8:	f8d7 30f4 	ldr.w	r3, [r7, #244]	; 0xf4
 8003aec:	685b      	ldr	r3, [r3, #4]
 8003aee:	2200      	movs	r2, #0
 8003af0:	f8c7 30c0 	str.w	r3, [r7, #192]	; 0xc0
 8003af4:	f8c7 20c4 	str.w	r2, [r7, #196]	; 0xc4
 8003af8:	e9d7 1230 	ldrd	r1, r2, [r7, #192]	; 0xc0
 8003afc:	460b      	mov	r3, r1
 8003afe:	18db      	adds	r3, r3, r3
 8003b00:	643b      	str	r3, [r7, #64]	; 0x40
 8003b02:	4613      	mov	r3, r2
 8003b04:	eb42 0303 	adc.w	r3, r2, r3
 8003b08:	647b      	str	r3, [r7, #68]	; 0x44
 8003b0a:	e9d7 2310 	ldrd	r2, r3, [r7, #64]	; 0x40
 8003b0e:	e9d7 0132 	ldrd	r0, r1, [r7, #200]	; 0xc8
 8003b12:	f7fd f859 	bl	8000bc8 <__aeabi_uldivmod>
 8003b16:	4602      	mov	r2, r0
 8003b18:	460b      	mov	r3, r1
 8003b1a:	4611      	mov	r1, r2
 8003b1c:	4b3b      	ldr	r3, [pc, #236]	; (8003c0c <UART_SetConfig+0x2d4>)
 8003b1e:	fba3 2301 	umull	r2, r3, r3, r1
 8003b22:	095b      	lsrs	r3, r3, #5
 8003b24:	2264      	movs	r2, #100	; 0x64
 8003b26:	fb02 f303 	mul.w	r3, r2, r3
 8003b2a:	1acb      	subs	r3, r1, r3
 8003b2c:	00db      	lsls	r3, r3, #3
 8003b2e:	f103 0232 	add.w	r2, r3, #50	; 0x32
 8003b32:	4b36      	ldr	r3, [pc, #216]	; (8003c0c <UART_SetConfig+0x2d4>)
 8003b34:	fba3 2302 	umull	r2, r3, r3, r2
 8003b38:	095b      	lsrs	r3, r3, #5
 8003b3a:	005b      	lsls	r3, r3, #1
 8003b3c:	f403 73f8 	and.w	r3, r3, #496	; 0x1f0
 8003b40:	441c      	add	r4, r3
 8003b42:	f8d7 30fc 	ldr.w	r3, [r7, #252]	; 0xfc
 8003b46:	2200      	movs	r2, #0
 8003b48:	f8c7 30b8 	str.w	r3, [r7, #184]	; 0xb8
 8003b4c:	f8c7 20bc 	str.w	r2, [r7, #188]	; 0xbc
 8003b50:	e9d7 892e 	ldrd	r8, r9, [r7, #184]	; 0xb8
 8003b54:	4642      	mov	r2, r8
 8003b56:	464b      	mov	r3, r9
 8003b58:	1891      	adds	r1, r2, r2
 8003b5a:	63b9      	str	r1, [r7, #56]	; 0x38
 8003b5c:	415b      	adcs	r3, r3
 8003b5e:	63fb      	str	r3, [r7, #60]	; 0x3c
 8003b60:	e9d7 230e 	ldrd	r2, r3, [r7, #56]	; 0x38
 8003b64:	4641      	mov	r1, r8
 8003b66:	1851      	adds	r1, r2, r1
 8003b68:	6339      	str	r1, [r7, #48]	; 0x30
 8003b6a:	4649      	mov	r1, r9
 8003b6c:	414b      	adcs	r3, r1
 8003b6e:	637b      	str	r3, [r7, #52]	; 0x34
 8003b70:	f04f 0200 	mov.w	r2, #0
 8003b74:	f04f 0300 	mov.w	r3, #0
 8003b78:	e9d7 ab0c 	ldrd	sl, fp, [r7, #48]	; 0x30
 8003b7c:	4659      	mov	r1, fp
 8003b7e:	00cb      	lsls	r3, r1, #3
 8003b80:	4651      	mov	r1, sl
 8003b82:	ea43 7351 	orr.w	r3, r3, r1, lsr #29
 8003b86:	4651      	mov	r1, sl
 8003b88:	00ca      	lsls	r2, r1, #3
 8003b8a:	4610      	mov	r0, r2
 8003b8c:	4619      	mov	r1, r3
 8003b8e:	4603      	mov	r3, r0
 8003b90:	4642      	mov	r2, r8
 8003b92:	189b      	adds	r3, r3, r2
 8003b94:	f8c7 30b0 	str.w	r3, [r7, #176]	; 0xb0
 8003b98:	464b      	mov	r3, r9
 8003b9a:	460a      	mov	r2, r1
 8003b9c:	eb42 0303 	adc.w	r3, r2, r3
 8003ba0:	f8c7 30b4 	str.w	r3, [r7, #180]	; 0xb4
 8003ba4:	f8d7 30f4 	ldr.w	r3, [r7, #244]	; 0xf4
 8003ba8:	685b      	ldr	r3, [r3, #4]
 8003baa:	2200      	movs	r2, #0
 8003bac:	f8c7 30a8 	str.w	r3, [r7, #168]	; 0xa8
 8003bb0:	f8c7 20ac 	str.w	r2, [r7, #172]	; 0xac
 8003bb4:	e9d7 122a 	ldrd	r1, r2, [r7, #168]	; 0xa8
 8003bb8:	460b      	mov	r3, r1
 8003bba:	18db      	adds	r3, r3, r3
 8003bbc:	62bb      	str	r3, [r7, #40]	; 0x28
 8003bbe:	4613      	mov	r3, r2
 8003bc0:	eb42 0303 	adc.w	r3, r2, r3
 8003bc4:	62fb      	str	r3, [r7, #44]	; 0x2c
 8003bc6:	e9d7 230a 	ldrd	r2, r3, [r7, #40]	; 0x28
 8003bca:	e9d7 012c 	ldrd	r0, r1, [r7, #176]	; 0xb0
 8003bce:	f7fc fffb 	bl	8000bc8 <__aeabi_uldivmod>
 8003bd2:	4602      	mov	r2, r0
 8003bd4:	460b      	mov	r3, r1
 8003bd6:	4b0d      	ldr	r3, [pc, #52]	; (8003c0c <UART_SetConfig+0x2d4>)
 8003bd8:	fba3 1302 	umull	r1, r3, r3, r2
 8003bdc:	095b      	lsrs	r3, r3, #5
 8003bde:	2164      	movs	r1, #100	; 0x64
 8003be0:	fb01 f303 	mul.w	r3, r1, r3
 8003be4:	1ad3      	subs	r3, r2, r3
 8003be6:	00db      	lsls	r3, r3, #3
 8003be8:	3332      	adds	r3, #50	; 0x32
 8003bea:	4a08      	ldr	r2, [pc, #32]	; (8003c0c <UART_SetConfig+0x2d4>)
 8003bec:	fba2 2303 	umull	r2, r3, r2, r3
 8003bf0:	095b      	lsrs	r3, r3, #5
 8003bf2:	f003 0207 	and.w	r2, r3, #7
 8003bf6:	f8d7 30f4 	ldr.w	r3, [r7, #244]	; 0xf4
 8003bfa:	681b      	ldr	r3, [r3, #0]
 8003bfc:	4422      	add	r2, r4
 8003bfe:	609a      	str	r2, [r3, #8]
  }
  else
  {
    huart->Instance->BRR = UART_BRR_SAMPLING16(pclk, huart->Init.BaudRate);
  }
}
 8003c00:	e105      	b.n	8003e0e <UART_SetConfig+0x4d6>
 8003c02:	bf00      	nop
 8003c04:	40011000 	.word	0x40011000
 8003c08:	40011400 	.word	0x40011400
 8003c0c:	51eb851f 	.word	0x51eb851f
    huart->Instance->BRR = UART_BRR_SAMPLING16(pclk, huart->Init.BaudRate);
 8003c10:	f8d7 30fc 	ldr.w	r3, [r7, #252]	; 0xfc
 8003c14:	2200      	movs	r2, #0
 8003c16:	f8c7 30a0 	str.w	r3, [r7, #160]	; 0xa0
 8003c1a:	f8c7 20a4 	str.w	r2, [r7, #164]	; 0xa4
 8003c1e:	e9d7 8928 	ldrd	r8, r9, [r7, #160]	; 0xa0
 8003c22:	4642      	mov	r2, r8
 8003c24:	464b      	mov	r3, r9
 8003c26:	1891      	adds	r1, r2, r2
 8003c28:	6239      	str	r1, [r7, #32]
 8003c2a:	415b      	adcs	r3, r3
 8003c2c:	627b      	str	r3, [r7, #36]	; 0x24
 8003c2e:	e9d7 2308 	ldrd	r2, r3, [r7, #32]
 8003c32:	4641      	mov	r1, r8
 8003c34:	1854      	adds	r4, r2, r1
 8003c36:	4649      	mov	r1, r9
 8003c38:	eb43 0501 	adc.w	r5, r3, r1
 8003c3c:	f04f 0200 	mov.w	r2, #0
 8003c40:	f04f 0300 	mov.w	r3, #0
 8003c44:	00eb      	lsls	r3, r5, #3
 8003c46:	ea43 7354 	orr.w	r3, r3, r4, lsr #29
 8003c4a:	00e2      	lsls	r2, r4, #3
 8003c4c:	4614      	mov	r4, r2
 8003c4e:	461d      	mov	r5, r3
 8003c50:	4643      	mov	r3, r8
 8003c52:	18e3      	adds	r3, r4, r3
 8003c54:	f8c7 3098 	str.w	r3, [r7, #152]	; 0x98
 8003c58:	464b      	mov	r3, r9
 8003c5a:	eb45 0303 	adc.w	r3, r5, r3
 8003c5e:	f8c7 309c 	str.w	r3, [r7, #156]	; 0x9c
 8003c62:	f8d7 30f4 	ldr.w	r3, [r7, #244]	; 0xf4
 8003c66:	685b      	ldr	r3, [r3, #4]
 8003c68:	2200      	movs	r2, #0
 8003c6a:	f8c7 3090 	str.w	r3, [r7, #144]	; 0x90
 8003c6e:	f8c7 2094 	str.w	r2, [r7, #148]	; 0x94
 8003c72:	f04f 0200 	mov.w	r2, #0
 8003c76:	f04f 0300 	mov.w	r3, #0
 8003c7a:	e9d7 4524 	ldrd	r4, r5, [r7, #144]	; 0x90
 8003c7e:	4629      	mov	r1, r5
 8003c80:	008b      	lsls	r3, r1, #2
 8003c82:	4621      	mov	r1, r4
 8003c84:	ea43 7391 	orr.w	r3, r3, r1, lsr #30
 8003c88:	4621      	mov	r1, r4
 8003c8a:	008a      	lsls	r2, r1, #2
 8003c8c:	e9d7 0126 	ldrd	r0, r1, [r7, #152]	; 0x98
 8003c90:	f7fc ff9a 	bl	8000bc8 <__aeabi_uldivmod>
 8003c94:	4602      	mov	r2, r0
 8003c96:	460b      	mov	r3, r1
 8003c98:	4b60      	ldr	r3, [pc, #384]	; (8003e1c <UART_SetConfig+0x4e4>)
 8003c9a:	fba3 2302 	umull	r2, r3, r3, r2
 8003c9e:	095b      	lsrs	r3, r3, #5
 8003ca0:	011c      	lsls	r4, r3, #4
 8003ca2:	f8d7 30fc 	ldr.w	r3, [r7, #252]	; 0xfc
 8003ca6:	2200      	movs	r2, #0
 8003ca8:	f8c7 3088 	str.w	r3, [r7, #136]	; 0x88
 8003cac:	f8c7 208c 	str.w	r2, [r7, #140]	; 0x8c
 8003cb0:	e9d7 8922 	ldrd	r8, r9, [r7, #136]	; 0x88
 8003cb4:	4642      	mov	r2, r8
 8003cb6:	464b      	mov	r3, r9
 8003cb8:	1891      	adds	r1, r2, r2
 8003cba:	61b9      	str	r1, [r7, #24]
 8003cbc:	415b      	adcs	r3, r3
 8003cbe:	61fb      	str	r3, [r7, #28]
 8003cc0:	e9d7 2306 	ldrd	r2, r3, [r7, #24]
 8003cc4:	4641      	mov	r1, r8
 8003cc6:	1851      	adds	r1, r2, r1
 8003cc8:	6139      	str	r1, [r7, #16]
 8003cca:	4649      	mov	r1, r9
 8003ccc:	414b      	adcs	r3, r1
 8003cce:	617b      	str	r3, [r7, #20]
 8003cd0:	f04f 0200 	mov.w	r2, #0
 8003cd4:	f04f 0300 	mov.w	r3, #0
 8003cd8:	e9d7 ab04 	ldrd	sl, fp, [r7, #16]
 8003cdc:	4659      	mov	r1, fp
 8003cde:	00cb      	lsls	r3, r1, #3
 8003ce0:	4651      	mov	r1, sl
 8003ce2:	ea43 7351 	orr.w	r3, r3, r1, lsr #29
 8003ce6:	4651      	mov	r1, sl
 8003ce8:	00ca      	lsls	r2, r1, #3
 8003cea:	4610      	mov	r0, r2
 8003cec:	4619      	mov	r1, r3
 8003cee:	4603      	mov	r3, r0
 8003cf0:	4642      	mov	r2, r8
 8003cf2:	189b      	adds	r3, r3, r2
 8003cf4:	f8c7 3080 	str.w	r3, [r7, #128]	; 0x80
 8003cf8:	464b      	mov	r3, r9
 8003cfa:	460a      	mov	r2, r1
 8003cfc:	eb42 0303 	adc.w	r3, r2, r3
 8003d00:	f8c7 3084 	str.w	r3, [r7, #132]	; 0x84
 8003d04:	f8d7 30f4 	ldr.w	r3, [r7, #244]	; 0xf4
 8003d08:	685b      	ldr	r3, [r3, #4]
 8003d0a:	2200      	movs	r2, #0
 8003d0c:	67bb      	str	r3, [r7, #120]	; 0x78
 8003d0e:	67fa      	str	r2, [r7, #124]	; 0x7c
 8003d10:	f04f 0200 	mov.w	r2, #0
 8003d14:	f04f 0300 	mov.w	r3, #0
 8003d18:	e9d7 891e 	ldrd	r8, r9, [r7, #120]	; 0x78
 8003d1c:	4649      	mov	r1, r9
 8003d1e:	008b      	lsls	r3, r1, #2
 8003d20:	4641      	mov	r1, r8
 8003d22:	ea43 7391 	orr.w	r3, r3, r1, lsr #30
 8003d26:	4641      	mov	r1, r8
 8003d28:	008a      	lsls	r2, r1, #2
 8003d2a:	e9d7 0120 	ldrd	r0, r1, [r7, #128]	; 0x80
 8003d2e:	f7fc ff4b 	bl	8000bc8 <__aeabi_uldivmod>
 8003d32:	4602      	mov	r2, r0
 8003d34:	460b      	mov	r3, r1
 8003d36:	4b39      	ldr	r3, [pc, #228]	; (8003e1c <UART_SetConfig+0x4e4>)
 8003d38:	fba3 1302 	umull	r1, r3, r3, r2
 8003d3c:	095b      	lsrs	r3, r3, #5
 8003d3e:	2164      	movs	r1, #100	; 0x64
 8003d40:	fb01 f303 	mul.w	r3, r1, r3
 8003d44:	1ad3      	subs	r3, r2, r3
 8003d46:	011b      	lsls	r3, r3, #4
 8003d48:	3332      	adds	r3, #50	; 0x32
 8003d4a:	4a34      	ldr	r2, [pc, #208]	; (8003e1c <UART_SetConfig+0x4e4>)
 8003d4c:	fba2 2303 	umull	r2, r3, r2, r3
 8003d50:	095b      	lsrs	r3, r3, #5
 8003d52:	f003 03f0 	and.w	r3, r3, #240	; 0xf0
 8003d56:	441c      	add	r4, r3
 8003d58:	f8d7 30fc 	ldr.w	r3, [r7, #252]	; 0xfc
 8003d5c:	2200      	movs	r2, #0
 8003d5e:	673b      	str	r3, [r7, #112]	; 0x70
 8003d60:	677a      	str	r2, [r7, #116]	; 0x74
 8003d62:	e9d7 891c 	ldrd	r8, r9, [r7, #112]	; 0x70
 8003d66:	4642      	mov	r2, r8
 8003d68:	464b      	mov	r3, r9
 8003d6a:	1891      	adds	r1, r2, r2
 8003d6c:	60b9      	str	r1, [r7, #8]
 8003d6e:	415b      	adcs	r3, r3
 8003d70:	60fb      	str	r3, [r7, #12]
 8003d72:	e9d7 2302 	ldrd	r2, r3, [r7, #8]
 8003d76:	4641      	mov	r1, r8
 8003d78:	1851      	adds	r1, r2, r1
 8003d7a:	6039      	str	r1, [r7, #0]
 8003d7c:	4649      	mov	r1, r9
 8003d7e:	414b      	adcs	r3, r1
 8003d80:	607b      	str	r3, [r7, #4]
 8003d82:	f04f 0200 	mov.w	r2, #0
 8003d86:	f04f 0300 	mov.w	r3, #0
 8003d8a:	e9d7 ab00 	ldrd	sl, fp, [r7]
 8003d8e:	4659      	mov	r1, fp
 8003d90:	00cb      	lsls	r3, r1, #3
 8003d92:	4651      	mov	r1, sl
 8003d94:	ea43 7351 	orr.w	r3, r3, r1, lsr #29
 8003d98:	4651      	mov	r1, sl
 8003d9a:	00ca      	lsls	r2, r1, #3
 8003d9c:	4610      	mov	r0, r2
 8003d9e:	4619      	mov	r1, r3
 8003da0:	4603      	mov	r3, r0
 8003da2:	4642      	mov	r2, r8
 8003da4:	189b      	adds	r3, r3, r2
 8003da6:	66bb      	str	r3, [r7, #104]	; 0x68
 8003da8:	464b      	mov	r3, r9
 8003daa:	460a      	mov	r2, r1
 8003dac:	eb42 0303 	adc.w	r3, r2, r3
 8003db0:	66fb      	str	r3, [r7, #108]	; 0x6c
 8003db2:	f8d7 30f4 	ldr.w	r3, [r7, #244]	; 0xf4
 8003db6:	685b      	ldr	r3, [r3, #4]
 8003db8:	2200      	movs	r2, #0
 8003dba:	663b      	str	r3, [r7, #96]	; 0x60
 8003dbc:	667a      	str	r2, [r7, #100]	; 0x64
 8003dbe:	f04f 0200 	mov.w	r2, #0
 8003dc2:	f04f 0300 	mov.w	r3, #0
 8003dc6:	e9d7 8918 	ldrd	r8, r9, [r7, #96]	; 0x60
 8003dca:	4649      	mov	r1, r9
 8003dcc:	008b      	lsls	r3, r1, #2
 8003dce:	4641      	mov	r1, r8
 8003dd0:	ea43 7391 	orr.w	r3, r3, r1, lsr #30
 8003dd4:	4641      	mov	r1, r8
 8003dd6:	008a      	lsls	r2, r1, #2
 8003dd8:	e9d7 011a 	ldrd	r0, r1, [r7, #104]	; 0x68
 8003ddc:	f7fc fef4 	bl	8000bc8 <__aeabi_uldivmod>
 8003de0:	4602      	mov	r2, r0
 8003de2:	460b      	mov	r3, r1
 8003de4:	4b0d      	ldr	r3, [pc, #52]	; (8003e1c <UART_SetConfig+0x4e4>)
 8003de6:	fba3 1302 	umull	r1, r3, r3, r2
 8003dea:	095b      	lsrs	r3, r3, #5
 8003dec:	2164      	movs	r1, #100	; 0x64
 8003dee:	fb01 f303 	mul.w	r3, r1, r3
 8003df2:	1ad3      	subs	r3, r2, r3
 8003df4:	011b      	lsls	r3, r3, #4
 8003df6:	3332      	adds	r3, #50	; 0x32
 8003df8:	4a08      	ldr	r2, [pc, #32]	; (8003e1c <UART_SetConfig+0x4e4>)
 8003dfa:	fba2 2303 	umull	r2, r3, r2, r3
 8003dfe:	095b      	lsrs	r3, r3, #5
 8003e00:	f003 020f 	and.w	r2, r3, #15
 8003e04:	f8d7 30f4 	ldr.w	r3, [r7, #244]	; 0xf4
 8003e08:	681b      	ldr	r3, [r3, #0]
 8003e0a:	4422      	add	r2, r4
 8003e0c:	609a      	str	r2, [r3, #8]
}
 8003e0e:	bf00      	nop
 8003e10:	f507 7780 	add.w	r7, r7, #256	; 0x100
 8003e14:	46bd      	mov	sp, r7
 8003e16:	e8bd 8fb0 	ldmia.w	sp!, {r4, r5, r7, r8, r9, sl, fp, pc}
 8003e1a:	bf00      	nop
 8003e1c:	51eb851f 	.word	0x51eb851f

08003e20 <main>:

#define TIME1 100
#define TIME2 500

int main(void)
{
 8003e20:	b580      	push	{r7, lr}
 8003e22:	b084      	sub	sp, #16
 8003e24:	af00      	add	r7, sp, #0
		 handled in milliseconds basis.
	   - Set NVIC Group Priority to 4
	   - Low Level Initialization
	 */

	HAL_Init();
 8003e26:	f7fd fbf7 	bl	8001618 <HAL_Init>

	/* Configure the system clock to 180 MHz */
	SystemClock_Config();
 8003e2a:	f000 f81f 	bl	8003e6c <SystemClock_Config>

	/* Initialize Inputs */
	inputsInit();
 8003e2e:	f7fd f945 	bl	80010bc <inputsInit>

	/* Initialize Outputs */
	outputsInit();
 8003e32:	f7fd f979 	bl	8001128 <outputsInit>

	delay_t delayLED2;
	tick_t  timeLED2 = 100;
 8003e36:	2364      	movs	r3, #100	; 0x64
 8003e38:	60fb      	str	r3, [r7, #12]
	delayInit(&delayLED2, timeLED2);
 8003e3a:	463b      	mov	r3, r7
 8003e3c:	68f9      	ldr	r1, [r7, #12]
 8003e3e:	4618      	mov	r0, r3
 8003e40:	f7fd f922 	bl	8001088 <delayInit>

	/* Initialize FSM */
	debounceFSM_init();
 8003e44:	f7fd f910 	bl	8001068 <debounceFSM_init>
					  BE CAREFUL : Program 7 data bits + 1 parity bit in PC HyperTerminal
	  - Stop Bit    = One Stop bit
	  - Parity      = ODD parity
	  - BaudRate    = 9600 baud
	  - Hardware flow control disabled (RTS and CTS signals) */
	uartinit();
 8003e48:	f7fd f97c 	bl	8001144 <uartinit>
	printf("UART TP PdM Jordan OK\r\n");
 8003e4c:	4806      	ldr	r0, [pc, #24]	; (8003e68 <main+0x48>)
 8003e4e:	f000 fdc1 	bl	80049d4 <puts>

	iniciaADC();
 8003e52:	f7fd f83b 	bl	8000ecc <iniciaADC>

/* Infinite loop */

	while (1)
	{
		lecturakV_Update();
 8003e56:	f7fd f89b 	bl	8000f90 <lecturakV_Update>


		HAL_Delay(500);
 8003e5a:	f44f 70fa 	mov.w	r0, #500	; 0x1f4
 8003e5e:	f7fd fc47 	bl	80016f0 <HAL_Delay>

		debounceFSM_update();
 8003e62:	f7fd f8dd 	bl	8001020 <debounceFSM_update>
		lecturakV_Update();
 8003e66:	e7f6      	b.n	8003e56 <main+0x36>
 8003e68:	08006c78 	.word	0x08006c78

08003e6c <SystemClock_Config>:
  *            Flash Latency(WS)              = 5
  * @param  None
  * @retval None
  */
static void SystemClock_Config(void)
{
 8003e6c:	b580      	push	{r7, lr}
 8003e6e:	b094      	sub	sp, #80	; 0x50
 8003e70:	af00      	add	r7, sp, #0
  RCC_ClkInitTypeDef RCC_ClkInitStruct;
  RCC_OscInitTypeDef RCC_OscInitStruct;

  /* Enable Power Control clock */
  __HAL_RCC_PWR_CLK_ENABLE();
 8003e72:	2300      	movs	r3, #0
 8003e74:	60bb      	str	r3, [r7, #8]
 8003e76:	4b2c      	ldr	r3, [pc, #176]	; (8003f28 <SystemClock_Config+0xbc>)
 8003e78:	6c1b      	ldr	r3, [r3, #64]	; 0x40
 8003e7a:	4a2b      	ldr	r2, [pc, #172]	; (8003f28 <SystemClock_Config+0xbc>)
 8003e7c:	f043 5380 	orr.w	r3, r3, #268435456	; 0x10000000
 8003e80:	6413      	str	r3, [r2, #64]	; 0x40
 8003e82:	4b29      	ldr	r3, [pc, #164]	; (8003f28 <SystemClock_Config+0xbc>)
 8003e84:	6c1b      	ldr	r3, [r3, #64]	; 0x40
 8003e86:	f003 5380 	and.w	r3, r3, #268435456	; 0x10000000
 8003e8a:	60bb      	str	r3, [r7, #8]
 8003e8c:	68bb      	ldr	r3, [r7, #8]
  
  /* The voltage scaling allows optimizing the power consumption when the device is 
     clocked below the maximum system frequency, to update the voltage scaling value 
     regarding system frequency refer to product datasheet.  */
  __HAL_PWR_VOLTAGESCALING_CONFIG(PWR_REGULATOR_VOLTAGE_SCALE1);
 8003e8e:	2300      	movs	r3, #0
 8003e90:	607b      	str	r3, [r7, #4]
 8003e92:	4b26      	ldr	r3, [pc, #152]	; (8003f2c <SystemClock_Config+0xc0>)
 8003e94:	681b      	ldr	r3, [r3, #0]
 8003e96:	4a25      	ldr	r2, [pc, #148]	; (8003f2c <SystemClock_Config+0xc0>)
 8003e98:	f443 4340 	orr.w	r3, r3, #49152	; 0xc000
 8003e9c:	6013      	str	r3, [r2, #0]
 8003e9e:	4b23      	ldr	r3, [pc, #140]	; (8003f2c <SystemClock_Config+0xc0>)
 8003ea0:	681b      	ldr	r3, [r3, #0]
 8003ea2:	f403 4340 	and.w	r3, r3, #49152	; 0xc000
 8003ea6:	607b      	str	r3, [r7, #4]
 8003ea8:	687b      	ldr	r3, [r7, #4]
  
  /* Enable HSE Oscillator and activate PLL with HSE as source */
  RCC_OscInitStruct.OscillatorType = RCC_OSCILLATORTYPE_HSE;
 8003eaa:	2301      	movs	r3, #1
 8003eac:	60fb      	str	r3, [r7, #12]
  RCC_OscInitStruct.HSEState = RCC_HSE_BYPASS;
 8003eae:	f44f 23a0 	mov.w	r3, #327680	; 0x50000
 8003eb2:	613b      	str	r3, [r7, #16]
  RCC_OscInitStruct.PLL.PLLState = RCC_PLL_ON;
 8003eb4:	2302      	movs	r3, #2
 8003eb6:	627b      	str	r3, [r7, #36]	; 0x24
  RCC_OscInitStruct.PLL.PLLSource = RCC_PLLSOURCE_HSE;
 8003eb8:	f44f 0380 	mov.w	r3, #4194304	; 0x400000
 8003ebc:	62bb      	str	r3, [r7, #40]	; 0x28
  RCC_OscInitStruct.PLL.PLLM = 8;
 8003ebe:	2308      	movs	r3, #8
 8003ec0:	62fb      	str	r3, [r7, #44]	; 0x2c
  RCC_OscInitStruct.PLL.PLLN = 360;
 8003ec2:	f44f 73b4 	mov.w	r3, #360	; 0x168
 8003ec6:	633b      	str	r3, [r7, #48]	; 0x30
  RCC_OscInitStruct.PLL.PLLP = RCC_PLLP_DIV2;
 8003ec8:	2302      	movs	r3, #2
 8003eca:	637b      	str	r3, [r7, #52]	; 0x34
  RCC_OscInitStruct.PLL.PLLQ = 7;
 8003ecc:	2307      	movs	r3, #7
 8003ece:	63bb      	str	r3, [r7, #56]	; 0x38
  if(HAL_RCC_OscConfig(&RCC_OscInitStruct) != HAL_OK)
 8003ed0:	f107 030c 	add.w	r3, r7, #12
 8003ed4:	4618      	mov	r0, r3
 8003ed6:	f7fe ff49 	bl	8002d6c <HAL_RCC_OscConfig>
 8003eda:	4603      	mov	r3, r0
 8003edc:	2b00      	cmp	r3, #0
 8003ede:	d001      	beq.n	8003ee4 <SystemClock_Config+0x78>
  {
    /* Initialization Error */
    Error_Handler();
 8003ee0:	f000 f826 	bl	8003f30 <Error_Handler>
  }
  
  if(HAL_PWREx_EnableOverDrive() != HAL_OK)
 8003ee4:	f7fe fef2 	bl	8002ccc <HAL_PWREx_EnableOverDrive>
 8003ee8:	4603      	mov	r3, r0
 8003eea:	2b00      	cmp	r3, #0
 8003eec:	d001      	beq.n	8003ef2 <SystemClock_Config+0x86>
  {
    /* Initialization Error */
    Error_Handler();
 8003eee:	f000 f81f 	bl	8003f30 <Error_Handler>
  }
  
  /* Select PLL as system clock source and configure the HCLK, PCLK1 and PCLK2 
     clocks dividers */
  RCC_ClkInitStruct.ClockType = (RCC_CLOCKTYPE_SYSCLK | RCC_CLOCKTYPE_HCLK | RCC_CLOCKTYPE_PCLK1 | RCC_CLOCKTYPE_PCLK2);
 8003ef2:	230f      	movs	r3, #15
 8003ef4:	63fb      	str	r3, [r7, #60]	; 0x3c
  RCC_ClkInitStruct.SYSCLKSource = RCC_SYSCLKSOURCE_PLLCLK;
 8003ef6:	2302      	movs	r3, #2
 8003ef8:	643b      	str	r3, [r7, #64]	; 0x40
  RCC_ClkInitStruct.AHBCLKDivider = RCC_SYSCLK_DIV1;
 8003efa:	2300      	movs	r3, #0
 8003efc:	647b      	str	r3, [r7, #68]	; 0x44
  RCC_ClkInitStruct.APB1CLKDivider = RCC_HCLK_DIV4;  
 8003efe:	f44f 53a0 	mov.w	r3, #5120	; 0x1400
 8003f02:	64bb      	str	r3, [r7, #72]	; 0x48
  RCC_ClkInitStruct.APB2CLKDivider = RCC_HCLK_DIV2;  
 8003f04:	f44f 5380 	mov.w	r3, #4096	; 0x1000
 8003f08:	64fb      	str	r3, [r7, #76]	; 0x4c
  if(HAL_RCC_ClockConfig(&RCC_ClkInitStruct, FLASH_LATENCY_5) != HAL_OK)
 8003f0a:	f107 033c 	add.w	r3, r7, #60	; 0x3c
 8003f0e:	2105      	movs	r1, #5
 8003f10:	4618      	mov	r0, r3
 8003f12:	f7ff f9a3 	bl	800325c <HAL_RCC_ClockConfig>
 8003f16:	4603      	mov	r3, r0
 8003f18:	2b00      	cmp	r3, #0
 8003f1a:	d001      	beq.n	8003f20 <SystemClock_Config+0xb4>
  {
    /* Initialization Error */
    Error_Handler();
 8003f1c:	f000 f808 	bl	8003f30 <Error_Handler>
  }
}
 8003f20:	bf00      	nop
 8003f22:	3750      	adds	r7, #80	; 0x50
 8003f24:	46bd      	mov	sp, r7
 8003f26:	bd80      	pop	{r7, pc}
 8003f28:	40023800 	.word	0x40023800
 8003f2c:	40007000 	.word	0x40007000

08003f30 <Error_Handler>:
  * @brief  This function is executed in case of error occurrence.
  * @param  None
  * @retval None
  */
static void Error_Handler(void)
{
 8003f30:	b580      	push	{r7, lr}
 8003f32:	af00      	add	r7, sp, #0
  /* Turn LED2 on */
  BSP_LED_On(LED2);
 8003f34:	2001      	movs	r0, #1
 8003f36:	f7fd f9af 	bl	8001298 <BSP_LED_On>
  while (1)
 8003f3a:	e7fe      	b.n	8003f3a <Error_Handler+0xa>

08003f3c <Reset_Handler>:

    .section  .text.Reset_Handler
  .weak  Reset_Handler
  .type  Reset_Handler, %function
Reset_Handler: 
  ldr   sp, =_estack       /* set stack pointer */
 8003f3c:	f8df d034 	ldr.w	sp, [pc, #52]	; 8003f74 <LoopFillZerobss+0x14>
 
/* Copy the data segment initializers from flash to SRAM */  
  movs  r1, #0
 8003f40:	2100      	movs	r1, #0
  b  LoopCopyDataInit
 8003f42:	e003      	b.n	8003f4c <LoopCopyDataInit>

08003f44 <CopyDataInit>:

CopyDataInit:
  ldr  r3, =_sidata
 8003f44:	4b0c      	ldr	r3, [pc, #48]	; (8003f78 <LoopFillZerobss+0x18>)
  ldr  r3, [r3, r1]
 8003f46:	585b      	ldr	r3, [r3, r1]
  str  r3, [r0, r1]
 8003f48:	5043      	str	r3, [r0, r1]
  adds  r1, r1, #4
 8003f4a:	3104      	adds	r1, #4

08003f4c <LoopCopyDataInit>:
    
LoopCopyDataInit:
  ldr  r0, =_sdata
 8003f4c:	480b      	ldr	r0, [pc, #44]	; (8003f7c <LoopFillZerobss+0x1c>)
  ldr  r3, =_edata
 8003f4e:	4b0c      	ldr	r3, [pc, #48]	; (8003f80 <LoopFillZerobss+0x20>)
  adds  r2, r0, r1
 8003f50:	1842      	adds	r2, r0, r1
  cmp  r2, r3
 8003f52:	429a      	cmp	r2, r3
  bcc  CopyDataInit
 8003f54:	d3f6      	bcc.n	8003f44 <CopyDataInit>
  ldr  r2, =_sbss
 8003f56:	4a0b      	ldr	r2, [pc, #44]	; (8003f84 <LoopFillZerobss+0x24>)
  b  LoopFillZerobss
 8003f58:	e002      	b.n	8003f60 <LoopFillZerobss>

08003f5a <FillZerobss>:
/* Zero fill the bss segment. */  
FillZerobss:
  movs  r3, #0
 8003f5a:	2300      	movs	r3, #0
  str  r3, [r2], #4
 8003f5c:	f842 3b04 	str.w	r3, [r2], #4

08003f60 <LoopFillZerobss>:
    
LoopFillZerobss:
  ldr  r3, = _ebss
 8003f60:	4b09      	ldr	r3, [pc, #36]	; (8003f88 <LoopFillZerobss+0x28>)
  cmp  r2, r3
 8003f62:	429a      	cmp	r2, r3
  bcc  FillZerobss
 8003f64:	d3f9      	bcc.n	8003f5a <FillZerobss>

/* Call the clock system intitialization function.*/
  bl  SystemInit   
 8003f66:	f7fd fa21 	bl	80013ac <SystemInit>
/* Call static constructors */
    bl __libc_init_array
 8003f6a:	f000 f817 	bl	8003f9c <__libc_init_array>
/* Call the application's entry point.*/
  bl  main
 8003f6e:	f7ff ff57 	bl	8003e20 <main>
  bx  lr    
 8003f72:	4770      	bx	lr
  ldr   sp, =_estack       /* set stack pointer */
 8003f74:	20030000 	.word	0x20030000
  ldr  r3, =_sidata
 8003f78:	080070a4 	.word	0x080070a4
  ldr  r0, =_sdata
 8003f7c:	20000000 	.word	0x20000000
  ldr  r3, =_edata
 8003f80:	200001ec 	.word	0x200001ec
  ldr  r2, =_sbss
 8003f84:	200001ec 	.word	0x200001ec
  ldr  r3, = _ebss
 8003f88:	2000031c 	.word	0x2000031c

08003f8c <ADC_IRQHandler>:
 * @retval None       
*/
    .section  .text.Default_Handler,"ax",%progbits
Default_Handler:
Infinite_Loop:
  b  Infinite_Loop
 8003f8c:	e7fe      	b.n	8003f8c <ADC_IRQHandler>
	...

08003f90 <__errno>:
 8003f90:	4b01      	ldr	r3, [pc, #4]	; (8003f98 <__errno+0x8>)
 8003f92:	6818      	ldr	r0, [r3, #0]
 8003f94:	4770      	bx	lr
 8003f96:	bf00      	nop
 8003f98:	2000001c 	.word	0x2000001c

08003f9c <__libc_init_array>:
 8003f9c:	b570      	push	{r4, r5, r6, lr}
 8003f9e:	4d0d      	ldr	r5, [pc, #52]	; (8003fd4 <__libc_init_array+0x38>)
 8003fa0:	4c0d      	ldr	r4, [pc, #52]	; (8003fd8 <__libc_init_array+0x3c>)
 8003fa2:	1b64      	subs	r4, r4, r5
 8003fa4:	10a4      	asrs	r4, r4, #2
 8003fa6:	2600      	movs	r6, #0
 8003fa8:	42a6      	cmp	r6, r4
 8003faa:	d109      	bne.n	8003fc0 <__libc_init_array+0x24>
 8003fac:	4d0b      	ldr	r5, [pc, #44]	; (8003fdc <__libc_init_array+0x40>)
 8003fae:	4c0c      	ldr	r4, [pc, #48]	; (8003fe0 <__libc_init_array+0x44>)
 8003fb0:	f002 fdc4 	bl	8006b3c <_init>
 8003fb4:	1b64      	subs	r4, r4, r5
 8003fb6:	10a4      	asrs	r4, r4, #2
 8003fb8:	2600      	movs	r6, #0
 8003fba:	42a6      	cmp	r6, r4
 8003fbc:	d105      	bne.n	8003fca <__libc_init_array+0x2e>
 8003fbe:	bd70      	pop	{r4, r5, r6, pc}
 8003fc0:	f855 3b04 	ldr.w	r3, [r5], #4
 8003fc4:	4798      	blx	r3
 8003fc6:	3601      	adds	r6, #1
 8003fc8:	e7ee      	b.n	8003fa8 <__libc_init_array+0xc>
 8003fca:	f855 3b04 	ldr.w	r3, [r5], #4
 8003fce:	4798      	blx	r3
 8003fd0:	3601      	adds	r6, #1
 8003fd2:	e7f2      	b.n	8003fba <__libc_init_array+0x1e>
 8003fd4:	0800709c 	.word	0x0800709c
 8003fd8:	0800709c 	.word	0x0800709c
 8003fdc:	0800709c 	.word	0x0800709c
 8003fe0:	080070a0 	.word	0x080070a0

08003fe4 <memset>:
 8003fe4:	4402      	add	r2, r0
 8003fe6:	4603      	mov	r3, r0
 8003fe8:	4293      	cmp	r3, r2
 8003fea:	d100      	bne.n	8003fee <memset+0xa>
 8003fec:	4770      	bx	lr
 8003fee:	f803 1b01 	strb.w	r1, [r3], #1
 8003ff2:	e7f9      	b.n	8003fe8 <memset+0x4>

08003ff4 <__cvt>:
 8003ff4:	e92d 47ff 	stmdb	sp!, {r0, r1, r2, r3, r4, r5, r6, r7, r8, r9, sl, lr}
 8003ff8:	ec55 4b10 	vmov	r4, r5, d0
 8003ffc:	2d00      	cmp	r5, #0
 8003ffe:	460e      	mov	r6, r1
 8004000:	4619      	mov	r1, r3
 8004002:	462b      	mov	r3, r5
 8004004:	bfbb      	ittet	lt
 8004006:	f105 4300 	addlt.w	r3, r5, #2147483648	; 0x80000000
 800400a:	461d      	movlt	r5, r3
 800400c:	2300      	movge	r3, #0
 800400e:	232d      	movlt	r3, #45	; 0x2d
 8004010:	700b      	strb	r3, [r1, #0]
 8004012:	9b0d      	ldr	r3, [sp, #52]	; 0x34
 8004014:	f8dd a030 	ldr.w	sl, [sp, #48]	; 0x30
 8004018:	4691      	mov	r9, r2
 800401a:	f023 0820 	bic.w	r8, r3, #32
 800401e:	bfbc      	itt	lt
 8004020:	4622      	movlt	r2, r4
 8004022:	4614      	movlt	r4, r2
 8004024:	f1b8 0f46 	cmp.w	r8, #70	; 0x46
 8004028:	d005      	beq.n	8004036 <__cvt+0x42>
 800402a:	f1b8 0f45 	cmp.w	r8, #69	; 0x45
 800402e:	d100      	bne.n	8004032 <__cvt+0x3e>
 8004030:	3601      	adds	r6, #1
 8004032:	2102      	movs	r1, #2
 8004034:	e000      	b.n	8004038 <__cvt+0x44>
 8004036:	2103      	movs	r1, #3
 8004038:	ab03      	add	r3, sp, #12
 800403a:	9301      	str	r3, [sp, #4]
 800403c:	ab02      	add	r3, sp, #8
 800403e:	9300      	str	r3, [sp, #0]
 8004040:	ec45 4b10 	vmov	d0, r4, r5
 8004044:	4653      	mov	r3, sl
 8004046:	4632      	mov	r2, r6
 8004048:	f000 fe1a 	bl	8004c80 <_dtoa_r>
 800404c:	f1b8 0f47 	cmp.w	r8, #71	; 0x47
 8004050:	4607      	mov	r7, r0
 8004052:	d102      	bne.n	800405a <__cvt+0x66>
 8004054:	f019 0f01 	tst.w	r9, #1
 8004058:	d022      	beq.n	80040a0 <__cvt+0xac>
 800405a:	f1b8 0f46 	cmp.w	r8, #70	; 0x46
 800405e:	eb07 0906 	add.w	r9, r7, r6
 8004062:	d110      	bne.n	8004086 <__cvt+0x92>
 8004064:	783b      	ldrb	r3, [r7, #0]
 8004066:	2b30      	cmp	r3, #48	; 0x30
 8004068:	d10a      	bne.n	8004080 <__cvt+0x8c>
 800406a:	2200      	movs	r2, #0
 800406c:	2300      	movs	r3, #0
 800406e:	4620      	mov	r0, r4
 8004070:	4629      	mov	r1, r5
 8004072:	f7fc fd39 	bl	8000ae8 <__aeabi_dcmpeq>
 8004076:	b918      	cbnz	r0, 8004080 <__cvt+0x8c>
 8004078:	f1c6 0601 	rsb	r6, r6, #1
 800407c:	f8ca 6000 	str.w	r6, [sl]
 8004080:	f8da 3000 	ldr.w	r3, [sl]
 8004084:	4499      	add	r9, r3
 8004086:	2200      	movs	r2, #0
 8004088:	2300      	movs	r3, #0
 800408a:	4620      	mov	r0, r4
 800408c:	4629      	mov	r1, r5
 800408e:	f7fc fd2b 	bl	8000ae8 <__aeabi_dcmpeq>
 8004092:	b108      	cbz	r0, 8004098 <__cvt+0xa4>
 8004094:	f8cd 900c 	str.w	r9, [sp, #12]
 8004098:	2230      	movs	r2, #48	; 0x30
 800409a:	9b03      	ldr	r3, [sp, #12]
 800409c:	454b      	cmp	r3, r9
 800409e:	d307      	bcc.n	80040b0 <__cvt+0xbc>
 80040a0:	9b03      	ldr	r3, [sp, #12]
 80040a2:	9a0e      	ldr	r2, [sp, #56]	; 0x38
 80040a4:	1bdb      	subs	r3, r3, r7
 80040a6:	4638      	mov	r0, r7
 80040a8:	6013      	str	r3, [r2, #0]
 80040aa:	b004      	add	sp, #16
 80040ac:	e8bd 87f0 	ldmia.w	sp!, {r4, r5, r6, r7, r8, r9, sl, pc}
 80040b0:	1c59      	adds	r1, r3, #1
 80040b2:	9103      	str	r1, [sp, #12]
 80040b4:	701a      	strb	r2, [r3, #0]
 80040b6:	e7f0      	b.n	800409a <__cvt+0xa6>

080040b8 <__exponent>:
 80040b8:	b5f7      	push	{r0, r1, r2, r4, r5, r6, r7, lr}
 80040ba:	4603      	mov	r3, r0
 80040bc:	2900      	cmp	r1, #0
 80040be:	bfb8      	it	lt
 80040c0:	4249      	neglt	r1, r1
 80040c2:	f803 2b02 	strb.w	r2, [r3], #2
 80040c6:	bfb4      	ite	lt
 80040c8:	222d      	movlt	r2, #45	; 0x2d
 80040ca:	222b      	movge	r2, #43	; 0x2b
 80040cc:	2909      	cmp	r1, #9
 80040ce:	7042      	strb	r2, [r0, #1]
 80040d0:	dd2a      	ble.n	8004128 <__exponent+0x70>
 80040d2:	f10d 0407 	add.w	r4, sp, #7
 80040d6:	46a4      	mov	ip, r4
 80040d8:	270a      	movs	r7, #10
 80040da:	46a6      	mov	lr, r4
 80040dc:	460a      	mov	r2, r1
 80040de:	fb91 f6f7 	sdiv	r6, r1, r7
 80040e2:	fb07 1516 	mls	r5, r7, r6, r1
 80040e6:	3530      	adds	r5, #48	; 0x30
 80040e8:	2a63      	cmp	r2, #99	; 0x63
 80040ea:	f104 34ff 	add.w	r4, r4, #4294967295
 80040ee:	f80e 5c01 	strb.w	r5, [lr, #-1]
 80040f2:	4631      	mov	r1, r6
 80040f4:	dcf1      	bgt.n	80040da <__exponent+0x22>
 80040f6:	3130      	adds	r1, #48	; 0x30
 80040f8:	f1ae 0502 	sub.w	r5, lr, #2
 80040fc:	f804 1c01 	strb.w	r1, [r4, #-1]
 8004100:	1c44      	adds	r4, r0, #1
 8004102:	4629      	mov	r1, r5
 8004104:	4561      	cmp	r1, ip
 8004106:	d30a      	bcc.n	800411e <__exponent+0x66>
 8004108:	f10d 0209 	add.w	r2, sp, #9
 800410c:	eba2 020e 	sub.w	r2, r2, lr
 8004110:	4565      	cmp	r5, ip
 8004112:	bf88      	it	hi
 8004114:	2200      	movhi	r2, #0
 8004116:	4413      	add	r3, r2
 8004118:	1a18      	subs	r0, r3, r0
 800411a:	b003      	add	sp, #12
 800411c:	bdf0      	pop	{r4, r5, r6, r7, pc}
 800411e:	f811 2b01 	ldrb.w	r2, [r1], #1
 8004122:	f804 2f01 	strb.w	r2, [r4, #1]!
 8004126:	e7ed      	b.n	8004104 <__exponent+0x4c>
 8004128:	2330      	movs	r3, #48	; 0x30
 800412a:	3130      	adds	r1, #48	; 0x30
 800412c:	7083      	strb	r3, [r0, #2]
 800412e:	70c1      	strb	r1, [r0, #3]
 8004130:	1d03      	adds	r3, r0, #4
 8004132:	e7f1      	b.n	8004118 <__exponent+0x60>

08004134 <_printf_float>:
 8004134:	e92d 4ff0 	stmdb	sp!, {r4, r5, r6, r7, r8, r9, sl, fp, lr}
 8004138:	ed2d 8b02 	vpush	{d8}
 800413c:	b08d      	sub	sp, #52	; 0x34
 800413e:	460c      	mov	r4, r1
 8004140:	f8dd 8060 	ldr.w	r8, [sp, #96]	; 0x60
 8004144:	4616      	mov	r6, r2
 8004146:	461f      	mov	r7, r3
 8004148:	4605      	mov	r5, r0
 800414a:	f001 fd3f 	bl	8005bcc <_localeconv_r>
 800414e:	f8d0 a000 	ldr.w	sl, [r0]
 8004152:	4650      	mov	r0, sl
 8004154:	f7fc f84c 	bl	80001f0 <strlen>
 8004158:	2300      	movs	r3, #0
 800415a:	930a      	str	r3, [sp, #40]	; 0x28
 800415c:	6823      	ldr	r3, [r4, #0]
 800415e:	9305      	str	r3, [sp, #20]
 8004160:	f8d8 3000 	ldr.w	r3, [r8]
 8004164:	f894 b018 	ldrb.w	fp, [r4, #24]
 8004168:	3307      	adds	r3, #7
 800416a:	f023 0307 	bic.w	r3, r3, #7
 800416e:	f103 0208 	add.w	r2, r3, #8
 8004172:	f8c8 2000 	str.w	r2, [r8]
 8004176:	e9d3 2300 	ldrd	r2, r3, [r3]
 800417a:	e9c4 2312 	strd	r2, r3, [r4, #72]	; 0x48
 800417e:	e9d4 8912 	ldrd	r8, r9, [r4, #72]	; 0x48
 8004182:	f029 4300 	bic.w	r3, r9, #2147483648	; 0x80000000
 8004186:	9307      	str	r3, [sp, #28]
 8004188:	f8cd 8018 	str.w	r8, [sp, #24]
 800418c:	ee08 0a10 	vmov	s16, r0
 8004190:	4b9f      	ldr	r3, [pc, #636]	; (8004410 <_printf_float+0x2dc>)
 8004192:	e9dd 0106 	ldrd	r0, r1, [sp, #24]
 8004196:	f04f 32ff 	mov.w	r2, #4294967295
 800419a:	f7fc fcd7 	bl	8000b4c <__aeabi_dcmpun>
 800419e:	bb88      	cbnz	r0, 8004204 <_printf_float+0xd0>
 80041a0:	e9dd 0106 	ldrd	r0, r1, [sp, #24]
 80041a4:	4b9a      	ldr	r3, [pc, #616]	; (8004410 <_printf_float+0x2dc>)
 80041a6:	f04f 32ff 	mov.w	r2, #4294967295
 80041aa:	f7fc fcb1 	bl	8000b10 <__aeabi_dcmple>
 80041ae:	bb48      	cbnz	r0, 8004204 <_printf_float+0xd0>
 80041b0:	2200      	movs	r2, #0
 80041b2:	2300      	movs	r3, #0
 80041b4:	4640      	mov	r0, r8
 80041b6:	4649      	mov	r1, r9
 80041b8:	f7fc fca0 	bl	8000afc <__aeabi_dcmplt>
 80041bc:	b110      	cbz	r0, 80041c4 <_printf_float+0x90>
 80041be:	232d      	movs	r3, #45	; 0x2d
 80041c0:	f884 3043 	strb.w	r3, [r4, #67]	; 0x43
 80041c4:	4b93      	ldr	r3, [pc, #588]	; (8004414 <_printf_float+0x2e0>)
 80041c6:	4894      	ldr	r0, [pc, #592]	; (8004418 <_printf_float+0x2e4>)
 80041c8:	f1bb 0f47 	cmp.w	fp, #71	; 0x47
 80041cc:	bf94      	ite	ls
 80041ce:	4698      	movls	r8, r3
 80041d0:	4680      	movhi	r8, r0
 80041d2:	2303      	movs	r3, #3
 80041d4:	6123      	str	r3, [r4, #16]
 80041d6:	9b05      	ldr	r3, [sp, #20]
 80041d8:	f023 0204 	bic.w	r2, r3, #4
 80041dc:	6022      	str	r2, [r4, #0]
 80041de:	f04f 0900 	mov.w	r9, #0
 80041e2:	9700      	str	r7, [sp, #0]
 80041e4:	4633      	mov	r3, r6
 80041e6:	aa0b      	add	r2, sp, #44	; 0x2c
 80041e8:	4621      	mov	r1, r4
 80041ea:	4628      	mov	r0, r5
 80041ec:	f000 f9d8 	bl	80045a0 <_printf_common>
 80041f0:	3001      	adds	r0, #1
 80041f2:	f040 8090 	bne.w	8004316 <_printf_float+0x1e2>
 80041f6:	f04f 30ff 	mov.w	r0, #4294967295
 80041fa:	b00d      	add	sp, #52	; 0x34
 80041fc:	ecbd 8b02 	vpop	{d8}
 8004200:	e8bd 8ff0 	ldmia.w	sp!, {r4, r5, r6, r7, r8, r9, sl, fp, pc}
 8004204:	4642      	mov	r2, r8
 8004206:	464b      	mov	r3, r9
 8004208:	4640      	mov	r0, r8
 800420a:	4649      	mov	r1, r9
 800420c:	f7fc fc9e 	bl	8000b4c <__aeabi_dcmpun>
 8004210:	b140      	cbz	r0, 8004224 <_printf_float+0xf0>
 8004212:	464b      	mov	r3, r9
 8004214:	2b00      	cmp	r3, #0
 8004216:	bfbc      	itt	lt
 8004218:	232d      	movlt	r3, #45	; 0x2d
 800421a:	f884 3043 	strblt.w	r3, [r4, #67]	; 0x43
 800421e:	487f      	ldr	r0, [pc, #508]	; (800441c <_printf_float+0x2e8>)
 8004220:	4b7f      	ldr	r3, [pc, #508]	; (8004420 <_printf_float+0x2ec>)
 8004222:	e7d1      	b.n	80041c8 <_printf_float+0x94>
 8004224:	6863      	ldr	r3, [r4, #4]
 8004226:	f00b 02df 	and.w	r2, fp, #223	; 0xdf
 800422a:	9206      	str	r2, [sp, #24]
 800422c:	1c5a      	adds	r2, r3, #1
 800422e:	d13f      	bne.n	80042b0 <_printf_float+0x17c>
 8004230:	2306      	movs	r3, #6
 8004232:	6063      	str	r3, [r4, #4]
 8004234:	9b05      	ldr	r3, [sp, #20]
 8004236:	6861      	ldr	r1, [r4, #4]
 8004238:	f443 6280 	orr.w	r2, r3, #1024	; 0x400
 800423c:	2300      	movs	r3, #0
 800423e:	9303      	str	r3, [sp, #12]
 8004240:	ab0a      	add	r3, sp, #40	; 0x28
 8004242:	e9cd b301 	strd	fp, r3, [sp, #4]
 8004246:	ab09      	add	r3, sp, #36	; 0x24
 8004248:	ec49 8b10 	vmov	d0, r8, r9
 800424c:	9300      	str	r3, [sp, #0]
 800424e:	6022      	str	r2, [r4, #0]
 8004250:	f10d 0323 	add.w	r3, sp, #35	; 0x23
 8004254:	4628      	mov	r0, r5
 8004256:	f7ff fecd 	bl	8003ff4 <__cvt>
 800425a:	9b06      	ldr	r3, [sp, #24]
 800425c:	9909      	ldr	r1, [sp, #36]	; 0x24
 800425e:	2b47      	cmp	r3, #71	; 0x47
 8004260:	4680      	mov	r8, r0
 8004262:	d108      	bne.n	8004276 <_printf_float+0x142>
 8004264:	1cc8      	adds	r0, r1, #3
 8004266:	db02      	blt.n	800426e <_printf_float+0x13a>
 8004268:	6863      	ldr	r3, [r4, #4]
 800426a:	4299      	cmp	r1, r3
 800426c:	dd41      	ble.n	80042f2 <_printf_float+0x1be>
 800426e:	f1ab 0b02 	sub.w	fp, fp, #2
 8004272:	fa5f fb8b 	uxtb.w	fp, fp
 8004276:	f1bb 0f65 	cmp.w	fp, #101	; 0x65
 800427a:	d820      	bhi.n	80042be <_printf_float+0x18a>
 800427c:	3901      	subs	r1, #1
 800427e:	465a      	mov	r2, fp
 8004280:	f104 0050 	add.w	r0, r4, #80	; 0x50
 8004284:	9109      	str	r1, [sp, #36]	; 0x24
 8004286:	f7ff ff17 	bl	80040b8 <__exponent>
 800428a:	9a0a      	ldr	r2, [sp, #40]	; 0x28
 800428c:	1813      	adds	r3, r2, r0
 800428e:	2a01      	cmp	r2, #1
 8004290:	4681      	mov	r9, r0
 8004292:	6123      	str	r3, [r4, #16]
 8004294:	dc02      	bgt.n	800429c <_printf_float+0x168>
 8004296:	6822      	ldr	r2, [r4, #0]
 8004298:	07d2      	lsls	r2, r2, #31
 800429a:	d501      	bpl.n	80042a0 <_printf_float+0x16c>
 800429c:	3301      	adds	r3, #1
 800429e:	6123      	str	r3, [r4, #16]
 80042a0:	f89d 3023 	ldrb.w	r3, [sp, #35]	; 0x23
 80042a4:	2b00      	cmp	r3, #0
 80042a6:	d09c      	beq.n	80041e2 <_printf_float+0xae>
 80042a8:	232d      	movs	r3, #45	; 0x2d
 80042aa:	f884 3043 	strb.w	r3, [r4, #67]	; 0x43
 80042ae:	e798      	b.n	80041e2 <_printf_float+0xae>
 80042b0:	9a06      	ldr	r2, [sp, #24]
 80042b2:	2a47      	cmp	r2, #71	; 0x47
 80042b4:	d1be      	bne.n	8004234 <_printf_float+0x100>
 80042b6:	2b00      	cmp	r3, #0
 80042b8:	d1bc      	bne.n	8004234 <_printf_float+0x100>
 80042ba:	2301      	movs	r3, #1
 80042bc:	e7b9      	b.n	8004232 <_printf_float+0xfe>
 80042be:	f1bb 0f66 	cmp.w	fp, #102	; 0x66
 80042c2:	d118      	bne.n	80042f6 <_printf_float+0x1c2>
 80042c4:	2900      	cmp	r1, #0
 80042c6:	6863      	ldr	r3, [r4, #4]
 80042c8:	dd0b      	ble.n	80042e2 <_printf_float+0x1ae>
 80042ca:	6121      	str	r1, [r4, #16]
 80042cc:	b913      	cbnz	r3, 80042d4 <_printf_float+0x1a0>
 80042ce:	6822      	ldr	r2, [r4, #0]
 80042d0:	07d0      	lsls	r0, r2, #31
 80042d2:	d502      	bpl.n	80042da <_printf_float+0x1a6>
 80042d4:	3301      	adds	r3, #1
 80042d6:	440b      	add	r3, r1
 80042d8:	6123      	str	r3, [r4, #16]
 80042da:	65a1      	str	r1, [r4, #88]	; 0x58
 80042dc:	f04f 0900 	mov.w	r9, #0
 80042e0:	e7de      	b.n	80042a0 <_printf_float+0x16c>
 80042e2:	b913      	cbnz	r3, 80042ea <_printf_float+0x1b6>
 80042e4:	6822      	ldr	r2, [r4, #0]
 80042e6:	07d2      	lsls	r2, r2, #31
 80042e8:	d501      	bpl.n	80042ee <_printf_float+0x1ba>
 80042ea:	3302      	adds	r3, #2
 80042ec:	e7f4      	b.n	80042d8 <_printf_float+0x1a4>
 80042ee:	2301      	movs	r3, #1
 80042f0:	e7f2      	b.n	80042d8 <_printf_float+0x1a4>
 80042f2:	f04f 0b67 	mov.w	fp, #103	; 0x67
 80042f6:	9b0a      	ldr	r3, [sp, #40]	; 0x28
 80042f8:	4299      	cmp	r1, r3
 80042fa:	db05      	blt.n	8004308 <_printf_float+0x1d4>
 80042fc:	6823      	ldr	r3, [r4, #0]
 80042fe:	6121      	str	r1, [r4, #16]
 8004300:	07d8      	lsls	r0, r3, #31
 8004302:	d5ea      	bpl.n	80042da <_printf_float+0x1a6>
 8004304:	1c4b      	adds	r3, r1, #1
 8004306:	e7e7      	b.n	80042d8 <_printf_float+0x1a4>
 8004308:	2900      	cmp	r1, #0
 800430a:	bfd4      	ite	le
 800430c:	f1c1 0202 	rsble	r2, r1, #2
 8004310:	2201      	movgt	r2, #1
 8004312:	4413      	add	r3, r2
 8004314:	e7e0      	b.n	80042d8 <_printf_float+0x1a4>
 8004316:	6823      	ldr	r3, [r4, #0]
 8004318:	055a      	lsls	r2, r3, #21
 800431a:	d407      	bmi.n	800432c <_printf_float+0x1f8>
 800431c:	6923      	ldr	r3, [r4, #16]
 800431e:	4642      	mov	r2, r8
 8004320:	4631      	mov	r1, r6
 8004322:	4628      	mov	r0, r5
 8004324:	47b8      	blx	r7
 8004326:	3001      	adds	r0, #1
 8004328:	d12c      	bne.n	8004384 <_printf_float+0x250>
 800432a:	e764      	b.n	80041f6 <_printf_float+0xc2>
 800432c:	f1bb 0f65 	cmp.w	fp, #101	; 0x65
 8004330:	f240 80e0 	bls.w	80044f4 <_printf_float+0x3c0>
 8004334:	e9d4 0112 	ldrd	r0, r1, [r4, #72]	; 0x48
 8004338:	2200      	movs	r2, #0
 800433a:	2300      	movs	r3, #0
 800433c:	f7fc fbd4 	bl	8000ae8 <__aeabi_dcmpeq>
 8004340:	2800      	cmp	r0, #0
 8004342:	d034      	beq.n	80043ae <_printf_float+0x27a>
 8004344:	4a37      	ldr	r2, [pc, #220]	; (8004424 <_printf_float+0x2f0>)
 8004346:	2301      	movs	r3, #1
 8004348:	4631      	mov	r1, r6
 800434a:	4628      	mov	r0, r5
 800434c:	47b8      	blx	r7
 800434e:	3001      	adds	r0, #1
 8004350:	f43f af51 	beq.w	80041f6 <_printf_float+0xc2>
 8004354:	e9dd 2309 	ldrd	r2, r3, [sp, #36]	; 0x24
 8004358:	429a      	cmp	r2, r3
 800435a:	db02      	blt.n	8004362 <_printf_float+0x22e>
 800435c:	6823      	ldr	r3, [r4, #0]
 800435e:	07d8      	lsls	r0, r3, #31
 8004360:	d510      	bpl.n	8004384 <_printf_float+0x250>
 8004362:	ee18 3a10 	vmov	r3, s16
 8004366:	4652      	mov	r2, sl
 8004368:	4631      	mov	r1, r6
 800436a:	4628      	mov	r0, r5
 800436c:	47b8      	blx	r7
 800436e:	3001      	adds	r0, #1
 8004370:	f43f af41 	beq.w	80041f6 <_printf_float+0xc2>
 8004374:	f04f 0800 	mov.w	r8, #0
 8004378:	f104 091a 	add.w	r9, r4, #26
 800437c:	9b0a      	ldr	r3, [sp, #40]	; 0x28
 800437e:	3b01      	subs	r3, #1
 8004380:	4543      	cmp	r3, r8
 8004382:	dc09      	bgt.n	8004398 <_printf_float+0x264>
 8004384:	6823      	ldr	r3, [r4, #0]
 8004386:	079b      	lsls	r3, r3, #30
 8004388:	f100 8105 	bmi.w	8004596 <_printf_float+0x462>
 800438c:	68e0      	ldr	r0, [r4, #12]
 800438e:	9b0b      	ldr	r3, [sp, #44]	; 0x2c
 8004390:	4298      	cmp	r0, r3
 8004392:	bfb8      	it	lt
 8004394:	4618      	movlt	r0, r3
 8004396:	e730      	b.n	80041fa <_printf_float+0xc6>
 8004398:	2301      	movs	r3, #1
 800439a:	464a      	mov	r2, r9
 800439c:	4631      	mov	r1, r6
 800439e:	4628      	mov	r0, r5
 80043a0:	47b8      	blx	r7
 80043a2:	3001      	adds	r0, #1
 80043a4:	f43f af27 	beq.w	80041f6 <_printf_float+0xc2>
 80043a8:	f108 0801 	add.w	r8, r8, #1
 80043ac:	e7e6      	b.n	800437c <_printf_float+0x248>
 80043ae:	9b09      	ldr	r3, [sp, #36]	; 0x24
 80043b0:	2b00      	cmp	r3, #0
 80043b2:	dc39      	bgt.n	8004428 <_printf_float+0x2f4>
 80043b4:	4a1b      	ldr	r2, [pc, #108]	; (8004424 <_printf_float+0x2f0>)
 80043b6:	2301      	movs	r3, #1
 80043b8:	4631      	mov	r1, r6
 80043ba:	4628      	mov	r0, r5
 80043bc:	47b8      	blx	r7
 80043be:	3001      	adds	r0, #1
 80043c0:	f43f af19 	beq.w	80041f6 <_printf_float+0xc2>
 80043c4:	e9dd 2309 	ldrd	r2, r3, [sp, #36]	; 0x24
 80043c8:	4313      	orrs	r3, r2
 80043ca:	d102      	bne.n	80043d2 <_printf_float+0x29e>
 80043cc:	6823      	ldr	r3, [r4, #0]
 80043ce:	07d9      	lsls	r1, r3, #31
 80043d0:	d5d8      	bpl.n	8004384 <_printf_float+0x250>
 80043d2:	ee18 3a10 	vmov	r3, s16
 80043d6:	4652      	mov	r2, sl
 80043d8:	4631      	mov	r1, r6
 80043da:	4628      	mov	r0, r5
 80043dc:	47b8      	blx	r7
 80043de:	3001      	adds	r0, #1
 80043e0:	f43f af09 	beq.w	80041f6 <_printf_float+0xc2>
 80043e4:	f04f 0900 	mov.w	r9, #0
 80043e8:	f104 0a1a 	add.w	sl, r4, #26
 80043ec:	9b09      	ldr	r3, [sp, #36]	; 0x24
 80043ee:	425b      	negs	r3, r3
 80043f0:	454b      	cmp	r3, r9
 80043f2:	dc01      	bgt.n	80043f8 <_printf_float+0x2c4>
 80043f4:	9b0a      	ldr	r3, [sp, #40]	; 0x28
 80043f6:	e792      	b.n	800431e <_printf_float+0x1ea>
 80043f8:	2301      	movs	r3, #1
 80043fa:	4652      	mov	r2, sl
 80043fc:	4631      	mov	r1, r6
 80043fe:	4628      	mov	r0, r5
 8004400:	47b8      	blx	r7
 8004402:	3001      	adds	r0, #1
 8004404:	f43f aef7 	beq.w	80041f6 <_printf_float+0xc2>
 8004408:	f109 0901 	add.w	r9, r9, #1
 800440c:	e7ee      	b.n	80043ec <_printf_float+0x2b8>
 800440e:	bf00      	nop
 8004410:	7fefffff 	.word	0x7fefffff
 8004414:	08006cbc 	.word	0x08006cbc
 8004418:	08006cc0 	.word	0x08006cc0
 800441c:	08006cc8 	.word	0x08006cc8
 8004420:	08006cc4 	.word	0x08006cc4
 8004424:	08006ccc 	.word	0x08006ccc
 8004428:	9a0a      	ldr	r2, [sp, #40]	; 0x28
 800442a:	6da3      	ldr	r3, [r4, #88]	; 0x58
 800442c:	429a      	cmp	r2, r3
 800442e:	bfa8      	it	ge
 8004430:	461a      	movge	r2, r3
 8004432:	2a00      	cmp	r2, #0
 8004434:	4691      	mov	r9, r2
 8004436:	dc37      	bgt.n	80044a8 <_printf_float+0x374>
 8004438:	f04f 0b00 	mov.w	fp, #0
 800443c:	ea29 79e9 	bic.w	r9, r9, r9, asr #31
 8004440:	f104 021a 	add.w	r2, r4, #26
 8004444:	6da3      	ldr	r3, [r4, #88]	; 0x58
 8004446:	9305      	str	r3, [sp, #20]
 8004448:	eba3 0309 	sub.w	r3, r3, r9
 800444c:	455b      	cmp	r3, fp
 800444e:	dc33      	bgt.n	80044b8 <_printf_float+0x384>
 8004450:	e9dd 2309 	ldrd	r2, r3, [sp, #36]	; 0x24
 8004454:	429a      	cmp	r2, r3
 8004456:	db3b      	blt.n	80044d0 <_printf_float+0x39c>
 8004458:	6823      	ldr	r3, [r4, #0]
 800445a:	07da      	lsls	r2, r3, #31
 800445c:	d438      	bmi.n	80044d0 <_printf_float+0x39c>
 800445e:	9b0a      	ldr	r3, [sp, #40]	; 0x28
 8004460:	9a05      	ldr	r2, [sp, #20]
 8004462:	9909      	ldr	r1, [sp, #36]	; 0x24
 8004464:	1a9a      	subs	r2, r3, r2
 8004466:	eba3 0901 	sub.w	r9, r3, r1
 800446a:	4591      	cmp	r9, r2
 800446c:	bfa8      	it	ge
 800446e:	4691      	movge	r9, r2
 8004470:	f1b9 0f00 	cmp.w	r9, #0
 8004474:	dc35      	bgt.n	80044e2 <_printf_float+0x3ae>
 8004476:	f04f 0800 	mov.w	r8, #0
 800447a:	ea29 79e9 	bic.w	r9, r9, r9, asr #31
 800447e:	f104 0a1a 	add.w	sl, r4, #26
 8004482:	e9dd 2309 	ldrd	r2, r3, [sp, #36]	; 0x24
 8004486:	1a9b      	subs	r3, r3, r2
 8004488:	eba3 0309 	sub.w	r3, r3, r9
 800448c:	4543      	cmp	r3, r8
 800448e:	f77f af79 	ble.w	8004384 <_printf_float+0x250>
 8004492:	2301      	movs	r3, #1
 8004494:	4652      	mov	r2, sl
 8004496:	4631      	mov	r1, r6
 8004498:	4628      	mov	r0, r5
 800449a:	47b8      	blx	r7
 800449c:	3001      	adds	r0, #1
 800449e:	f43f aeaa 	beq.w	80041f6 <_printf_float+0xc2>
 80044a2:	f108 0801 	add.w	r8, r8, #1
 80044a6:	e7ec      	b.n	8004482 <_printf_float+0x34e>
 80044a8:	4613      	mov	r3, r2
 80044aa:	4631      	mov	r1, r6
 80044ac:	4642      	mov	r2, r8
 80044ae:	4628      	mov	r0, r5
 80044b0:	47b8      	blx	r7
 80044b2:	3001      	adds	r0, #1
 80044b4:	d1c0      	bne.n	8004438 <_printf_float+0x304>
 80044b6:	e69e      	b.n	80041f6 <_printf_float+0xc2>
 80044b8:	2301      	movs	r3, #1
 80044ba:	4631      	mov	r1, r6
 80044bc:	4628      	mov	r0, r5
 80044be:	9205      	str	r2, [sp, #20]
 80044c0:	47b8      	blx	r7
 80044c2:	3001      	adds	r0, #1
 80044c4:	f43f ae97 	beq.w	80041f6 <_printf_float+0xc2>
 80044c8:	9a05      	ldr	r2, [sp, #20]
 80044ca:	f10b 0b01 	add.w	fp, fp, #1
 80044ce:	e7b9      	b.n	8004444 <_printf_float+0x310>
 80044d0:	ee18 3a10 	vmov	r3, s16
 80044d4:	4652      	mov	r2, sl
 80044d6:	4631      	mov	r1, r6
 80044d8:	4628      	mov	r0, r5
 80044da:	47b8      	blx	r7
 80044dc:	3001      	adds	r0, #1
 80044de:	d1be      	bne.n	800445e <_printf_float+0x32a>
 80044e0:	e689      	b.n	80041f6 <_printf_float+0xc2>
 80044e2:	9a05      	ldr	r2, [sp, #20]
 80044e4:	464b      	mov	r3, r9
 80044e6:	4442      	add	r2, r8
 80044e8:	4631      	mov	r1, r6
 80044ea:	4628      	mov	r0, r5
 80044ec:	47b8      	blx	r7
 80044ee:	3001      	adds	r0, #1
 80044f0:	d1c1      	bne.n	8004476 <_printf_float+0x342>
 80044f2:	e680      	b.n	80041f6 <_printf_float+0xc2>
 80044f4:	9a0a      	ldr	r2, [sp, #40]	; 0x28
 80044f6:	2a01      	cmp	r2, #1
 80044f8:	dc01      	bgt.n	80044fe <_printf_float+0x3ca>
 80044fa:	07db      	lsls	r3, r3, #31
 80044fc:	d538      	bpl.n	8004570 <_printf_float+0x43c>
 80044fe:	2301      	movs	r3, #1
 8004500:	4642      	mov	r2, r8
 8004502:	4631      	mov	r1, r6
 8004504:	4628      	mov	r0, r5
 8004506:	47b8      	blx	r7
 8004508:	3001      	adds	r0, #1
 800450a:	f43f ae74 	beq.w	80041f6 <_printf_float+0xc2>
 800450e:	ee18 3a10 	vmov	r3, s16
 8004512:	4652      	mov	r2, sl
 8004514:	4631      	mov	r1, r6
 8004516:	4628      	mov	r0, r5
 8004518:	47b8      	blx	r7
 800451a:	3001      	adds	r0, #1
 800451c:	f43f ae6b 	beq.w	80041f6 <_printf_float+0xc2>
 8004520:	e9d4 0112 	ldrd	r0, r1, [r4, #72]	; 0x48
 8004524:	2200      	movs	r2, #0
 8004526:	2300      	movs	r3, #0
 8004528:	f7fc fade 	bl	8000ae8 <__aeabi_dcmpeq>
 800452c:	b9d8      	cbnz	r0, 8004566 <_printf_float+0x432>
 800452e:	9b0a      	ldr	r3, [sp, #40]	; 0x28
 8004530:	f108 0201 	add.w	r2, r8, #1
 8004534:	3b01      	subs	r3, #1
 8004536:	4631      	mov	r1, r6
 8004538:	4628      	mov	r0, r5
 800453a:	47b8      	blx	r7
 800453c:	3001      	adds	r0, #1
 800453e:	d10e      	bne.n	800455e <_printf_float+0x42a>
 8004540:	e659      	b.n	80041f6 <_printf_float+0xc2>
 8004542:	2301      	movs	r3, #1
 8004544:	4652      	mov	r2, sl
 8004546:	4631      	mov	r1, r6
 8004548:	4628      	mov	r0, r5
 800454a:	47b8      	blx	r7
 800454c:	3001      	adds	r0, #1
 800454e:	f43f ae52 	beq.w	80041f6 <_printf_float+0xc2>
 8004552:	f108 0801 	add.w	r8, r8, #1
 8004556:	9b0a      	ldr	r3, [sp, #40]	; 0x28
 8004558:	3b01      	subs	r3, #1
 800455a:	4543      	cmp	r3, r8
 800455c:	dcf1      	bgt.n	8004542 <_printf_float+0x40e>
 800455e:	464b      	mov	r3, r9
 8004560:	f104 0250 	add.w	r2, r4, #80	; 0x50
 8004564:	e6dc      	b.n	8004320 <_printf_float+0x1ec>
 8004566:	f04f 0800 	mov.w	r8, #0
 800456a:	f104 0a1a 	add.w	sl, r4, #26
 800456e:	e7f2      	b.n	8004556 <_printf_float+0x422>
 8004570:	2301      	movs	r3, #1
 8004572:	4642      	mov	r2, r8
 8004574:	e7df      	b.n	8004536 <_printf_float+0x402>
 8004576:	2301      	movs	r3, #1
 8004578:	464a      	mov	r2, r9
 800457a:	4631      	mov	r1, r6
 800457c:	4628      	mov	r0, r5
 800457e:	47b8      	blx	r7
 8004580:	3001      	adds	r0, #1
 8004582:	f43f ae38 	beq.w	80041f6 <_printf_float+0xc2>
 8004586:	f108 0801 	add.w	r8, r8, #1
 800458a:	68e3      	ldr	r3, [r4, #12]
 800458c:	990b      	ldr	r1, [sp, #44]	; 0x2c
 800458e:	1a5b      	subs	r3, r3, r1
 8004590:	4543      	cmp	r3, r8
 8004592:	dcf0      	bgt.n	8004576 <_printf_float+0x442>
 8004594:	e6fa      	b.n	800438c <_printf_float+0x258>
 8004596:	f04f 0800 	mov.w	r8, #0
 800459a:	f104 0919 	add.w	r9, r4, #25
 800459e:	e7f4      	b.n	800458a <_printf_float+0x456>

080045a0 <_printf_common>:
 80045a0:	e92d 47f0 	stmdb	sp!, {r4, r5, r6, r7, r8, r9, sl, lr}
 80045a4:	4616      	mov	r6, r2
 80045a6:	4699      	mov	r9, r3
 80045a8:	688a      	ldr	r2, [r1, #8]
 80045aa:	690b      	ldr	r3, [r1, #16]
 80045ac:	f8dd 8020 	ldr.w	r8, [sp, #32]
 80045b0:	4293      	cmp	r3, r2
 80045b2:	bfb8      	it	lt
 80045b4:	4613      	movlt	r3, r2
 80045b6:	6033      	str	r3, [r6, #0]
 80045b8:	f891 2043 	ldrb.w	r2, [r1, #67]	; 0x43
 80045bc:	4607      	mov	r7, r0
 80045be:	460c      	mov	r4, r1
 80045c0:	b10a      	cbz	r2, 80045c6 <_printf_common+0x26>
 80045c2:	3301      	adds	r3, #1
 80045c4:	6033      	str	r3, [r6, #0]
 80045c6:	6823      	ldr	r3, [r4, #0]
 80045c8:	0699      	lsls	r1, r3, #26
 80045ca:	bf42      	ittt	mi
 80045cc:	6833      	ldrmi	r3, [r6, #0]
 80045ce:	3302      	addmi	r3, #2
 80045d0:	6033      	strmi	r3, [r6, #0]
 80045d2:	6825      	ldr	r5, [r4, #0]
 80045d4:	f015 0506 	ands.w	r5, r5, #6
 80045d8:	d106      	bne.n	80045e8 <_printf_common+0x48>
 80045da:	f104 0a19 	add.w	sl, r4, #25
 80045de:	68e3      	ldr	r3, [r4, #12]
 80045e0:	6832      	ldr	r2, [r6, #0]
 80045e2:	1a9b      	subs	r3, r3, r2
 80045e4:	42ab      	cmp	r3, r5
 80045e6:	dc26      	bgt.n	8004636 <_printf_common+0x96>
 80045e8:	f894 2043 	ldrb.w	r2, [r4, #67]	; 0x43
 80045ec:	1e13      	subs	r3, r2, #0
 80045ee:	6822      	ldr	r2, [r4, #0]
 80045f0:	bf18      	it	ne
 80045f2:	2301      	movne	r3, #1
 80045f4:	0692      	lsls	r2, r2, #26
 80045f6:	d42b      	bmi.n	8004650 <_printf_common+0xb0>
 80045f8:	f104 0243 	add.w	r2, r4, #67	; 0x43
 80045fc:	4649      	mov	r1, r9
 80045fe:	4638      	mov	r0, r7
 8004600:	47c0      	blx	r8
 8004602:	3001      	adds	r0, #1
 8004604:	d01e      	beq.n	8004644 <_printf_common+0xa4>
 8004606:	6823      	ldr	r3, [r4, #0]
 8004608:	68e5      	ldr	r5, [r4, #12]
 800460a:	6832      	ldr	r2, [r6, #0]
 800460c:	f003 0306 	and.w	r3, r3, #6
 8004610:	2b04      	cmp	r3, #4
 8004612:	bf08      	it	eq
 8004614:	1aad      	subeq	r5, r5, r2
 8004616:	68a3      	ldr	r3, [r4, #8]
 8004618:	6922      	ldr	r2, [r4, #16]
 800461a:	bf0c      	ite	eq
 800461c:	ea25 75e5 	biceq.w	r5, r5, r5, asr #31
 8004620:	2500      	movne	r5, #0
 8004622:	4293      	cmp	r3, r2
 8004624:	bfc4      	itt	gt
 8004626:	1a9b      	subgt	r3, r3, r2
 8004628:	18ed      	addgt	r5, r5, r3
 800462a:	2600      	movs	r6, #0
 800462c:	341a      	adds	r4, #26
 800462e:	42b5      	cmp	r5, r6
 8004630:	d11a      	bne.n	8004668 <_printf_common+0xc8>
 8004632:	2000      	movs	r0, #0
 8004634:	e008      	b.n	8004648 <_printf_common+0xa8>
 8004636:	2301      	movs	r3, #1
 8004638:	4652      	mov	r2, sl
 800463a:	4649      	mov	r1, r9
 800463c:	4638      	mov	r0, r7
 800463e:	47c0      	blx	r8
 8004640:	3001      	adds	r0, #1
 8004642:	d103      	bne.n	800464c <_printf_common+0xac>
 8004644:	f04f 30ff 	mov.w	r0, #4294967295
 8004648:	e8bd 87f0 	ldmia.w	sp!, {r4, r5, r6, r7, r8, r9, sl, pc}
 800464c:	3501      	adds	r5, #1
 800464e:	e7c6      	b.n	80045de <_printf_common+0x3e>
 8004650:	18e1      	adds	r1, r4, r3
 8004652:	1c5a      	adds	r2, r3, #1
 8004654:	2030      	movs	r0, #48	; 0x30
 8004656:	f881 0043 	strb.w	r0, [r1, #67]	; 0x43
 800465a:	4422      	add	r2, r4
 800465c:	f894 1045 	ldrb.w	r1, [r4, #69]	; 0x45
 8004660:	f882 1043 	strb.w	r1, [r2, #67]	; 0x43
 8004664:	3302      	adds	r3, #2
 8004666:	e7c7      	b.n	80045f8 <_printf_common+0x58>
 8004668:	2301      	movs	r3, #1
 800466a:	4622      	mov	r2, r4
 800466c:	4649      	mov	r1, r9
 800466e:	4638      	mov	r0, r7
 8004670:	47c0      	blx	r8
 8004672:	3001      	adds	r0, #1
 8004674:	d0e6      	beq.n	8004644 <_printf_common+0xa4>
 8004676:	3601      	adds	r6, #1
 8004678:	e7d9      	b.n	800462e <_printf_common+0x8e>
	...

0800467c <_printf_i>:
 800467c:	e92d 47ff 	stmdb	sp!, {r0, r1, r2, r3, r4, r5, r6, r7, r8, r9, sl, lr}
 8004680:	7e0f      	ldrb	r7, [r1, #24]
 8004682:	9d0c      	ldr	r5, [sp, #48]	; 0x30
 8004684:	2f78      	cmp	r7, #120	; 0x78
 8004686:	4691      	mov	r9, r2
 8004688:	4680      	mov	r8, r0
 800468a:	460c      	mov	r4, r1
 800468c:	469a      	mov	sl, r3
 800468e:	f101 0243 	add.w	r2, r1, #67	; 0x43
 8004692:	d807      	bhi.n	80046a4 <_printf_i+0x28>
 8004694:	2f62      	cmp	r7, #98	; 0x62
 8004696:	d80a      	bhi.n	80046ae <_printf_i+0x32>
 8004698:	2f00      	cmp	r7, #0
 800469a:	f000 80d8 	beq.w	800484e <_printf_i+0x1d2>
 800469e:	2f58      	cmp	r7, #88	; 0x58
 80046a0:	f000 80a3 	beq.w	80047ea <_printf_i+0x16e>
 80046a4:	f104 0542 	add.w	r5, r4, #66	; 0x42
 80046a8:	f884 7042 	strb.w	r7, [r4, #66]	; 0x42
 80046ac:	e03a      	b.n	8004724 <_printf_i+0xa8>
 80046ae:	f1a7 0363 	sub.w	r3, r7, #99	; 0x63
 80046b2:	2b15      	cmp	r3, #21
 80046b4:	d8f6      	bhi.n	80046a4 <_printf_i+0x28>
 80046b6:	a101      	add	r1, pc, #4	; (adr r1, 80046bc <_printf_i+0x40>)
 80046b8:	f851 f023 	ldr.w	pc, [r1, r3, lsl #2]
 80046bc:	08004715 	.word	0x08004715
 80046c0:	08004729 	.word	0x08004729
 80046c4:	080046a5 	.word	0x080046a5
 80046c8:	080046a5 	.word	0x080046a5
 80046cc:	080046a5 	.word	0x080046a5
 80046d0:	080046a5 	.word	0x080046a5
 80046d4:	08004729 	.word	0x08004729
 80046d8:	080046a5 	.word	0x080046a5
 80046dc:	080046a5 	.word	0x080046a5
 80046e0:	080046a5 	.word	0x080046a5
 80046e4:	080046a5 	.word	0x080046a5
 80046e8:	08004835 	.word	0x08004835
 80046ec:	08004759 	.word	0x08004759
 80046f0:	08004817 	.word	0x08004817
 80046f4:	080046a5 	.word	0x080046a5
 80046f8:	080046a5 	.word	0x080046a5
 80046fc:	08004857 	.word	0x08004857
 8004700:	080046a5 	.word	0x080046a5
 8004704:	08004759 	.word	0x08004759
 8004708:	080046a5 	.word	0x080046a5
 800470c:	080046a5 	.word	0x080046a5
 8004710:	0800481f 	.word	0x0800481f
 8004714:	682b      	ldr	r3, [r5, #0]
 8004716:	1d1a      	adds	r2, r3, #4
 8004718:	681b      	ldr	r3, [r3, #0]
 800471a:	602a      	str	r2, [r5, #0]
 800471c:	f104 0542 	add.w	r5, r4, #66	; 0x42
 8004720:	f884 3042 	strb.w	r3, [r4, #66]	; 0x42
 8004724:	2301      	movs	r3, #1
 8004726:	e0a3      	b.n	8004870 <_printf_i+0x1f4>
 8004728:	6820      	ldr	r0, [r4, #0]
 800472a:	6829      	ldr	r1, [r5, #0]
 800472c:	0606      	lsls	r6, r0, #24
 800472e:	f101 0304 	add.w	r3, r1, #4
 8004732:	d50a      	bpl.n	800474a <_printf_i+0xce>
 8004734:	680e      	ldr	r6, [r1, #0]
 8004736:	602b      	str	r3, [r5, #0]
 8004738:	2e00      	cmp	r6, #0
 800473a:	da03      	bge.n	8004744 <_printf_i+0xc8>
 800473c:	232d      	movs	r3, #45	; 0x2d
 800473e:	4276      	negs	r6, r6
 8004740:	f884 3043 	strb.w	r3, [r4, #67]	; 0x43
 8004744:	485e      	ldr	r0, [pc, #376]	; (80048c0 <_printf_i+0x244>)
 8004746:	230a      	movs	r3, #10
 8004748:	e019      	b.n	800477e <_printf_i+0x102>
 800474a:	680e      	ldr	r6, [r1, #0]
 800474c:	602b      	str	r3, [r5, #0]
 800474e:	f010 0f40 	tst.w	r0, #64	; 0x40
 8004752:	bf18      	it	ne
 8004754:	b236      	sxthne	r6, r6
 8004756:	e7ef      	b.n	8004738 <_printf_i+0xbc>
 8004758:	682b      	ldr	r3, [r5, #0]
 800475a:	6820      	ldr	r0, [r4, #0]
 800475c:	1d19      	adds	r1, r3, #4
 800475e:	6029      	str	r1, [r5, #0]
 8004760:	0601      	lsls	r1, r0, #24
 8004762:	d501      	bpl.n	8004768 <_printf_i+0xec>
 8004764:	681e      	ldr	r6, [r3, #0]
 8004766:	e002      	b.n	800476e <_printf_i+0xf2>
 8004768:	0646      	lsls	r6, r0, #25
 800476a:	d5fb      	bpl.n	8004764 <_printf_i+0xe8>
 800476c:	881e      	ldrh	r6, [r3, #0]
 800476e:	4854      	ldr	r0, [pc, #336]	; (80048c0 <_printf_i+0x244>)
 8004770:	2f6f      	cmp	r7, #111	; 0x6f
 8004772:	bf0c      	ite	eq
 8004774:	2308      	moveq	r3, #8
 8004776:	230a      	movne	r3, #10
 8004778:	2100      	movs	r1, #0
 800477a:	f884 1043 	strb.w	r1, [r4, #67]	; 0x43
 800477e:	6865      	ldr	r5, [r4, #4]
 8004780:	60a5      	str	r5, [r4, #8]
 8004782:	2d00      	cmp	r5, #0
 8004784:	bfa2      	ittt	ge
 8004786:	6821      	ldrge	r1, [r4, #0]
 8004788:	f021 0104 	bicge.w	r1, r1, #4
 800478c:	6021      	strge	r1, [r4, #0]
 800478e:	b90e      	cbnz	r6, 8004794 <_printf_i+0x118>
 8004790:	2d00      	cmp	r5, #0
 8004792:	d04d      	beq.n	8004830 <_printf_i+0x1b4>
 8004794:	4615      	mov	r5, r2
 8004796:	fbb6 f1f3 	udiv	r1, r6, r3
 800479a:	fb03 6711 	mls	r7, r3, r1, r6
 800479e:	5dc7      	ldrb	r7, [r0, r7]
 80047a0:	f805 7d01 	strb.w	r7, [r5, #-1]!
 80047a4:	4637      	mov	r7, r6
 80047a6:	42bb      	cmp	r3, r7
 80047a8:	460e      	mov	r6, r1
 80047aa:	d9f4      	bls.n	8004796 <_printf_i+0x11a>
 80047ac:	2b08      	cmp	r3, #8
 80047ae:	d10b      	bne.n	80047c8 <_printf_i+0x14c>
 80047b0:	6823      	ldr	r3, [r4, #0]
 80047b2:	07de      	lsls	r6, r3, #31
 80047b4:	d508      	bpl.n	80047c8 <_printf_i+0x14c>
 80047b6:	6923      	ldr	r3, [r4, #16]
 80047b8:	6861      	ldr	r1, [r4, #4]
 80047ba:	4299      	cmp	r1, r3
 80047bc:	bfde      	ittt	le
 80047be:	2330      	movle	r3, #48	; 0x30
 80047c0:	f805 3c01 	strble.w	r3, [r5, #-1]
 80047c4:	f105 35ff 	addle.w	r5, r5, #4294967295
 80047c8:	1b52      	subs	r2, r2, r5
 80047ca:	6122      	str	r2, [r4, #16]
 80047cc:	f8cd a000 	str.w	sl, [sp]
 80047d0:	464b      	mov	r3, r9
 80047d2:	aa03      	add	r2, sp, #12
 80047d4:	4621      	mov	r1, r4
 80047d6:	4640      	mov	r0, r8
 80047d8:	f7ff fee2 	bl	80045a0 <_printf_common>
 80047dc:	3001      	adds	r0, #1
 80047de:	d14c      	bne.n	800487a <_printf_i+0x1fe>
 80047e0:	f04f 30ff 	mov.w	r0, #4294967295
 80047e4:	b004      	add	sp, #16
 80047e6:	e8bd 87f0 	ldmia.w	sp!, {r4, r5, r6, r7, r8, r9, sl, pc}
 80047ea:	4835      	ldr	r0, [pc, #212]	; (80048c0 <_printf_i+0x244>)
 80047ec:	f881 7045 	strb.w	r7, [r1, #69]	; 0x45
 80047f0:	6829      	ldr	r1, [r5, #0]
 80047f2:	6823      	ldr	r3, [r4, #0]
 80047f4:	f851 6b04 	ldr.w	r6, [r1], #4
 80047f8:	6029      	str	r1, [r5, #0]
 80047fa:	061d      	lsls	r5, r3, #24
 80047fc:	d514      	bpl.n	8004828 <_printf_i+0x1ac>
 80047fe:	07df      	lsls	r7, r3, #31
 8004800:	bf44      	itt	mi
 8004802:	f043 0320 	orrmi.w	r3, r3, #32
 8004806:	6023      	strmi	r3, [r4, #0]
 8004808:	b91e      	cbnz	r6, 8004812 <_printf_i+0x196>
 800480a:	6823      	ldr	r3, [r4, #0]
 800480c:	f023 0320 	bic.w	r3, r3, #32
 8004810:	6023      	str	r3, [r4, #0]
 8004812:	2310      	movs	r3, #16
 8004814:	e7b0      	b.n	8004778 <_printf_i+0xfc>
 8004816:	6823      	ldr	r3, [r4, #0]
 8004818:	f043 0320 	orr.w	r3, r3, #32
 800481c:	6023      	str	r3, [r4, #0]
 800481e:	2378      	movs	r3, #120	; 0x78
 8004820:	4828      	ldr	r0, [pc, #160]	; (80048c4 <_printf_i+0x248>)
 8004822:	f884 3045 	strb.w	r3, [r4, #69]	; 0x45
 8004826:	e7e3      	b.n	80047f0 <_printf_i+0x174>
 8004828:	0659      	lsls	r1, r3, #25
 800482a:	bf48      	it	mi
 800482c:	b2b6      	uxthmi	r6, r6
 800482e:	e7e6      	b.n	80047fe <_printf_i+0x182>
 8004830:	4615      	mov	r5, r2
 8004832:	e7bb      	b.n	80047ac <_printf_i+0x130>
 8004834:	682b      	ldr	r3, [r5, #0]
 8004836:	6826      	ldr	r6, [r4, #0]
 8004838:	6961      	ldr	r1, [r4, #20]
 800483a:	1d18      	adds	r0, r3, #4
 800483c:	6028      	str	r0, [r5, #0]
 800483e:	0635      	lsls	r5, r6, #24
 8004840:	681b      	ldr	r3, [r3, #0]
 8004842:	d501      	bpl.n	8004848 <_printf_i+0x1cc>
 8004844:	6019      	str	r1, [r3, #0]
 8004846:	e002      	b.n	800484e <_printf_i+0x1d2>
 8004848:	0670      	lsls	r0, r6, #25
 800484a:	d5fb      	bpl.n	8004844 <_printf_i+0x1c8>
 800484c:	8019      	strh	r1, [r3, #0]
 800484e:	2300      	movs	r3, #0
 8004850:	6123      	str	r3, [r4, #16]
 8004852:	4615      	mov	r5, r2
 8004854:	e7ba      	b.n	80047cc <_printf_i+0x150>
 8004856:	682b      	ldr	r3, [r5, #0]
 8004858:	1d1a      	adds	r2, r3, #4
 800485a:	602a      	str	r2, [r5, #0]
 800485c:	681d      	ldr	r5, [r3, #0]
 800485e:	6862      	ldr	r2, [r4, #4]
 8004860:	2100      	movs	r1, #0
 8004862:	4628      	mov	r0, r5
 8004864:	f7fb fccc 	bl	8000200 <memchr>
 8004868:	b108      	cbz	r0, 800486e <_printf_i+0x1f2>
 800486a:	1b40      	subs	r0, r0, r5
 800486c:	6060      	str	r0, [r4, #4]
 800486e:	6863      	ldr	r3, [r4, #4]
 8004870:	6123      	str	r3, [r4, #16]
 8004872:	2300      	movs	r3, #0
 8004874:	f884 3043 	strb.w	r3, [r4, #67]	; 0x43
 8004878:	e7a8      	b.n	80047cc <_printf_i+0x150>
 800487a:	6923      	ldr	r3, [r4, #16]
 800487c:	462a      	mov	r2, r5
 800487e:	4649      	mov	r1, r9
 8004880:	4640      	mov	r0, r8
 8004882:	47d0      	blx	sl
 8004884:	3001      	adds	r0, #1
 8004886:	d0ab      	beq.n	80047e0 <_printf_i+0x164>
 8004888:	6823      	ldr	r3, [r4, #0]
 800488a:	079b      	lsls	r3, r3, #30
 800488c:	d413      	bmi.n	80048b6 <_printf_i+0x23a>
 800488e:	68e0      	ldr	r0, [r4, #12]
 8004890:	9b03      	ldr	r3, [sp, #12]
 8004892:	4298      	cmp	r0, r3
 8004894:	bfb8      	it	lt
 8004896:	4618      	movlt	r0, r3
 8004898:	e7a4      	b.n	80047e4 <_printf_i+0x168>
 800489a:	2301      	movs	r3, #1
 800489c:	4632      	mov	r2, r6
 800489e:	4649      	mov	r1, r9
 80048a0:	4640      	mov	r0, r8
 80048a2:	47d0      	blx	sl
 80048a4:	3001      	adds	r0, #1
 80048a6:	d09b      	beq.n	80047e0 <_printf_i+0x164>
 80048a8:	3501      	adds	r5, #1
 80048aa:	68e3      	ldr	r3, [r4, #12]
 80048ac:	9903      	ldr	r1, [sp, #12]
 80048ae:	1a5b      	subs	r3, r3, r1
 80048b0:	42ab      	cmp	r3, r5
 80048b2:	dcf2      	bgt.n	800489a <_printf_i+0x21e>
 80048b4:	e7eb      	b.n	800488e <_printf_i+0x212>
 80048b6:	2500      	movs	r5, #0
 80048b8:	f104 0619 	add.w	r6, r4, #25
 80048bc:	e7f5      	b.n	80048aa <_printf_i+0x22e>
 80048be:	bf00      	nop
 80048c0:	08006cce 	.word	0x08006cce
 80048c4:	08006cdf 	.word	0x08006cdf

080048c8 <iprintf>:
 80048c8:	b40f      	push	{r0, r1, r2, r3}
 80048ca:	4b0a      	ldr	r3, [pc, #40]	; (80048f4 <iprintf+0x2c>)
 80048cc:	b513      	push	{r0, r1, r4, lr}
 80048ce:	681c      	ldr	r4, [r3, #0]
 80048d0:	b124      	cbz	r4, 80048dc <iprintf+0x14>
 80048d2:	69a3      	ldr	r3, [r4, #24]
 80048d4:	b913      	cbnz	r3, 80048dc <iprintf+0x14>
 80048d6:	4620      	mov	r0, r4
 80048d8:	f001 f8da 	bl	8005a90 <__sinit>
 80048dc:	ab05      	add	r3, sp, #20
 80048de:	9a04      	ldr	r2, [sp, #16]
 80048e0:	68a1      	ldr	r1, [r4, #8]
 80048e2:	9301      	str	r3, [sp, #4]
 80048e4:	4620      	mov	r0, r4
 80048e6:	f001 fe97 	bl	8006618 <_vfiprintf_r>
 80048ea:	b002      	add	sp, #8
 80048ec:	e8bd 4010 	ldmia.w	sp!, {r4, lr}
 80048f0:	b004      	add	sp, #16
 80048f2:	4770      	bx	lr
 80048f4:	2000001c 	.word	0x2000001c

080048f8 <_puts_r>:
 80048f8:	b570      	push	{r4, r5, r6, lr}
 80048fa:	460e      	mov	r6, r1
 80048fc:	4605      	mov	r5, r0
 80048fe:	b118      	cbz	r0, 8004908 <_puts_r+0x10>
 8004900:	6983      	ldr	r3, [r0, #24]
 8004902:	b90b      	cbnz	r3, 8004908 <_puts_r+0x10>
 8004904:	f001 f8c4 	bl	8005a90 <__sinit>
 8004908:	69ab      	ldr	r3, [r5, #24]
 800490a:	68ac      	ldr	r4, [r5, #8]
 800490c:	b913      	cbnz	r3, 8004914 <_puts_r+0x1c>
 800490e:	4628      	mov	r0, r5
 8004910:	f001 f8be 	bl	8005a90 <__sinit>
 8004914:	4b2c      	ldr	r3, [pc, #176]	; (80049c8 <_puts_r+0xd0>)
 8004916:	429c      	cmp	r4, r3
 8004918:	d120      	bne.n	800495c <_puts_r+0x64>
 800491a:	686c      	ldr	r4, [r5, #4]
 800491c:	6e63      	ldr	r3, [r4, #100]	; 0x64
 800491e:	07db      	lsls	r3, r3, #31
 8004920:	d405      	bmi.n	800492e <_puts_r+0x36>
 8004922:	89a3      	ldrh	r3, [r4, #12]
 8004924:	0598      	lsls	r0, r3, #22
 8004926:	d402      	bmi.n	800492e <_puts_r+0x36>
 8004928:	6da0      	ldr	r0, [r4, #88]	; 0x58
 800492a:	f001 f954 	bl	8005bd6 <__retarget_lock_acquire_recursive>
 800492e:	89a3      	ldrh	r3, [r4, #12]
 8004930:	0719      	lsls	r1, r3, #28
 8004932:	d51d      	bpl.n	8004970 <_puts_r+0x78>
 8004934:	6923      	ldr	r3, [r4, #16]
 8004936:	b1db      	cbz	r3, 8004970 <_puts_r+0x78>
 8004938:	3e01      	subs	r6, #1
 800493a:	68a3      	ldr	r3, [r4, #8]
 800493c:	f816 1f01 	ldrb.w	r1, [r6, #1]!
 8004940:	3b01      	subs	r3, #1
 8004942:	60a3      	str	r3, [r4, #8]
 8004944:	bb39      	cbnz	r1, 8004996 <_puts_r+0x9e>
 8004946:	2b00      	cmp	r3, #0
 8004948:	da38      	bge.n	80049bc <_puts_r+0xc4>
 800494a:	4622      	mov	r2, r4
 800494c:	210a      	movs	r1, #10
 800494e:	4628      	mov	r0, r5
 8004950:	f000 f848 	bl	80049e4 <__swbuf_r>
 8004954:	3001      	adds	r0, #1
 8004956:	d011      	beq.n	800497c <_puts_r+0x84>
 8004958:	250a      	movs	r5, #10
 800495a:	e011      	b.n	8004980 <_puts_r+0x88>
 800495c:	4b1b      	ldr	r3, [pc, #108]	; (80049cc <_puts_r+0xd4>)
 800495e:	429c      	cmp	r4, r3
 8004960:	d101      	bne.n	8004966 <_puts_r+0x6e>
 8004962:	68ac      	ldr	r4, [r5, #8]
 8004964:	e7da      	b.n	800491c <_puts_r+0x24>
 8004966:	4b1a      	ldr	r3, [pc, #104]	; (80049d0 <_puts_r+0xd8>)
 8004968:	429c      	cmp	r4, r3
 800496a:	bf08      	it	eq
 800496c:	68ec      	ldreq	r4, [r5, #12]
 800496e:	e7d5      	b.n	800491c <_puts_r+0x24>
 8004970:	4621      	mov	r1, r4
 8004972:	4628      	mov	r0, r5
 8004974:	f000 f888 	bl	8004a88 <__swsetup_r>
 8004978:	2800      	cmp	r0, #0
 800497a:	d0dd      	beq.n	8004938 <_puts_r+0x40>
 800497c:	f04f 35ff 	mov.w	r5, #4294967295
 8004980:	6e63      	ldr	r3, [r4, #100]	; 0x64
 8004982:	07da      	lsls	r2, r3, #31
 8004984:	d405      	bmi.n	8004992 <_puts_r+0x9a>
 8004986:	89a3      	ldrh	r3, [r4, #12]
 8004988:	059b      	lsls	r3, r3, #22
 800498a:	d402      	bmi.n	8004992 <_puts_r+0x9a>
 800498c:	6da0      	ldr	r0, [r4, #88]	; 0x58
 800498e:	f001 f923 	bl	8005bd8 <__retarget_lock_release_recursive>
 8004992:	4628      	mov	r0, r5
 8004994:	bd70      	pop	{r4, r5, r6, pc}
 8004996:	2b00      	cmp	r3, #0
 8004998:	da04      	bge.n	80049a4 <_puts_r+0xac>
 800499a:	69a2      	ldr	r2, [r4, #24]
 800499c:	429a      	cmp	r2, r3
 800499e:	dc06      	bgt.n	80049ae <_puts_r+0xb6>
 80049a0:	290a      	cmp	r1, #10
 80049a2:	d004      	beq.n	80049ae <_puts_r+0xb6>
 80049a4:	6823      	ldr	r3, [r4, #0]
 80049a6:	1c5a      	adds	r2, r3, #1
 80049a8:	6022      	str	r2, [r4, #0]
 80049aa:	7019      	strb	r1, [r3, #0]
 80049ac:	e7c5      	b.n	800493a <_puts_r+0x42>
 80049ae:	4622      	mov	r2, r4
 80049b0:	4628      	mov	r0, r5
 80049b2:	f000 f817 	bl	80049e4 <__swbuf_r>
 80049b6:	3001      	adds	r0, #1
 80049b8:	d1bf      	bne.n	800493a <_puts_r+0x42>
 80049ba:	e7df      	b.n	800497c <_puts_r+0x84>
 80049bc:	6823      	ldr	r3, [r4, #0]
 80049be:	250a      	movs	r5, #10
 80049c0:	1c5a      	adds	r2, r3, #1
 80049c2:	6022      	str	r2, [r4, #0]
 80049c4:	701d      	strb	r5, [r3, #0]
 80049c6:	e7db      	b.n	8004980 <_puts_r+0x88>
 80049c8:	08006da0 	.word	0x08006da0
 80049cc:	08006dc0 	.word	0x08006dc0
 80049d0:	08006d80 	.word	0x08006d80

080049d4 <puts>:
 80049d4:	4b02      	ldr	r3, [pc, #8]	; (80049e0 <puts+0xc>)
 80049d6:	4601      	mov	r1, r0
 80049d8:	6818      	ldr	r0, [r3, #0]
 80049da:	f7ff bf8d 	b.w	80048f8 <_puts_r>
 80049de:	bf00      	nop
 80049e0:	2000001c 	.word	0x2000001c

080049e4 <__swbuf_r>:
 80049e4:	b5f8      	push	{r3, r4, r5, r6, r7, lr}
 80049e6:	460e      	mov	r6, r1
 80049e8:	4614      	mov	r4, r2
 80049ea:	4605      	mov	r5, r0
 80049ec:	b118      	cbz	r0, 80049f6 <__swbuf_r+0x12>
 80049ee:	6983      	ldr	r3, [r0, #24]
 80049f0:	b90b      	cbnz	r3, 80049f6 <__swbuf_r+0x12>
 80049f2:	f001 f84d 	bl	8005a90 <__sinit>
 80049f6:	4b21      	ldr	r3, [pc, #132]	; (8004a7c <__swbuf_r+0x98>)
 80049f8:	429c      	cmp	r4, r3
 80049fa:	d12b      	bne.n	8004a54 <__swbuf_r+0x70>
 80049fc:	686c      	ldr	r4, [r5, #4]
 80049fe:	69a3      	ldr	r3, [r4, #24]
 8004a00:	60a3      	str	r3, [r4, #8]
 8004a02:	89a3      	ldrh	r3, [r4, #12]
 8004a04:	071a      	lsls	r2, r3, #28
 8004a06:	d52f      	bpl.n	8004a68 <__swbuf_r+0x84>
 8004a08:	6923      	ldr	r3, [r4, #16]
 8004a0a:	b36b      	cbz	r3, 8004a68 <__swbuf_r+0x84>
 8004a0c:	6923      	ldr	r3, [r4, #16]
 8004a0e:	6820      	ldr	r0, [r4, #0]
 8004a10:	1ac0      	subs	r0, r0, r3
 8004a12:	6963      	ldr	r3, [r4, #20]
 8004a14:	b2f6      	uxtb	r6, r6
 8004a16:	4283      	cmp	r3, r0
 8004a18:	4637      	mov	r7, r6
 8004a1a:	dc04      	bgt.n	8004a26 <__swbuf_r+0x42>
 8004a1c:	4621      	mov	r1, r4
 8004a1e:	4628      	mov	r0, r5
 8004a20:	f000 ffa2 	bl	8005968 <_fflush_r>
 8004a24:	bb30      	cbnz	r0, 8004a74 <__swbuf_r+0x90>
 8004a26:	68a3      	ldr	r3, [r4, #8]
 8004a28:	3b01      	subs	r3, #1
 8004a2a:	60a3      	str	r3, [r4, #8]
 8004a2c:	6823      	ldr	r3, [r4, #0]
 8004a2e:	1c5a      	adds	r2, r3, #1
 8004a30:	6022      	str	r2, [r4, #0]
 8004a32:	701e      	strb	r6, [r3, #0]
 8004a34:	6963      	ldr	r3, [r4, #20]
 8004a36:	3001      	adds	r0, #1
 8004a38:	4283      	cmp	r3, r0
 8004a3a:	d004      	beq.n	8004a46 <__swbuf_r+0x62>
 8004a3c:	89a3      	ldrh	r3, [r4, #12]
 8004a3e:	07db      	lsls	r3, r3, #31
 8004a40:	d506      	bpl.n	8004a50 <__swbuf_r+0x6c>
 8004a42:	2e0a      	cmp	r6, #10
 8004a44:	d104      	bne.n	8004a50 <__swbuf_r+0x6c>
 8004a46:	4621      	mov	r1, r4
 8004a48:	4628      	mov	r0, r5
 8004a4a:	f000 ff8d 	bl	8005968 <_fflush_r>
 8004a4e:	b988      	cbnz	r0, 8004a74 <__swbuf_r+0x90>
 8004a50:	4638      	mov	r0, r7
 8004a52:	bdf8      	pop	{r3, r4, r5, r6, r7, pc}
 8004a54:	4b0a      	ldr	r3, [pc, #40]	; (8004a80 <__swbuf_r+0x9c>)
 8004a56:	429c      	cmp	r4, r3
 8004a58:	d101      	bne.n	8004a5e <__swbuf_r+0x7a>
 8004a5a:	68ac      	ldr	r4, [r5, #8]
 8004a5c:	e7cf      	b.n	80049fe <__swbuf_r+0x1a>
 8004a5e:	4b09      	ldr	r3, [pc, #36]	; (8004a84 <__swbuf_r+0xa0>)
 8004a60:	429c      	cmp	r4, r3
 8004a62:	bf08      	it	eq
 8004a64:	68ec      	ldreq	r4, [r5, #12]
 8004a66:	e7ca      	b.n	80049fe <__swbuf_r+0x1a>
 8004a68:	4621      	mov	r1, r4
 8004a6a:	4628      	mov	r0, r5
 8004a6c:	f000 f80c 	bl	8004a88 <__swsetup_r>
 8004a70:	2800      	cmp	r0, #0
 8004a72:	d0cb      	beq.n	8004a0c <__swbuf_r+0x28>
 8004a74:	f04f 37ff 	mov.w	r7, #4294967295
 8004a78:	e7ea      	b.n	8004a50 <__swbuf_r+0x6c>
 8004a7a:	bf00      	nop
 8004a7c:	08006da0 	.word	0x08006da0
 8004a80:	08006dc0 	.word	0x08006dc0
 8004a84:	08006d80 	.word	0x08006d80

08004a88 <__swsetup_r>:
 8004a88:	4b32      	ldr	r3, [pc, #200]	; (8004b54 <__swsetup_r+0xcc>)
 8004a8a:	b570      	push	{r4, r5, r6, lr}
 8004a8c:	681d      	ldr	r5, [r3, #0]
 8004a8e:	4606      	mov	r6, r0
 8004a90:	460c      	mov	r4, r1
 8004a92:	b125      	cbz	r5, 8004a9e <__swsetup_r+0x16>
 8004a94:	69ab      	ldr	r3, [r5, #24]
 8004a96:	b913      	cbnz	r3, 8004a9e <__swsetup_r+0x16>
 8004a98:	4628      	mov	r0, r5
 8004a9a:	f000 fff9 	bl	8005a90 <__sinit>
 8004a9e:	4b2e      	ldr	r3, [pc, #184]	; (8004b58 <__swsetup_r+0xd0>)
 8004aa0:	429c      	cmp	r4, r3
 8004aa2:	d10f      	bne.n	8004ac4 <__swsetup_r+0x3c>
 8004aa4:	686c      	ldr	r4, [r5, #4]
 8004aa6:	89a3      	ldrh	r3, [r4, #12]
 8004aa8:	f9b4 200c 	ldrsh.w	r2, [r4, #12]
 8004aac:	0719      	lsls	r1, r3, #28
 8004aae:	d42c      	bmi.n	8004b0a <__swsetup_r+0x82>
 8004ab0:	06dd      	lsls	r5, r3, #27
 8004ab2:	d411      	bmi.n	8004ad8 <__swsetup_r+0x50>
 8004ab4:	2309      	movs	r3, #9
 8004ab6:	6033      	str	r3, [r6, #0]
 8004ab8:	f042 0340 	orr.w	r3, r2, #64	; 0x40
 8004abc:	81a3      	strh	r3, [r4, #12]
 8004abe:	f04f 30ff 	mov.w	r0, #4294967295
 8004ac2:	e03e      	b.n	8004b42 <__swsetup_r+0xba>
 8004ac4:	4b25      	ldr	r3, [pc, #148]	; (8004b5c <__swsetup_r+0xd4>)
 8004ac6:	429c      	cmp	r4, r3
 8004ac8:	d101      	bne.n	8004ace <__swsetup_r+0x46>
 8004aca:	68ac      	ldr	r4, [r5, #8]
 8004acc:	e7eb      	b.n	8004aa6 <__swsetup_r+0x1e>
 8004ace:	4b24      	ldr	r3, [pc, #144]	; (8004b60 <__swsetup_r+0xd8>)
 8004ad0:	429c      	cmp	r4, r3
 8004ad2:	bf08      	it	eq
 8004ad4:	68ec      	ldreq	r4, [r5, #12]
 8004ad6:	e7e6      	b.n	8004aa6 <__swsetup_r+0x1e>
 8004ad8:	0758      	lsls	r0, r3, #29
 8004ada:	d512      	bpl.n	8004b02 <__swsetup_r+0x7a>
 8004adc:	6b61      	ldr	r1, [r4, #52]	; 0x34
 8004ade:	b141      	cbz	r1, 8004af2 <__swsetup_r+0x6a>
 8004ae0:	f104 0344 	add.w	r3, r4, #68	; 0x44
 8004ae4:	4299      	cmp	r1, r3
 8004ae6:	d002      	beq.n	8004aee <__swsetup_r+0x66>
 8004ae8:	4630      	mov	r0, r6
 8004aea:	f001 fc8b 	bl	8006404 <_free_r>
 8004aee:	2300      	movs	r3, #0
 8004af0:	6363      	str	r3, [r4, #52]	; 0x34
 8004af2:	89a3      	ldrh	r3, [r4, #12]
 8004af4:	f023 0324 	bic.w	r3, r3, #36	; 0x24
 8004af8:	81a3      	strh	r3, [r4, #12]
 8004afa:	2300      	movs	r3, #0
 8004afc:	6063      	str	r3, [r4, #4]
 8004afe:	6923      	ldr	r3, [r4, #16]
 8004b00:	6023      	str	r3, [r4, #0]
 8004b02:	89a3      	ldrh	r3, [r4, #12]
 8004b04:	f043 0308 	orr.w	r3, r3, #8
 8004b08:	81a3      	strh	r3, [r4, #12]
 8004b0a:	6923      	ldr	r3, [r4, #16]
 8004b0c:	b94b      	cbnz	r3, 8004b22 <__swsetup_r+0x9a>
 8004b0e:	89a3      	ldrh	r3, [r4, #12]
 8004b10:	f403 7320 	and.w	r3, r3, #640	; 0x280
 8004b14:	f5b3 7f00 	cmp.w	r3, #512	; 0x200
 8004b18:	d003      	beq.n	8004b22 <__swsetup_r+0x9a>
 8004b1a:	4621      	mov	r1, r4
 8004b1c:	4630      	mov	r0, r6
 8004b1e:	f001 f881 	bl	8005c24 <__smakebuf_r>
 8004b22:	89a0      	ldrh	r0, [r4, #12]
 8004b24:	f9b4 200c 	ldrsh.w	r2, [r4, #12]
 8004b28:	f010 0301 	ands.w	r3, r0, #1
 8004b2c:	d00a      	beq.n	8004b44 <__swsetup_r+0xbc>
 8004b2e:	2300      	movs	r3, #0
 8004b30:	60a3      	str	r3, [r4, #8]
 8004b32:	6963      	ldr	r3, [r4, #20]
 8004b34:	425b      	negs	r3, r3
 8004b36:	61a3      	str	r3, [r4, #24]
 8004b38:	6923      	ldr	r3, [r4, #16]
 8004b3a:	b943      	cbnz	r3, 8004b4e <__swsetup_r+0xc6>
 8004b3c:	f010 0080 	ands.w	r0, r0, #128	; 0x80
 8004b40:	d1ba      	bne.n	8004ab8 <__swsetup_r+0x30>
 8004b42:	bd70      	pop	{r4, r5, r6, pc}
 8004b44:	0781      	lsls	r1, r0, #30
 8004b46:	bf58      	it	pl
 8004b48:	6963      	ldrpl	r3, [r4, #20]
 8004b4a:	60a3      	str	r3, [r4, #8]
 8004b4c:	e7f4      	b.n	8004b38 <__swsetup_r+0xb0>
 8004b4e:	2000      	movs	r0, #0
 8004b50:	e7f7      	b.n	8004b42 <__swsetup_r+0xba>
 8004b52:	bf00      	nop
 8004b54:	2000001c 	.word	0x2000001c
 8004b58:	08006da0 	.word	0x08006da0
 8004b5c:	08006dc0 	.word	0x08006dc0
 8004b60:	08006d80 	.word	0x08006d80

08004b64 <quorem>:
 8004b64:	e92d 4ff7 	stmdb	sp!, {r0, r1, r2, r4, r5, r6, r7, r8, r9, sl, fp, lr}
 8004b68:	6903      	ldr	r3, [r0, #16]
 8004b6a:	690c      	ldr	r4, [r1, #16]
 8004b6c:	42a3      	cmp	r3, r4
 8004b6e:	4607      	mov	r7, r0
 8004b70:	f2c0 8081 	blt.w	8004c76 <quorem+0x112>
 8004b74:	3c01      	subs	r4, #1
 8004b76:	f101 0814 	add.w	r8, r1, #20
 8004b7a:	f100 0514 	add.w	r5, r0, #20
 8004b7e:	eb05 0384 	add.w	r3, r5, r4, lsl #2
 8004b82:	9301      	str	r3, [sp, #4]
 8004b84:	f858 3024 	ldr.w	r3, [r8, r4, lsl #2]
 8004b88:	f855 2024 	ldr.w	r2, [r5, r4, lsl #2]
 8004b8c:	3301      	adds	r3, #1
 8004b8e:	429a      	cmp	r2, r3
 8004b90:	ea4f 0b84 	mov.w	fp, r4, lsl #2
 8004b94:	eb08 0984 	add.w	r9, r8, r4, lsl #2
 8004b98:	fbb2 f6f3 	udiv	r6, r2, r3
 8004b9c:	d331      	bcc.n	8004c02 <quorem+0x9e>
 8004b9e:	f04f 0e00 	mov.w	lr, #0
 8004ba2:	4640      	mov	r0, r8
 8004ba4:	46ac      	mov	ip, r5
 8004ba6:	46f2      	mov	sl, lr
 8004ba8:	f850 2b04 	ldr.w	r2, [r0], #4
 8004bac:	b293      	uxth	r3, r2
 8004bae:	fb06 e303 	mla	r3, r6, r3, lr
 8004bb2:	ea4f 4e13 	mov.w	lr, r3, lsr #16
 8004bb6:	b29b      	uxth	r3, r3
 8004bb8:	ebaa 0303 	sub.w	r3, sl, r3
 8004bbc:	f8dc a000 	ldr.w	sl, [ip]
 8004bc0:	0c12      	lsrs	r2, r2, #16
 8004bc2:	fa13 f38a 	uxtah	r3, r3, sl
 8004bc6:	fb06 e202 	mla	r2, r6, r2, lr
 8004bca:	9300      	str	r3, [sp, #0]
 8004bcc:	9b00      	ldr	r3, [sp, #0]
 8004bce:	ea4f 4e12 	mov.w	lr, r2, lsr #16
 8004bd2:	b292      	uxth	r2, r2
 8004bd4:	ebc2 421a 	rsb	r2, r2, sl, lsr #16
 8004bd8:	eb02 4223 	add.w	r2, r2, r3, asr #16
 8004bdc:	f8bd 3000 	ldrh.w	r3, [sp]
 8004be0:	4581      	cmp	r9, r0
 8004be2:	ea43 4302 	orr.w	r3, r3, r2, lsl #16
 8004be6:	f84c 3b04 	str.w	r3, [ip], #4
 8004bea:	ea4f 4a22 	mov.w	sl, r2, asr #16
 8004bee:	d2db      	bcs.n	8004ba8 <quorem+0x44>
 8004bf0:	f855 300b 	ldr.w	r3, [r5, fp]
 8004bf4:	b92b      	cbnz	r3, 8004c02 <quorem+0x9e>
 8004bf6:	9b01      	ldr	r3, [sp, #4]
 8004bf8:	3b04      	subs	r3, #4
 8004bfa:	429d      	cmp	r5, r3
 8004bfc:	461a      	mov	r2, r3
 8004bfe:	d32e      	bcc.n	8004c5e <quorem+0xfa>
 8004c00:	613c      	str	r4, [r7, #16]
 8004c02:	4638      	mov	r0, r7
 8004c04:	f001 fae6 	bl	80061d4 <__mcmp>
 8004c08:	2800      	cmp	r0, #0
 8004c0a:	db24      	blt.n	8004c56 <quorem+0xf2>
 8004c0c:	3601      	adds	r6, #1
 8004c0e:	4628      	mov	r0, r5
 8004c10:	f04f 0c00 	mov.w	ip, #0
 8004c14:	f858 2b04 	ldr.w	r2, [r8], #4
 8004c18:	f8d0 e000 	ldr.w	lr, [r0]
 8004c1c:	b293      	uxth	r3, r2
 8004c1e:	ebac 0303 	sub.w	r3, ip, r3
 8004c22:	0c12      	lsrs	r2, r2, #16
 8004c24:	fa13 f38e 	uxtah	r3, r3, lr
 8004c28:	ebc2 421e 	rsb	r2, r2, lr, lsr #16
 8004c2c:	eb02 4223 	add.w	r2, r2, r3, asr #16
 8004c30:	b29b      	uxth	r3, r3
 8004c32:	ea43 4302 	orr.w	r3, r3, r2, lsl #16
 8004c36:	45c1      	cmp	r9, r8
 8004c38:	f840 3b04 	str.w	r3, [r0], #4
 8004c3c:	ea4f 4c22 	mov.w	ip, r2, asr #16
 8004c40:	d2e8      	bcs.n	8004c14 <quorem+0xb0>
 8004c42:	f855 2024 	ldr.w	r2, [r5, r4, lsl #2]
 8004c46:	eb05 0384 	add.w	r3, r5, r4, lsl #2
 8004c4a:	b922      	cbnz	r2, 8004c56 <quorem+0xf2>
 8004c4c:	3b04      	subs	r3, #4
 8004c4e:	429d      	cmp	r5, r3
 8004c50:	461a      	mov	r2, r3
 8004c52:	d30a      	bcc.n	8004c6a <quorem+0x106>
 8004c54:	613c      	str	r4, [r7, #16]
 8004c56:	4630      	mov	r0, r6
 8004c58:	b003      	add	sp, #12
 8004c5a:	e8bd 8ff0 	ldmia.w	sp!, {r4, r5, r6, r7, r8, r9, sl, fp, pc}
 8004c5e:	6812      	ldr	r2, [r2, #0]
 8004c60:	3b04      	subs	r3, #4
 8004c62:	2a00      	cmp	r2, #0
 8004c64:	d1cc      	bne.n	8004c00 <quorem+0x9c>
 8004c66:	3c01      	subs	r4, #1
 8004c68:	e7c7      	b.n	8004bfa <quorem+0x96>
 8004c6a:	6812      	ldr	r2, [r2, #0]
 8004c6c:	3b04      	subs	r3, #4
 8004c6e:	2a00      	cmp	r2, #0
 8004c70:	d1f0      	bne.n	8004c54 <quorem+0xf0>
 8004c72:	3c01      	subs	r4, #1
 8004c74:	e7eb      	b.n	8004c4e <quorem+0xea>
 8004c76:	2000      	movs	r0, #0
 8004c78:	e7ee      	b.n	8004c58 <quorem+0xf4>
 8004c7a:	0000      	movs	r0, r0
 8004c7c:	0000      	movs	r0, r0
	...

08004c80 <_dtoa_r>:
 8004c80:	e92d 4ff0 	stmdb	sp!, {r4, r5, r6, r7, r8, r9, sl, fp, lr}
 8004c84:	ed2d 8b04 	vpush	{d8-d9}
 8004c88:	ec57 6b10 	vmov	r6, r7, d0
 8004c8c:	b093      	sub	sp, #76	; 0x4c
 8004c8e:	6a45      	ldr	r5, [r0, #36]	; 0x24
 8004c90:	f8dd 8080 	ldr.w	r8, [sp, #128]	; 0x80
 8004c94:	9106      	str	r1, [sp, #24]
 8004c96:	ee10 aa10 	vmov	sl, s0
 8004c9a:	4604      	mov	r4, r0
 8004c9c:	9209      	str	r2, [sp, #36]	; 0x24
 8004c9e:	930c      	str	r3, [sp, #48]	; 0x30
 8004ca0:	46bb      	mov	fp, r7
 8004ca2:	b975      	cbnz	r5, 8004cc2 <_dtoa_r+0x42>
 8004ca4:	2010      	movs	r0, #16
 8004ca6:	f000 fffd 	bl	8005ca4 <malloc>
 8004caa:	4602      	mov	r2, r0
 8004cac:	6260      	str	r0, [r4, #36]	; 0x24
 8004cae:	b920      	cbnz	r0, 8004cba <_dtoa_r+0x3a>
 8004cb0:	4ba7      	ldr	r3, [pc, #668]	; (8004f50 <_dtoa_r+0x2d0>)
 8004cb2:	21ea      	movs	r1, #234	; 0xea
 8004cb4:	48a7      	ldr	r0, [pc, #668]	; (8004f54 <_dtoa_r+0x2d4>)
 8004cb6:	f001 fe45 	bl	8006944 <__assert_func>
 8004cba:	e9c0 5501 	strd	r5, r5, [r0, #4]
 8004cbe:	6005      	str	r5, [r0, #0]
 8004cc0:	60c5      	str	r5, [r0, #12]
 8004cc2:	6a63      	ldr	r3, [r4, #36]	; 0x24
 8004cc4:	6819      	ldr	r1, [r3, #0]
 8004cc6:	b151      	cbz	r1, 8004cde <_dtoa_r+0x5e>
 8004cc8:	685a      	ldr	r2, [r3, #4]
 8004cca:	604a      	str	r2, [r1, #4]
 8004ccc:	2301      	movs	r3, #1
 8004cce:	4093      	lsls	r3, r2
 8004cd0:	608b      	str	r3, [r1, #8]
 8004cd2:	4620      	mov	r0, r4
 8004cd4:	f001 f83c 	bl	8005d50 <_Bfree>
 8004cd8:	6a63      	ldr	r3, [r4, #36]	; 0x24
 8004cda:	2200      	movs	r2, #0
 8004cdc:	601a      	str	r2, [r3, #0]
 8004cde:	1e3b      	subs	r3, r7, #0
 8004ce0:	bfaa      	itet	ge
 8004ce2:	2300      	movge	r3, #0
 8004ce4:	f023 4b00 	biclt.w	fp, r3, #2147483648	; 0x80000000
 8004ce8:	f8c8 3000 	strge.w	r3, [r8]
 8004cec:	4b9a      	ldr	r3, [pc, #616]	; (8004f58 <_dtoa_r+0x2d8>)
 8004cee:	bfbc      	itt	lt
 8004cf0:	2201      	movlt	r2, #1
 8004cf2:	f8c8 2000 	strlt.w	r2, [r8]
 8004cf6:	ea33 030b 	bics.w	r3, r3, fp
 8004cfa:	d11b      	bne.n	8004d34 <_dtoa_r+0xb4>
 8004cfc:	9a0c      	ldr	r2, [sp, #48]	; 0x30
 8004cfe:	f242 730f 	movw	r3, #9999	; 0x270f
 8004d02:	6013      	str	r3, [r2, #0]
 8004d04:	f3cb 0313 	ubfx	r3, fp, #0, #20
 8004d08:	4333      	orrs	r3, r6
 8004d0a:	f000 8592 	beq.w	8005832 <_dtoa_r+0xbb2>
 8004d0e:	9b21      	ldr	r3, [sp, #132]	; 0x84
 8004d10:	b963      	cbnz	r3, 8004d2c <_dtoa_r+0xac>
 8004d12:	4b92      	ldr	r3, [pc, #584]	; (8004f5c <_dtoa_r+0x2dc>)
 8004d14:	e022      	b.n	8004d5c <_dtoa_r+0xdc>
 8004d16:	4b92      	ldr	r3, [pc, #584]	; (8004f60 <_dtoa_r+0x2e0>)
 8004d18:	9301      	str	r3, [sp, #4]
 8004d1a:	3308      	adds	r3, #8
 8004d1c:	9a21      	ldr	r2, [sp, #132]	; 0x84
 8004d1e:	6013      	str	r3, [r2, #0]
 8004d20:	9801      	ldr	r0, [sp, #4]
 8004d22:	b013      	add	sp, #76	; 0x4c
 8004d24:	ecbd 8b04 	vpop	{d8-d9}
 8004d28:	e8bd 8ff0 	ldmia.w	sp!, {r4, r5, r6, r7, r8, r9, sl, fp, pc}
 8004d2c:	4b8b      	ldr	r3, [pc, #556]	; (8004f5c <_dtoa_r+0x2dc>)
 8004d2e:	9301      	str	r3, [sp, #4]
 8004d30:	3303      	adds	r3, #3
 8004d32:	e7f3      	b.n	8004d1c <_dtoa_r+0x9c>
 8004d34:	2200      	movs	r2, #0
 8004d36:	2300      	movs	r3, #0
 8004d38:	4650      	mov	r0, sl
 8004d3a:	4659      	mov	r1, fp
 8004d3c:	f7fb fed4 	bl	8000ae8 <__aeabi_dcmpeq>
 8004d40:	ec4b ab19 	vmov	d9, sl, fp
 8004d44:	4680      	mov	r8, r0
 8004d46:	b158      	cbz	r0, 8004d60 <_dtoa_r+0xe0>
 8004d48:	9a0c      	ldr	r2, [sp, #48]	; 0x30
 8004d4a:	2301      	movs	r3, #1
 8004d4c:	6013      	str	r3, [r2, #0]
 8004d4e:	9b21      	ldr	r3, [sp, #132]	; 0x84
 8004d50:	2b00      	cmp	r3, #0
 8004d52:	f000 856b 	beq.w	800582c <_dtoa_r+0xbac>
 8004d56:	4883      	ldr	r0, [pc, #524]	; (8004f64 <_dtoa_r+0x2e4>)
 8004d58:	6018      	str	r0, [r3, #0]
 8004d5a:	1e43      	subs	r3, r0, #1
 8004d5c:	9301      	str	r3, [sp, #4]
 8004d5e:	e7df      	b.n	8004d20 <_dtoa_r+0xa0>
 8004d60:	ec4b ab10 	vmov	d0, sl, fp
 8004d64:	aa10      	add	r2, sp, #64	; 0x40
 8004d66:	a911      	add	r1, sp, #68	; 0x44
 8004d68:	4620      	mov	r0, r4
 8004d6a:	f001 fad9 	bl	8006320 <__d2b>
 8004d6e:	f3cb 550a 	ubfx	r5, fp, #20, #11
 8004d72:	ee08 0a10 	vmov	s16, r0
 8004d76:	2d00      	cmp	r5, #0
 8004d78:	f000 8084 	beq.w	8004e84 <_dtoa_r+0x204>
 8004d7c:	ee19 3a90 	vmov	r3, s19
 8004d80:	f3c3 0313 	ubfx	r3, r3, #0, #20
 8004d84:	f043 577f 	orr.w	r7, r3, #1069547520	; 0x3fc00000
 8004d88:	4656      	mov	r6, sl
 8004d8a:	f447 1740 	orr.w	r7, r7, #3145728	; 0x300000
 8004d8e:	f2a5 35ff 	subw	r5, r5, #1023	; 0x3ff
 8004d92:	f8cd 8038 	str.w	r8, [sp, #56]	; 0x38
 8004d96:	4b74      	ldr	r3, [pc, #464]	; (8004f68 <_dtoa_r+0x2e8>)
 8004d98:	2200      	movs	r2, #0
 8004d9a:	4630      	mov	r0, r6
 8004d9c:	4639      	mov	r1, r7
 8004d9e:	f7fb fa83 	bl	80002a8 <__aeabi_dsub>
 8004da2:	a365      	add	r3, pc, #404	; (adr r3, 8004f38 <_dtoa_r+0x2b8>)
 8004da4:	e9d3 2300 	ldrd	r2, r3, [r3]
 8004da8:	f7fb fc36 	bl	8000618 <__aeabi_dmul>
 8004dac:	a364      	add	r3, pc, #400	; (adr r3, 8004f40 <_dtoa_r+0x2c0>)
 8004dae:	e9d3 2300 	ldrd	r2, r3, [r3]
 8004db2:	f7fb fa7b 	bl	80002ac <__adddf3>
 8004db6:	4606      	mov	r6, r0
 8004db8:	4628      	mov	r0, r5
 8004dba:	460f      	mov	r7, r1
 8004dbc:	f7fb fbc2 	bl	8000544 <__aeabi_i2d>
 8004dc0:	a361      	add	r3, pc, #388	; (adr r3, 8004f48 <_dtoa_r+0x2c8>)
 8004dc2:	e9d3 2300 	ldrd	r2, r3, [r3]
 8004dc6:	f7fb fc27 	bl	8000618 <__aeabi_dmul>
 8004dca:	4602      	mov	r2, r0
 8004dcc:	460b      	mov	r3, r1
 8004dce:	4630      	mov	r0, r6
 8004dd0:	4639      	mov	r1, r7
 8004dd2:	f7fb fa6b 	bl	80002ac <__adddf3>
 8004dd6:	4606      	mov	r6, r0
 8004dd8:	460f      	mov	r7, r1
 8004dda:	f7fb fecd 	bl	8000b78 <__aeabi_d2iz>
 8004dde:	2200      	movs	r2, #0
 8004de0:	9000      	str	r0, [sp, #0]
 8004de2:	2300      	movs	r3, #0
 8004de4:	4630      	mov	r0, r6
 8004de6:	4639      	mov	r1, r7
 8004de8:	f7fb fe88 	bl	8000afc <__aeabi_dcmplt>
 8004dec:	b150      	cbz	r0, 8004e04 <_dtoa_r+0x184>
 8004dee:	9800      	ldr	r0, [sp, #0]
 8004df0:	f7fb fba8 	bl	8000544 <__aeabi_i2d>
 8004df4:	4632      	mov	r2, r6
 8004df6:	463b      	mov	r3, r7
 8004df8:	f7fb fe76 	bl	8000ae8 <__aeabi_dcmpeq>
 8004dfc:	b910      	cbnz	r0, 8004e04 <_dtoa_r+0x184>
 8004dfe:	9b00      	ldr	r3, [sp, #0]
 8004e00:	3b01      	subs	r3, #1
 8004e02:	9300      	str	r3, [sp, #0]
 8004e04:	9b00      	ldr	r3, [sp, #0]
 8004e06:	2b16      	cmp	r3, #22
 8004e08:	d85a      	bhi.n	8004ec0 <_dtoa_r+0x240>
 8004e0a:	9a00      	ldr	r2, [sp, #0]
 8004e0c:	4b57      	ldr	r3, [pc, #348]	; (8004f6c <_dtoa_r+0x2ec>)
 8004e0e:	eb03 03c2 	add.w	r3, r3, r2, lsl #3
 8004e12:	e9d3 2300 	ldrd	r2, r3, [r3]
 8004e16:	ec51 0b19 	vmov	r0, r1, d9
 8004e1a:	f7fb fe6f 	bl	8000afc <__aeabi_dcmplt>
 8004e1e:	2800      	cmp	r0, #0
 8004e20:	d050      	beq.n	8004ec4 <_dtoa_r+0x244>
 8004e22:	9b00      	ldr	r3, [sp, #0]
 8004e24:	3b01      	subs	r3, #1
 8004e26:	9300      	str	r3, [sp, #0]
 8004e28:	2300      	movs	r3, #0
 8004e2a:	930b      	str	r3, [sp, #44]	; 0x2c
 8004e2c:	9b10      	ldr	r3, [sp, #64]	; 0x40
 8004e2e:	1b5d      	subs	r5, r3, r5
 8004e30:	1e6b      	subs	r3, r5, #1
 8004e32:	9305      	str	r3, [sp, #20]
 8004e34:	bf45      	ittet	mi
 8004e36:	f1c5 0301 	rsbmi	r3, r5, #1
 8004e3a:	9304      	strmi	r3, [sp, #16]
 8004e3c:	2300      	movpl	r3, #0
 8004e3e:	2300      	movmi	r3, #0
 8004e40:	bf4c      	ite	mi
 8004e42:	9305      	strmi	r3, [sp, #20]
 8004e44:	9304      	strpl	r3, [sp, #16]
 8004e46:	9b00      	ldr	r3, [sp, #0]
 8004e48:	2b00      	cmp	r3, #0
 8004e4a:	db3d      	blt.n	8004ec8 <_dtoa_r+0x248>
 8004e4c:	9b05      	ldr	r3, [sp, #20]
 8004e4e:	9a00      	ldr	r2, [sp, #0]
 8004e50:	920a      	str	r2, [sp, #40]	; 0x28
 8004e52:	4413      	add	r3, r2
 8004e54:	9305      	str	r3, [sp, #20]
 8004e56:	2300      	movs	r3, #0
 8004e58:	9307      	str	r3, [sp, #28]
 8004e5a:	9b06      	ldr	r3, [sp, #24]
 8004e5c:	2b09      	cmp	r3, #9
 8004e5e:	f200 8089 	bhi.w	8004f74 <_dtoa_r+0x2f4>
 8004e62:	2b05      	cmp	r3, #5
 8004e64:	bfc4      	itt	gt
 8004e66:	3b04      	subgt	r3, #4
 8004e68:	9306      	strgt	r3, [sp, #24]
 8004e6a:	9b06      	ldr	r3, [sp, #24]
 8004e6c:	f1a3 0302 	sub.w	r3, r3, #2
 8004e70:	bfcc      	ite	gt
 8004e72:	2500      	movgt	r5, #0
 8004e74:	2501      	movle	r5, #1
 8004e76:	2b03      	cmp	r3, #3
 8004e78:	f200 8087 	bhi.w	8004f8a <_dtoa_r+0x30a>
 8004e7c:	e8df f003 	tbb	[pc, r3]
 8004e80:	59383a2d 	.word	0x59383a2d
 8004e84:	e9dd 5310 	ldrd	r5, r3, [sp, #64]	; 0x40
 8004e88:	441d      	add	r5, r3
 8004e8a:	f205 4332 	addw	r3, r5, #1074	; 0x432
 8004e8e:	2b20      	cmp	r3, #32
 8004e90:	bfc1      	itttt	gt
 8004e92:	f1c3 0340 	rsbgt	r3, r3, #64	; 0x40
 8004e96:	f205 4012 	addwgt	r0, r5, #1042	; 0x412
 8004e9a:	fa0b f303 	lslgt.w	r3, fp, r3
 8004e9e:	fa26 f000 	lsrgt.w	r0, r6, r0
 8004ea2:	bfda      	itte	le
 8004ea4:	f1c3 0320 	rsble	r3, r3, #32
 8004ea8:	fa06 f003 	lslle.w	r0, r6, r3
 8004eac:	4318      	orrgt	r0, r3
 8004eae:	f7fb fb39 	bl	8000524 <__aeabi_ui2d>
 8004eb2:	2301      	movs	r3, #1
 8004eb4:	4606      	mov	r6, r0
 8004eb6:	f1a1 77f8 	sub.w	r7, r1, #32505856	; 0x1f00000
 8004eba:	3d01      	subs	r5, #1
 8004ebc:	930e      	str	r3, [sp, #56]	; 0x38
 8004ebe:	e76a      	b.n	8004d96 <_dtoa_r+0x116>
 8004ec0:	2301      	movs	r3, #1
 8004ec2:	e7b2      	b.n	8004e2a <_dtoa_r+0x1aa>
 8004ec4:	900b      	str	r0, [sp, #44]	; 0x2c
 8004ec6:	e7b1      	b.n	8004e2c <_dtoa_r+0x1ac>
 8004ec8:	9b04      	ldr	r3, [sp, #16]
 8004eca:	9a00      	ldr	r2, [sp, #0]
 8004ecc:	1a9b      	subs	r3, r3, r2
 8004ece:	9304      	str	r3, [sp, #16]
 8004ed0:	4253      	negs	r3, r2
 8004ed2:	9307      	str	r3, [sp, #28]
 8004ed4:	2300      	movs	r3, #0
 8004ed6:	930a      	str	r3, [sp, #40]	; 0x28
 8004ed8:	e7bf      	b.n	8004e5a <_dtoa_r+0x1da>
 8004eda:	2300      	movs	r3, #0
 8004edc:	9308      	str	r3, [sp, #32]
 8004ede:	9b09      	ldr	r3, [sp, #36]	; 0x24
 8004ee0:	2b00      	cmp	r3, #0
 8004ee2:	dc55      	bgt.n	8004f90 <_dtoa_r+0x310>
 8004ee4:	2301      	movs	r3, #1
 8004ee6:	e9cd 3302 	strd	r3, r3, [sp, #8]
 8004eea:	461a      	mov	r2, r3
 8004eec:	9209      	str	r2, [sp, #36]	; 0x24
 8004eee:	e00c      	b.n	8004f0a <_dtoa_r+0x28a>
 8004ef0:	2301      	movs	r3, #1
 8004ef2:	e7f3      	b.n	8004edc <_dtoa_r+0x25c>
 8004ef4:	2300      	movs	r3, #0
 8004ef6:	9a09      	ldr	r2, [sp, #36]	; 0x24
 8004ef8:	9308      	str	r3, [sp, #32]
 8004efa:	9b00      	ldr	r3, [sp, #0]
 8004efc:	4413      	add	r3, r2
 8004efe:	9302      	str	r3, [sp, #8]
 8004f00:	3301      	adds	r3, #1
 8004f02:	2b01      	cmp	r3, #1
 8004f04:	9303      	str	r3, [sp, #12]
 8004f06:	bfb8      	it	lt
 8004f08:	2301      	movlt	r3, #1
 8004f0a:	6a60      	ldr	r0, [r4, #36]	; 0x24
 8004f0c:	2200      	movs	r2, #0
 8004f0e:	6042      	str	r2, [r0, #4]
 8004f10:	2204      	movs	r2, #4
 8004f12:	f102 0614 	add.w	r6, r2, #20
 8004f16:	429e      	cmp	r6, r3
 8004f18:	6841      	ldr	r1, [r0, #4]
 8004f1a:	d93d      	bls.n	8004f98 <_dtoa_r+0x318>
 8004f1c:	4620      	mov	r0, r4
 8004f1e:	f000 fed7 	bl	8005cd0 <_Balloc>
 8004f22:	9001      	str	r0, [sp, #4]
 8004f24:	2800      	cmp	r0, #0
 8004f26:	d13b      	bne.n	8004fa0 <_dtoa_r+0x320>
 8004f28:	4b11      	ldr	r3, [pc, #68]	; (8004f70 <_dtoa_r+0x2f0>)
 8004f2a:	4602      	mov	r2, r0
 8004f2c:	f44f 71d5 	mov.w	r1, #426	; 0x1aa
 8004f30:	e6c0      	b.n	8004cb4 <_dtoa_r+0x34>
 8004f32:	2301      	movs	r3, #1
 8004f34:	e7df      	b.n	8004ef6 <_dtoa_r+0x276>
 8004f36:	bf00      	nop
 8004f38:	636f4361 	.word	0x636f4361
 8004f3c:	3fd287a7 	.word	0x3fd287a7
 8004f40:	8b60c8b3 	.word	0x8b60c8b3
 8004f44:	3fc68a28 	.word	0x3fc68a28
 8004f48:	509f79fb 	.word	0x509f79fb
 8004f4c:	3fd34413 	.word	0x3fd34413
 8004f50:	08006cfd 	.word	0x08006cfd
 8004f54:	08006d14 	.word	0x08006d14
 8004f58:	7ff00000 	.word	0x7ff00000
 8004f5c:	08006cf9 	.word	0x08006cf9
 8004f60:	08006cf0 	.word	0x08006cf0
 8004f64:	08006ccd 	.word	0x08006ccd
 8004f68:	3ff80000 	.word	0x3ff80000
 8004f6c:	08006e68 	.word	0x08006e68
 8004f70:	08006d6f 	.word	0x08006d6f
 8004f74:	2501      	movs	r5, #1
 8004f76:	2300      	movs	r3, #0
 8004f78:	9306      	str	r3, [sp, #24]
 8004f7a:	9508      	str	r5, [sp, #32]
 8004f7c:	f04f 33ff 	mov.w	r3, #4294967295
 8004f80:	e9cd 3302 	strd	r3, r3, [sp, #8]
 8004f84:	2200      	movs	r2, #0
 8004f86:	2312      	movs	r3, #18
 8004f88:	e7b0      	b.n	8004eec <_dtoa_r+0x26c>
 8004f8a:	2301      	movs	r3, #1
 8004f8c:	9308      	str	r3, [sp, #32]
 8004f8e:	e7f5      	b.n	8004f7c <_dtoa_r+0x2fc>
 8004f90:	9b09      	ldr	r3, [sp, #36]	; 0x24
 8004f92:	e9cd 3302 	strd	r3, r3, [sp, #8]
 8004f96:	e7b8      	b.n	8004f0a <_dtoa_r+0x28a>
 8004f98:	3101      	adds	r1, #1
 8004f9a:	6041      	str	r1, [r0, #4]
 8004f9c:	0052      	lsls	r2, r2, #1
 8004f9e:	e7b8      	b.n	8004f12 <_dtoa_r+0x292>
 8004fa0:	6a63      	ldr	r3, [r4, #36]	; 0x24
 8004fa2:	9a01      	ldr	r2, [sp, #4]
 8004fa4:	601a      	str	r2, [r3, #0]
 8004fa6:	9b03      	ldr	r3, [sp, #12]
 8004fa8:	2b0e      	cmp	r3, #14
 8004faa:	f200 809d 	bhi.w	80050e8 <_dtoa_r+0x468>
 8004fae:	2d00      	cmp	r5, #0
 8004fb0:	f000 809a 	beq.w	80050e8 <_dtoa_r+0x468>
 8004fb4:	9b00      	ldr	r3, [sp, #0]
 8004fb6:	2b00      	cmp	r3, #0
 8004fb8:	dd32      	ble.n	8005020 <_dtoa_r+0x3a0>
 8004fba:	4ab7      	ldr	r2, [pc, #732]	; (8005298 <_dtoa_r+0x618>)
 8004fbc:	f003 030f 	and.w	r3, r3, #15
 8004fc0:	eb02 03c3 	add.w	r3, r2, r3, lsl #3
 8004fc4:	e9d3 8900 	ldrd	r8, r9, [r3]
 8004fc8:	9b00      	ldr	r3, [sp, #0]
 8004fca:	05d8      	lsls	r0, r3, #23
 8004fcc:	ea4f 1723 	mov.w	r7, r3, asr #4
 8004fd0:	d516      	bpl.n	8005000 <_dtoa_r+0x380>
 8004fd2:	4bb2      	ldr	r3, [pc, #712]	; (800529c <_dtoa_r+0x61c>)
 8004fd4:	ec51 0b19 	vmov	r0, r1, d9
 8004fd8:	e9d3 2308 	ldrd	r2, r3, [r3, #32]
 8004fdc:	f7fb fc46 	bl	800086c <__aeabi_ddiv>
 8004fe0:	f007 070f 	and.w	r7, r7, #15
 8004fe4:	4682      	mov	sl, r0
 8004fe6:	468b      	mov	fp, r1
 8004fe8:	2503      	movs	r5, #3
 8004fea:	4eac      	ldr	r6, [pc, #688]	; (800529c <_dtoa_r+0x61c>)
 8004fec:	b957      	cbnz	r7, 8005004 <_dtoa_r+0x384>
 8004fee:	4642      	mov	r2, r8
 8004ff0:	464b      	mov	r3, r9
 8004ff2:	4650      	mov	r0, sl
 8004ff4:	4659      	mov	r1, fp
 8004ff6:	f7fb fc39 	bl	800086c <__aeabi_ddiv>
 8004ffa:	4682      	mov	sl, r0
 8004ffc:	468b      	mov	fp, r1
 8004ffe:	e028      	b.n	8005052 <_dtoa_r+0x3d2>
 8005000:	2502      	movs	r5, #2
 8005002:	e7f2      	b.n	8004fea <_dtoa_r+0x36a>
 8005004:	07f9      	lsls	r1, r7, #31
 8005006:	d508      	bpl.n	800501a <_dtoa_r+0x39a>
 8005008:	4640      	mov	r0, r8
 800500a:	4649      	mov	r1, r9
 800500c:	e9d6 2300 	ldrd	r2, r3, [r6]
 8005010:	f7fb fb02 	bl	8000618 <__aeabi_dmul>
 8005014:	3501      	adds	r5, #1
 8005016:	4680      	mov	r8, r0
 8005018:	4689      	mov	r9, r1
 800501a:	107f      	asrs	r7, r7, #1
 800501c:	3608      	adds	r6, #8
 800501e:	e7e5      	b.n	8004fec <_dtoa_r+0x36c>
 8005020:	f000 809b 	beq.w	800515a <_dtoa_r+0x4da>
 8005024:	9b00      	ldr	r3, [sp, #0]
 8005026:	4f9d      	ldr	r7, [pc, #628]	; (800529c <_dtoa_r+0x61c>)
 8005028:	425e      	negs	r6, r3
 800502a:	4b9b      	ldr	r3, [pc, #620]	; (8005298 <_dtoa_r+0x618>)
 800502c:	f006 020f 	and.w	r2, r6, #15
 8005030:	eb03 03c2 	add.w	r3, r3, r2, lsl #3
 8005034:	e9d3 2300 	ldrd	r2, r3, [r3]
 8005038:	ec51 0b19 	vmov	r0, r1, d9
 800503c:	f7fb faec 	bl	8000618 <__aeabi_dmul>
 8005040:	1136      	asrs	r6, r6, #4
 8005042:	4682      	mov	sl, r0
 8005044:	468b      	mov	fp, r1
 8005046:	2300      	movs	r3, #0
 8005048:	2502      	movs	r5, #2
 800504a:	2e00      	cmp	r6, #0
 800504c:	d17a      	bne.n	8005144 <_dtoa_r+0x4c4>
 800504e:	2b00      	cmp	r3, #0
 8005050:	d1d3      	bne.n	8004ffa <_dtoa_r+0x37a>
 8005052:	9b0b      	ldr	r3, [sp, #44]	; 0x2c
 8005054:	2b00      	cmp	r3, #0
 8005056:	f000 8082 	beq.w	800515e <_dtoa_r+0x4de>
 800505a:	4b91      	ldr	r3, [pc, #580]	; (80052a0 <_dtoa_r+0x620>)
 800505c:	2200      	movs	r2, #0
 800505e:	4650      	mov	r0, sl
 8005060:	4659      	mov	r1, fp
 8005062:	f7fb fd4b 	bl	8000afc <__aeabi_dcmplt>
 8005066:	2800      	cmp	r0, #0
 8005068:	d079      	beq.n	800515e <_dtoa_r+0x4de>
 800506a:	9b03      	ldr	r3, [sp, #12]
 800506c:	2b00      	cmp	r3, #0
 800506e:	d076      	beq.n	800515e <_dtoa_r+0x4de>
 8005070:	9b02      	ldr	r3, [sp, #8]
 8005072:	2b00      	cmp	r3, #0
 8005074:	dd36      	ble.n	80050e4 <_dtoa_r+0x464>
 8005076:	9b00      	ldr	r3, [sp, #0]
 8005078:	4650      	mov	r0, sl
 800507a:	4659      	mov	r1, fp
 800507c:	1e5f      	subs	r7, r3, #1
 800507e:	2200      	movs	r2, #0
 8005080:	4b88      	ldr	r3, [pc, #544]	; (80052a4 <_dtoa_r+0x624>)
 8005082:	f7fb fac9 	bl	8000618 <__aeabi_dmul>
 8005086:	9e02      	ldr	r6, [sp, #8]
 8005088:	4682      	mov	sl, r0
 800508a:	468b      	mov	fp, r1
 800508c:	3501      	adds	r5, #1
 800508e:	4628      	mov	r0, r5
 8005090:	f7fb fa58 	bl	8000544 <__aeabi_i2d>
 8005094:	4652      	mov	r2, sl
 8005096:	465b      	mov	r3, fp
 8005098:	f7fb fabe 	bl	8000618 <__aeabi_dmul>
 800509c:	4b82      	ldr	r3, [pc, #520]	; (80052a8 <_dtoa_r+0x628>)
 800509e:	2200      	movs	r2, #0
 80050a0:	f7fb f904 	bl	80002ac <__adddf3>
 80050a4:	46d0      	mov	r8, sl
 80050a6:	46d9      	mov	r9, fp
 80050a8:	4682      	mov	sl, r0
 80050aa:	f1a1 7b50 	sub.w	fp, r1, #54525952	; 0x3400000
 80050ae:	2e00      	cmp	r6, #0
 80050b0:	d158      	bne.n	8005164 <_dtoa_r+0x4e4>
 80050b2:	4b7e      	ldr	r3, [pc, #504]	; (80052ac <_dtoa_r+0x62c>)
 80050b4:	2200      	movs	r2, #0
 80050b6:	4640      	mov	r0, r8
 80050b8:	4649      	mov	r1, r9
 80050ba:	f7fb f8f5 	bl	80002a8 <__aeabi_dsub>
 80050be:	4652      	mov	r2, sl
 80050c0:	465b      	mov	r3, fp
 80050c2:	4680      	mov	r8, r0
 80050c4:	4689      	mov	r9, r1
 80050c6:	f7fb fd37 	bl	8000b38 <__aeabi_dcmpgt>
 80050ca:	2800      	cmp	r0, #0
 80050cc:	f040 8295 	bne.w	80055fa <_dtoa_r+0x97a>
 80050d0:	4652      	mov	r2, sl
 80050d2:	f10b 4300 	add.w	r3, fp, #2147483648	; 0x80000000
 80050d6:	4640      	mov	r0, r8
 80050d8:	4649      	mov	r1, r9
 80050da:	f7fb fd0f 	bl	8000afc <__aeabi_dcmplt>
 80050de:	2800      	cmp	r0, #0
 80050e0:	f040 8289 	bne.w	80055f6 <_dtoa_r+0x976>
 80050e4:	ec5b ab19 	vmov	sl, fp, d9
 80050e8:	9b11      	ldr	r3, [sp, #68]	; 0x44
 80050ea:	2b00      	cmp	r3, #0
 80050ec:	f2c0 8148 	blt.w	8005380 <_dtoa_r+0x700>
 80050f0:	9a00      	ldr	r2, [sp, #0]
 80050f2:	2a0e      	cmp	r2, #14
 80050f4:	f300 8144 	bgt.w	8005380 <_dtoa_r+0x700>
 80050f8:	4b67      	ldr	r3, [pc, #412]	; (8005298 <_dtoa_r+0x618>)
 80050fa:	eb03 03c2 	add.w	r3, r3, r2, lsl #3
 80050fe:	e9d3 8900 	ldrd	r8, r9, [r3]
 8005102:	9b09      	ldr	r3, [sp, #36]	; 0x24
 8005104:	2b00      	cmp	r3, #0
 8005106:	f280 80d5 	bge.w	80052b4 <_dtoa_r+0x634>
 800510a:	9b03      	ldr	r3, [sp, #12]
 800510c:	2b00      	cmp	r3, #0
 800510e:	f300 80d1 	bgt.w	80052b4 <_dtoa_r+0x634>
 8005112:	f040 826f 	bne.w	80055f4 <_dtoa_r+0x974>
 8005116:	4b65      	ldr	r3, [pc, #404]	; (80052ac <_dtoa_r+0x62c>)
 8005118:	2200      	movs	r2, #0
 800511a:	4640      	mov	r0, r8
 800511c:	4649      	mov	r1, r9
 800511e:	f7fb fa7b 	bl	8000618 <__aeabi_dmul>
 8005122:	4652      	mov	r2, sl
 8005124:	465b      	mov	r3, fp
 8005126:	f7fb fcfd 	bl	8000b24 <__aeabi_dcmpge>
 800512a:	9e03      	ldr	r6, [sp, #12]
 800512c:	4637      	mov	r7, r6
 800512e:	2800      	cmp	r0, #0
 8005130:	f040 8245 	bne.w	80055be <_dtoa_r+0x93e>
 8005134:	9d01      	ldr	r5, [sp, #4]
 8005136:	2331      	movs	r3, #49	; 0x31
 8005138:	f805 3b01 	strb.w	r3, [r5], #1
 800513c:	9b00      	ldr	r3, [sp, #0]
 800513e:	3301      	adds	r3, #1
 8005140:	9300      	str	r3, [sp, #0]
 8005142:	e240      	b.n	80055c6 <_dtoa_r+0x946>
 8005144:	07f2      	lsls	r2, r6, #31
 8005146:	d505      	bpl.n	8005154 <_dtoa_r+0x4d4>
 8005148:	e9d7 2300 	ldrd	r2, r3, [r7]
 800514c:	f7fb fa64 	bl	8000618 <__aeabi_dmul>
 8005150:	3501      	adds	r5, #1
 8005152:	2301      	movs	r3, #1
 8005154:	1076      	asrs	r6, r6, #1
 8005156:	3708      	adds	r7, #8
 8005158:	e777      	b.n	800504a <_dtoa_r+0x3ca>
 800515a:	2502      	movs	r5, #2
 800515c:	e779      	b.n	8005052 <_dtoa_r+0x3d2>
 800515e:	9f00      	ldr	r7, [sp, #0]
 8005160:	9e03      	ldr	r6, [sp, #12]
 8005162:	e794      	b.n	800508e <_dtoa_r+0x40e>
 8005164:	9901      	ldr	r1, [sp, #4]
 8005166:	4b4c      	ldr	r3, [pc, #304]	; (8005298 <_dtoa_r+0x618>)
 8005168:	4431      	add	r1, r6
 800516a:	910d      	str	r1, [sp, #52]	; 0x34
 800516c:	9908      	ldr	r1, [sp, #32]
 800516e:	eb03 03c6 	add.w	r3, r3, r6, lsl #3
 8005172:	e953 2302 	ldrd	r2, r3, [r3, #-8]
 8005176:	2900      	cmp	r1, #0
 8005178:	d043      	beq.n	8005202 <_dtoa_r+0x582>
 800517a:	494d      	ldr	r1, [pc, #308]	; (80052b0 <_dtoa_r+0x630>)
 800517c:	2000      	movs	r0, #0
 800517e:	f7fb fb75 	bl	800086c <__aeabi_ddiv>
 8005182:	4652      	mov	r2, sl
 8005184:	465b      	mov	r3, fp
 8005186:	f7fb f88f 	bl	80002a8 <__aeabi_dsub>
 800518a:	9d01      	ldr	r5, [sp, #4]
 800518c:	4682      	mov	sl, r0
 800518e:	468b      	mov	fp, r1
 8005190:	4649      	mov	r1, r9
 8005192:	4640      	mov	r0, r8
 8005194:	f7fb fcf0 	bl	8000b78 <__aeabi_d2iz>
 8005198:	4606      	mov	r6, r0
 800519a:	f7fb f9d3 	bl	8000544 <__aeabi_i2d>
 800519e:	4602      	mov	r2, r0
 80051a0:	460b      	mov	r3, r1
 80051a2:	4640      	mov	r0, r8
 80051a4:	4649      	mov	r1, r9
 80051a6:	f7fb f87f 	bl	80002a8 <__aeabi_dsub>
 80051aa:	3630      	adds	r6, #48	; 0x30
 80051ac:	f805 6b01 	strb.w	r6, [r5], #1
 80051b0:	4652      	mov	r2, sl
 80051b2:	465b      	mov	r3, fp
 80051b4:	4680      	mov	r8, r0
 80051b6:	4689      	mov	r9, r1
 80051b8:	f7fb fca0 	bl	8000afc <__aeabi_dcmplt>
 80051bc:	2800      	cmp	r0, #0
 80051be:	d163      	bne.n	8005288 <_dtoa_r+0x608>
 80051c0:	4642      	mov	r2, r8
 80051c2:	464b      	mov	r3, r9
 80051c4:	4936      	ldr	r1, [pc, #216]	; (80052a0 <_dtoa_r+0x620>)
 80051c6:	2000      	movs	r0, #0
 80051c8:	f7fb f86e 	bl	80002a8 <__aeabi_dsub>
 80051cc:	4652      	mov	r2, sl
 80051ce:	465b      	mov	r3, fp
 80051d0:	f7fb fc94 	bl	8000afc <__aeabi_dcmplt>
 80051d4:	2800      	cmp	r0, #0
 80051d6:	f040 80b5 	bne.w	8005344 <_dtoa_r+0x6c4>
 80051da:	9b0d      	ldr	r3, [sp, #52]	; 0x34
 80051dc:	429d      	cmp	r5, r3
 80051de:	d081      	beq.n	80050e4 <_dtoa_r+0x464>
 80051e0:	4b30      	ldr	r3, [pc, #192]	; (80052a4 <_dtoa_r+0x624>)
 80051e2:	2200      	movs	r2, #0
 80051e4:	4650      	mov	r0, sl
 80051e6:	4659      	mov	r1, fp
 80051e8:	f7fb fa16 	bl	8000618 <__aeabi_dmul>
 80051ec:	4b2d      	ldr	r3, [pc, #180]	; (80052a4 <_dtoa_r+0x624>)
 80051ee:	4682      	mov	sl, r0
 80051f0:	468b      	mov	fp, r1
 80051f2:	4640      	mov	r0, r8
 80051f4:	4649      	mov	r1, r9
 80051f6:	2200      	movs	r2, #0
 80051f8:	f7fb fa0e 	bl	8000618 <__aeabi_dmul>
 80051fc:	4680      	mov	r8, r0
 80051fe:	4689      	mov	r9, r1
 8005200:	e7c6      	b.n	8005190 <_dtoa_r+0x510>
 8005202:	4650      	mov	r0, sl
 8005204:	4659      	mov	r1, fp
 8005206:	f7fb fa07 	bl	8000618 <__aeabi_dmul>
 800520a:	9b0d      	ldr	r3, [sp, #52]	; 0x34
 800520c:	9d01      	ldr	r5, [sp, #4]
 800520e:	930f      	str	r3, [sp, #60]	; 0x3c
 8005210:	4682      	mov	sl, r0
 8005212:	468b      	mov	fp, r1
 8005214:	4649      	mov	r1, r9
 8005216:	4640      	mov	r0, r8
 8005218:	f7fb fcae 	bl	8000b78 <__aeabi_d2iz>
 800521c:	4606      	mov	r6, r0
 800521e:	f7fb f991 	bl	8000544 <__aeabi_i2d>
 8005222:	3630      	adds	r6, #48	; 0x30
 8005224:	4602      	mov	r2, r0
 8005226:	460b      	mov	r3, r1
 8005228:	4640      	mov	r0, r8
 800522a:	4649      	mov	r1, r9
 800522c:	f7fb f83c 	bl	80002a8 <__aeabi_dsub>
 8005230:	f805 6b01 	strb.w	r6, [r5], #1
 8005234:	9b0d      	ldr	r3, [sp, #52]	; 0x34
 8005236:	429d      	cmp	r5, r3
 8005238:	4680      	mov	r8, r0
 800523a:	4689      	mov	r9, r1
 800523c:	f04f 0200 	mov.w	r2, #0
 8005240:	d124      	bne.n	800528c <_dtoa_r+0x60c>
 8005242:	4b1b      	ldr	r3, [pc, #108]	; (80052b0 <_dtoa_r+0x630>)
 8005244:	4650      	mov	r0, sl
 8005246:	4659      	mov	r1, fp
 8005248:	f7fb f830 	bl	80002ac <__adddf3>
 800524c:	4602      	mov	r2, r0
 800524e:	460b      	mov	r3, r1
 8005250:	4640      	mov	r0, r8
 8005252:	4649      	mov	r1, r9
 8005254:	f7fb fc70 	bl	8000b38 <__aeabi_dcmpgt>
 8005258:	2800      	cmp	r0, #0
 800525a:	d173      	bne.n	8005344 <_dtoa_r+0x6c4>
 800525c:	4652      	mov	r2, sl
 800525e:	465b      	mov	r3, fp
 8005260:	4913      	ldr	r1, [pc, #76]	; (80052b0 <_dtoa_r+0x630>)
 8005262:	2000      	movs	r0, #0
 8005264:	f7fb f820 	bl	80002a8 <__aeabi_dsub>
 8005268:	4602      	mov	r2, r0
 800526a:	460b      	mov	r3, r1
 800526c:	4640      	mov	r0, r8
 800526e:	4649      	mov	r1, r9
 8005270:	f7fb fc44 	bl	8000afc <__aeabi_dcmplt>
 8005274:	2800      	cmp	r0, #0
 8005276:	f43f af35 	beq.w	80050e4 <_dtoa_r+0x464>
 800527a:	9d0f      	ldr	r5, [sp, #60]	; 0x3c
 800527c:	1e6b      	subs	r3, r5, #1
 800527e:	930f      	str	r3, [sp, #60]	; 0x3c
 8005280:	f815 3c01 	ldrb.w	r3, [r5, #-1]
 8005284:	2b30      	cmp	r3, #48	; 0x30
 8005286:	d0f8      	beq.n	800527a <_dtoa_r+0x5fa>
 8005288:	9700      	str	r7, [sp, #0]
 800528a:	e049      	b.n	8005320 <_dtoa_r+0x6a0>
 800528c:	4b05      	ldr	r3, [pc, #20]	; (80052a4 <_dtoa_r+0x624>)
 800528e:	f7fb f9c3 	bl	8000618 <__aeabi_dmul>
 8005292:	4680      	mov	r8, r0
 8005294:	4689      	mov	r9, r1
 8005296:	e7bd      	b.n	8005214 <_dtoa_r+0x594>
 8005298:	08006e68 	.word	0x08006e68
 800529c:	08006e40 	.word	0x08006e40
 80052a0:	3ff00000 	.word	0x3ff00000
 80052a4:	40240000 	.word	0x40240000
 80052a8:	401c0000 	.word	0x401c0000
 80052ac:	40140000 	.word	0x40140000
 80052b0:	3fe00000 	.word	0x3fe00000
 80052b4:	9d01      	ldr	r5, [sp, #4]
 80052b6:	4656      	mov	r6, sl
 80052b8:	465f      	mov	r7, fp
 80052ba:	4642      	mov	r2, r8
 80052bc:	464b      	mov	r3, r9
 80052be:	4630      	mov	r0, r6
 80052c0:	4639      	mov	r1, r7
 80052c2:	f7fb fad3 	bl	800086c <__aeabi_ddiv>
 80052c6:	f7fb fc57 	bl	8000b78 <__aeabi_d2iz>
 80052ca:	4682      	mov	sl, r0
 80052cc:	f7fb f93a 	bl	8000544 <__aeabi_i2d>
 80052d0:	4642      	mov	r2, r8
 80052d2:	464b      	mov	r3, r9
 80052d4:	f7fb f9a0 	bl	8000618 <__aeabi_dmul>
 80052d8:	4602      	mov	r2, r0
 80052da:	460b      	mov	r3, r1
 80052dc:	4630      	mov	r0, r6
 80052de:	4639      	mov	r1, r7
 80052e0:	f10a 0630 	add.w	r6, sl, #48	; 0x30
 80052e4:	f7fa ffe0 	bl	80002a8 <__aeabi_dsub>
 80052e8:	f805 6b01 	strb.w	r6, [r5], #1
 80052ec:	9e01      	ldr	r6, [sp, #4]
 80052ee:	9f03      	ldr	r7, [sp, #12]
 80052f0:	1bae      	subs	r6, r5, r6
 80052f2:	42b7      	cmp	r7, r6
 80052f4:	4602      	mov	r2, r0
 80052f6:	460b      	mov	r3, r1
 80052f8:	d135      	bne.n	8005366 <_dtoa_r+0x6e6>
 80052fa:	f7fa ffd7 	bl	80002ac <__adddf3>
 80052fe:	4642      	mov	r2, r8
 8005300:	464b      	mov	r3, r9
 8005302:	4606      	mov	r6, r0
 8005304:	460f      	mov	r7, r1
 8005306:	f7fb fc17 	bl	8000b38 <__aeabi_dcmpgt>
 800530a:	b9d0      	cbnz	r0, 8005342 <_dtoa_r+0x6c2>
 800530c:	4642      	mov	r2, r8
 800530e:	464b      	mov	r3, r9
 8005310:	4630      	mov	r0, r6
 8005312:	4639      	mov	r1, r7
 8005314:	f7fb fbe8 	bl	8000ae8 <__aeabi_dcmpeq>
 8005318:	b110      	cbz	r0, 8005320 <_dtoa_r+0x6a0>
 800531a:	f01a 0f01 	tst.w	sl, #1
 800531e:	d110      	bne.n	8005342 <_dtoa_r+0x6c2>
 8005320:	4620      	mov	r0, r4
 8005322:	ee18 1a10 	vmov	r1, s16
 8005326:	f000 fd13 	bl	8005d50 <_Bfree>
 800532a:	2300      	movs	r3, #0
 800532c:	9800      	ldr	r0, [sp, #0]
 800532e:	702b      	strb	r3, [r5, #0]
 8005330:	9b0c      	ldr	r3, [sp, #48]	; 0x30
 8005332:	3001      	adds	r0, #1
 8005334:	6018      	str	r0, [r3, #0]
 8005336:	9b21      	ldr	r3, [sp, #132]	; 0x84
 8005338:	2b00      	cmp	r3, #0
 800533a:	f43f acf1 	beq.w	8004d20 <_dtoa_r+0xa0>
 800533e:	601d      	str	r5, [r3, #0]
 8005340:	e4ee      	b.n	8004d20 <_dtoa_r+0xa0>
 8005342:	9f00      	ldr	r7, [sp, #0]
 8005344:	462b      	mov	r3, r5
 8005346:	461d      	mov	r5, r3
 8005348:	f813 2d01 	ldrb.w	r2, [r3, #-1]!
 800534c:	2a39      	cmp	r2, #57	; 0x39
 800534e:	d106      	bne.n	800535e <_dtoa_r+0x6de>
 8005350:	9a01      	ldr	r2, [sp, #4]
 8005352:	429a      	cmp	r2, r3
 8005354:	d1f7      	bne.n	8005346 <_dtoa_r+0x6c6>
 8005356:	9901      	ldr	r1, [sp, #4]
 8005358:	2230      	movs	r2, #48	; 0x30
 800535a:	3701      	adds	r7, #1
 800535c:	700a      	strb	r2, [r1, #0]
 800535e:	781a      	ldrb	r2, [r3, #0]
 8005360:	3201      	adds	r2, #1
 8005362:	701a      	strb	r2, [r3, #0]
 8005364:	e790      	b.n	8005288 <_dtoa_r+0x608>
 8005366:	4ba6      	ldr	r3, [pc, #664]	; (8005600 <_dtoa_r+0x980>)
 8005368:	2200      	movs	r2, #0
 800536a:	f7fb f955 	bl	8000618 <__aeabi_dmul>
 800536e:	2200      	movs	r2, #0
 8005370:	2300      	movs	r3, #0
 8005372:	4606      	mov	r6, r0
 8005374:	460f      	mov	r7, r1
 8005376:	f7fb fbb7 	bl	8000ae8 <__aeabi_dcmpeq>
 800537a:	2800      	cmp	r0, #0
 800537c:	d09d      	beq.n	80052ba <_dtoa_r+0x63a>
 800537e:	e7cf      	b.n	8005320 <_dtoa_r+0x6a0>
 8005380:	9a08      	ldr	r2, [sp, #32]
 8005382:	2a00      	cmp	r2, #0
 8005384:	f000 80d7 	beq.w	8005536 <_dtoa_r+0x8b6>
 8005388:	9a06      	ldr	r2, [sp, #24]
 800538a:	2a01      	cmp	r2, #1
 800538c:	f300 80ba 	bgt.w	8005504 <_dtoa_r+0x884>
 8005390:	9a0e      	ldr	r2, [sp, #56]	; 0x38
 8005392:	2a00      	cmp	r2, #0
 8005394:	f000 80b2 	beq.w	80054fc <_dtoa_r+0x87c>
 8005398:	f203 4333 	addw	r3, r3, #1075	; 0x433
 800539c:	9e07      	ldr	r6, [sp, #28]
 800539e:	9d04      	ldr	r5, [sp, #16]
 80053a0:	9a04      	ldr	r2, [sp, #16]
 80053a2:	441a      	add	r2, r3
 80053a4:	9204      	str	r2, [sp, #16]
 80053a6:	9a05      	ldr	r2, [sp, #20]
 80053a8:	2101      	movs	r1, #1
 80053aa:	441a      	add	r2, r3
 80053ac:	4620      	mov	r0, r4
 80053ae:	9205      	str	r2, [sp, #20]
 80053b0:	f000 fd86 	bl	8005ec0 <__i2b>
 80053b4:	4607      	mov	r7, r0
 80053b6:	2d00      	cmp	r5, #0
 80053b8:	dd0c      	ble.n	80053d4 <_dtoa_r+0x754>
 80053ba:	9b05      	ldr	r3, [sp, #20]
 80053bc:	2b00      	cmp	r3, #0
 80053be:	dd09      	ble.n	80053d4 <_dtoa_r+0x754>
 80053c0:	42ab      	cmp	r3, r5
 80053c2:	9a04      	ldr	r2, [sp, #16]
 80053c4:	bfa8      	it	ge
 80053c6:	462b      	movge	r3, r5
 80053c8:	1ad2      	subs	r2, r2, r3
 80053ca:	9204      	str	r2, [sp, #16]
 80053cc:	9a05      	ldr	r2, [sp, #20]
 80053ce:	1aed      	subs	r5, r5, r3
 80053d0:	1ad3      	subs	r3, r2, r3
 80053d2:	9305      	str	r3, [sp, #20]
 80053d4:	9b07      	ldr	r3, [sp, #28]
 80053d6:	b31b      	cbz	r3, 8005420 <_dtoa_r+0x7a0>
 80053d8:	9b08      	ldr	r3, [sp, #32]
 80053da:	2b00      	cmp	r3, #0
 80053dc:	f000 80af 	beq.w	800553e <_dtoa_r+0x8be>
 80053e0:	2e00      	cmp	r6, #0
 80053e2:	dd13      	ble.n	800540c <_dtoa_r+0x78c>
 80053e4:	4639      	mov	r1, r7
 80053e6:	4632      	mov	r2, r6
 80053e8:	4620      	mov	r0, r4
 80053ea:	f000 fe29 	bl	8006040 <__pow5mult>
 80053ee:	ee18 2a10 	vmov	r2, s16
 80053f2:	4601      	mov	r1, r0
 80053f4:	4607      	mov	r7, r0
 80053f6:	4620      	mov	r0, r4
 80053f8:	f000 fd78 	bl	8005eec <__multiply>
 80053fc:	ee18 1a10 	vmov	r1, s16
 8005400:	4680      	mov	r8, r0
 8005402:	4620      	mov	r0, r4
 8005404:	f000 fca4 	bl	8005d50 <_Bfree>
 8005408:	ee08 8a10 	vmov	s16, r8
 800540c:	9b07      	ldr	r3, [sp, #28]
 800540e:	1b9a      	subs	r2, r3, r6
 8005410:	d006      	beq.n	8005420 <_dtoa_r+0x7a0>
 8005412:	ee18 1a10 	vmov	r1, s16
 8005416:	4620      	mov	r0, r4
 8005418:	f000 fe12 	bl	8006040 <__pow5mult>
 800541c:	ee08 0a10 	vmov	s16, r0
 8005420:	2101      	movs	r1, #1
 8005422:	4620      	mov	r0, r4
 8005424:	f000 fd4c 	bl	8005ec0 <__i2b>
 8005428:	9b0a      	ldr	r3, [sp, #40]	; 0x28
 800542a:	2b00      	cmp	r3, #0
 800542c:	4606      	mov	r6, r0
 800542e:	f340 8088 	ble.w	8005542 <_dtoa_r+0x8c2>
 8005432:	461a      	mov	r2, r3
 8005434:	4601      	mov	r1, r0
 8005436:	4620      	mov	r0, r4
 8005438:	f000 fe02 	bl	8006040 <__pow5mult>
 800543c:	9b06      	ldr	r3, [sp, #24]
 800543e:	2b01      	cmp	r3, #1
 8005440:	4606      	mov	r6, r0
 8005442:	f340 8081 	ble.w	8005548 <_dtoa_r+0x8c8>
 8005446:	f04f 0800 	mov.w	r8, #0
 800544a:	6933      	ldr	r3, [r6, #16]
 800544c:	eb06 0383 	add.w	r3, r6, r3, lsl #2
 8005450:	6918      	ldr	r0, [r3, #16]
 8005452:	f000 fce5 	bl	8005e20 <__hi0bits>
 8005456:	f1c0 0020 	rsb	r0, r0, #32
 800545a:	9b05      	ldr	r3, [sp, #20]
 800545c:	4418      	add	r0, r3
 800545e:	f010 001f 	ands.w	r0, r0, #31
 8005462:	f000 8092 	beq.w	800558a <_dtoa_r+0x90a>
 8005466:	f1c0 0320 	rsb	r3, r0, #32
 800546a:	2b04      	cmp	r3, #4
 800546c:	f340 808a 	ble.w	8005584 <_dtoa_r+0x904>
 8005470:	f1c0 001c 	rsb	r0, r0, #28
 8005474:	9b04      	ldr	r3, [sp, #16]
 8005476:	4403      	add	r3, r0
 8005478:	9304      	str	r3, [sp, #16]
 800547a:	9b05      	ldr	r3, [sp, #20]
 800547c:	4403      	add	r3, r0
 800547e:	4405      	add	r5, r0
 8005480:	9305      	str	r3, [sp, #20]
 8005482:	9b04      	ldr	r3, [sp, #16]
 8005484:	2b00      	cmp	r3, #0
 8005486:	dd07      	ble.n	8005498 <_dtoa_r+0x818>
 8005488:	ee18 1a10 	vmov	r1, s16
 800548c:	461a      	mov	r2, r3
 800548e:	4620      	mov	r0, r4
 8005490:	f000 fe30 	bl	80060f4 <__lshift>
 8005494:	ee08 0a10 	vmov	s16, r0
 8005498:	9b05      	ldr	r3, [sp, #20]
 800549a:	2b00      	cmp	r3, #0
 800549c:	dd05      	ble.n	80054aa <_dtoa_r+0x82a>
 800549e:	4631      	mov	r1, r6
 80054a0:	461a      	mov	r2, r3
 80054a2:	4620      	mov	r0, r4
 80054a4:	f000 fe26 	bl	80060f4 <__lshift>
 80054a8:	4606      	mov	r6, r0
 80054aa:	9b0b      	ldr	r3, [sp, #44]	; 0x2c
 80054ac:	2b00      	cmp	r3, #0
 80054ae:	d06e      	beq.n	800558e <_dtoa_r+0x90e>
 80054b0:	ee18 0a10 	vmov	r0, s16
 80054b4:	4631      	mov	r1, r6
 80054b6:	f000 fe8d 	bl	80061d4 <__mcmp>
 80054ba:	2800      	cmp	r0, #0
 80054bc:	da67      	bge.n	800558e <_dtoa_r+0x90e>
 80054be:	9b00      	ldr	r3, [sp, #0]
 80054c0:	3b01      	subs	r3, #1
 80054c2:	ee18 1a10 	vmov	r1, s16
 80054c6:	9300      	str	r3, [sp, #0]
 80054c8:	220a      	movs	r2, #10
 80054ca:	2300      	movs	r3, #0
 80054cc:	4620      	mov	r0, r4
 80054ce:	f000 fc61 	bl	8005d94 <__multadd>
 80054d2:	9b08      	ldr	r3, [sp, #32]
 80054d4:	ee08 0a10 	vmov	s16, r0
 80054d8:	2b00      	cmp	r3, #0
 80054da:	f000 81b1 	beq.w	8005840 <_dtoa_r+0xbc0>
 80054de:	2300      	movs	r3, #0
 80054e0:	4639      	mov	r1, r7
 80054e2:	220a      	movs	r2, #10
 80054e4:	4620      	mov	r0, r4
 80054e6:	f000 fc55 	bl	8005d94 <__multadd>
 80054ea:	9b02      	ldr	r3, [sp, #8]
 80054ec:	2b00      	cmp	r3, #0
 80054ee:	4607      	mov	r7, r0
 80054f0:	f300 808e 	bgt.w	8005610 <_dtoa_r+0x990>
 80054f4:	9b06      	ldr	r3, [sp, #24]
 80054f6:	2b02      	cmp	r3, #2
 80054f8:	dc51      	bgt.n	800559e <_dtoa_r+0x91e>
 80054fa:	e089      	b.n	8005610 <_dtoa_r+0x990>
 80054fc:	9b10      	ldr	r3, [sp, #64]	; 0x40
 80054fe:	f1c3 0336 	rsb	r3, r3, #54	; 0x36
 8005502:	e74b      	b.n	800539c <_dtoa_r+0x71c>
 8005504:	9b03      	ldr	r3, [sp, #12]
 8005506:	1e5e      	subs	r6, r3, #1
 8005508:	9b07      	ldr	r3, [sp, #28]
 800550a:	42b3      	cmp	r3, r6
 800550c:	bfbf      	itttt	lt
 800550e:	9b07      	ldrlt	r3, [sp, #28]
 8005510:	9607      	strlt	r6, [sp, #28]
 8005512:	1af2      	sublt	r2, r6, r3
 8005514:	9b0a      	ldrlt	r3, [sp, #40]	; 0x28
 8005516:	bfb6      	itet	lt
 8005518:	189b      	addlt	r3, r3, r2
 800551a:	1b9e      	subge	r6, r3, r6
 800551c:	930a      	strlt	r3, [sp, #40]	; 0x28
 800551e:	9b03      	ldr	r3, [sp, #12]
 8005520:	bfb8      	it	lt
 8005522:	2600      	movlt	r6, #0
 8005524:	2b00      	cmp	r3, #0
 8005526:	bfb7      	itett	lt
 8005528:	e9dd 2303 	ldrdlt	r2, r3, [sp, #12]
 800552c:	e9dd 3503 	ldrdge	r3, r5, [sp, #12]
 8005530:	1a9d      	sublt	r5, r3, r2
 8005532:	2300      	movlt	r3, #0
 8005534:	e734      	b.n	80053a0 <_dtoa_r+0x720>
 8005536:	9e07      	ldr	r6, [sp, #28]
 8005538:	9d04      	ldr	r5, [sp, #16]
 800553a:	9f08      	ldr	r7, [sp, #32]
 800553c:	e73b      	b.n	80053b6 <_dtoa_r+0x736>
 800553e:	9a07      	ldr	r2, [sp, #28]
 8005540:	e767      	b.n	8005412 <_dtoa_r+0x792>
 8005542:	9b06      	ldr	r3, [sp, #24]
 8005544:	2b01      	cmp	r3, #1
 8005546:	dc18      	bgt.n	800557a <_dtoa_r+0x8fa>
 8005548:	f1ba 0f00 	cmp.w	sl, #0
 800554c:	d115      	bne.n	800557a <_dtoa_r+0x8fa>
 800554e:	f3cb 0313 	ubfx	r3, fp, #0, #20
 8005552:	b993      	cbnz	r3, 800557a <_dtoa_r+0x8fa>
 8005554:	f02b 4300 	bic.w	r3, fp, #2147483648	; 0x80000000
 8005558:	0d1b      	lsrs	r3, r3, #20
 800555a:	051b      	lsls	r3, r3, #20
 800555c:	b183      	cbz	r3, 8005580 <_dtoa_r+0x900>
 800555e:	9b04      	ldr	r3, [sp, #16]
 8005560:	3301      	adds	r3, #1
 8005562:	9304      	str	r3, [sp, #16]
 8005564:	9b05      	ldr	r3, [sp, #20]
 8005566:	3301      	adds	r3, #1
 8005568:	9305      	str	r3, [sp, #20]
 800556a:	f04f 0801 	mov.w	r8, #1
 800556e:	9b0a      	ldr	r3, [sp, #40]	; 0x28
 8005570:	2b00      	cmp	r3, #0
 8005572:	f47f af6a 	bne.w	800544a <_dtoa_r+0x7ca>
 8005576:	2001      	movs	r0, #1
 8005578:	e76f      	b.n	800545a <_dtoa_r+0x7da>
 800557a:	f04f 0800 	mov.w	r8, #0
 800557e:	e7f6      	b.n	800556e <_dtoa_r+0x8ee>
 8005580:	4698      	mov	r8, r3
 8005582:	e7f4      	b.n	800556e <_dtoa_r+0x8ee>
 8005584:	f43f af7d 	beq.w	8005482 <_dtoa_r+0x802>
 8005588:	4618      	mov	r0, r3
 800558a:	301c      	adds	r0, #28
 800558c:	e772      	b.n	8005474 <_dtoa_r+0x7f4>
 800558e:	9b03      	ldr	r3, [sp, #12]
 8005590:	2b00      	cmp	r3, #0
 8005592:	dc37      	bgt.n	8005604 <_dtoa_r+0x984>
 8005594:	9b06      	ldr	r3, [sp, #24]
 8005596:	2b02      	cmp	r3, #2
 8005598:	dd34      	ble.n	8005604 <_dtoa_r+0x984>
 800559a:	9b03      	ldr	r3, [sp, #12]
 800559c:	9302      	str	r3, [sp, #8]
 800559e:	9b02      	ldr	r3, [sp, #8]
 80055a0:	b96b      	cbnz	r3, 80055be <_dtoa_r+0x93e>
 80055a2:	4631      	mov	r1, r6
 80055a4:	2205      	movs	r2, #5
 80055a6:	4620      	mov	r0, r4
 80055a8:	f000 fbf4 	bl	8005d94 <__multadd>
 80055ac:	4601      	mov	r1, r0
 80055ae:	4606      	mov	r6, r0
 80055b0:	ee18 0a10 	vmov	r0, s16
 80055b4:	f000 fe0e 	bl	80061d4 <__mcmp>
 80055b8:	2800      	cmp	r0, #0
 80055ba:	f73f adbb 	bgt.w	8005134 <_dtoa_r+0x4b4>
 80055be:	9b09      	ldr	r3, [sp, #36]	; 0x24
 80055c0:	9d01      	ldr	r5, [sp, #4]
 80055c2:	43db      	mvns	r3, r3
 80055c4:	9300      	str	r3, [sp, #0]
 80055c6:	f04f 0800 	mov.w	r8, #0
 80055ca:	4631      	mov	r1, r6
 80055cc:	4620      	mov	r0, r4
 80055ce:	f000 fbbf 	bl	8005d50 <_Bfree>
 80055d2:	2f00      	cmp	r7, #0
 80055d4:	f43f aea4 	beq.w	8005320 <_dtoa_r+0x6a0>
 80055d8:	f1b8 0f00 	cmp.w	r8, #0
 80055dc:	d005      	beq.n	80055ea <_dtoa_r+0x96a>
 80055de:	45b8      	cmp	r8, r7
 80055e0:	d003      	beq.n	80055ea <_dtoa_r+0x96a>
 80055e2:	4641      	mov	r1, r8
 80055e4:	4620      	mov	r0, r4
 80055e6:	f000 fbb3 	bl	8005d50 <_Bfree>
 80055ea:	4639      	mov	r1, r7
 80055ec:	4620      	mov	r0, r4
 80055ee:	f000 fbaf 	bl	8005d50 <_Bfree>
 80055f2:	e695      	b.n	8005320 <_dtoa_r+0x6a0>
 80055f4:	2600      	movs	r6, #0
 80055f6:	4637      	mov	r7, r6
 80055f8:	e7e1      	b.n	80055be <_dtoa_r+0x93e>
 80055fa:	9700      	str	r7, [sp, #0]
 80055fc:	4637      	mov	r7, r6
 80055fe:	e599      	b.n	8005134 <_dtoa_r+0x4b4>
 8005600:	40240000 	.word	0x40240000
 8005604:	9b08      	ldr	r3, [sp, #32]
 8005606:	2b00      	cmp	r3, #0
 8005608:	f000 80ca 	beq.w	80057a0 <_dtoa_r+0xb20>
 800560c:	9b03      	ldr	r3, [sp, #12]
 800560e:	9302      	str	r3, [sp, #8]
 8005610:	2d00      	cmp	r5, #0
 8005612:	dd05      	ble.n	8005620 <_dtoa_r+0x9a0>
 8005614:	4639      	mov	r1, r7
 8005616:	462a      	mov	r2, r5
 8005618:	4620      	mov	r0, r4
 800561a:	f000 fd6b 	bl	80060f4 <__lshift>
 800561e:	4607      	mov	r7, r0
 8005620:	f1b8 0f00 	cmp.w	r8, #0
 8005624:	d05b      	beq.n	80056de <_dtoa_r+0xa5e>
 8005626:	6879      	ldr	r1, [r7, #4]
 8005628:	4620      	mov	r0, r4
 800562a:	f000 fb51 	bl	8005cd0 <_Balloc>
 800562e:	4605      	mov	r5, r0
 8005630:	b928      	cbnz	r0, 800563e <_dtoa_r+0x9be>
 8005632:	4b87      	ldr	r3, [pc, #540]	; (8005850 <_dtoa_r+0xbd0>)
 8005634:	4602      	mov	r2, r0
 8005636:	f240 21ea 	movw	r1, #746	; 0x2ea
 800563a:	f7ff bb3b 	b.w	8004cb4 <_dtoa_r+0x34>
 800563e:	693a      	ldr	r2, [r7, #16]
 8005640:	3202      	adds	r2, #2
 8005642:	0092      	lsls	r2, r2, #2
 8005644:	f107 010c 	add.w	r1, r7, #12
 8005648:	300c      	adds	r0, #12
 800564a:	f000 fb33 	bl	8005cb4 <memcpy>
 800564e:	2201      	movs	r2, #1
 8005650:	4629      	mov	r1, r5
 8005652:	4620      	mov	r0, r4
 8005654:	f000 fd4e 	bl	80060f4 <__lshift>
 8005658:	9b01      	ldr	r3, [sp, #4]
 800565a:	f103 0901 	add.w	r9, r3, #1
 800565e:	e9dd 2301 	ldrd	r2, r3, [sp, #4]
 8005662:	4413      	add	r3, r2
 8005664:	9305      	str	r3, [sp, #20]
 8005666:	f00a 0301 	and.w	r3, sl, #1
 800566a:	46b8      	mov	r8, r7
 800566c:	9304      	str	r3, [sp, #16]
 800566e:	4607      	mov	r7, r0
 8005670:	4631      	mov	r1, r6
 8005672:	ee18 0a10 	vmov	r0, s16
 8005676:	f7ff fa75 	bl	8004b64 <quorem>
 800567a:	4641      	mov	r1, r8
 800567c:	9002      	str	r0, [sp, #8]
 800567e:	f100 0a30 	add.w	sl, r0, #48	; 0x30
 8005682:	ee18 0a10 	vmov	r0, s16
 8005686:	f000 fda5 	bl	80061d4 <__mcmp>
 800568a:	463a      	mov	r2, r7
 800568c:	9003      	str	r0, [sp, #12]
 800568e:	4631      	mov	r1, r6
 8005690:	4620      	mov	r0, r4
 8005692:	f000 fdbb 	bl	800620c <__mdiff>
 8005696:	68c2      	ldr	r2, [r0, #12]
 8005698:	f109 3bff 	add.w	fp, r9, #4294967295
 800569c:	4605      	mov	r5, r0
 800569e:	bb02      	cbnz	r2, 80056e2 <_dtoa_r+0xa62>
 80056a0:	4601      	mov	r1, r0
 80056a2:	ee18 0a10 	vmov	r0, s16
 80056a6:	f000 fd95 	bl	80061d4 <__mcmp>
 80056aa:	4602      	mov	r2, r0
 80056ac:	4629      	mov	r1, r5
 80056ae:	4620      	mov	r0, r4
 80056b0:	9207      	str	r2, [sp, #28]
 80056b2:	f000 fb4d 	bl	8005d50 <_Bfree>
 80056b6:	e9dd 3206 	ldrd	r3, r2, [sp, #24]
 80056ba:	ea43 0102 	orr.w	r1, r3, r2
 80056be:	9b04      	ldr	r3, [sp, #16]
 80056c0:	430b      	orrs	r3, r1
 80056c2:	464d      	mov	r5, r9
 80056c4:	d10f      	bne.n	80056e6 <_dtoa_r+0xa66>
 80056c6:	f1ba 0f39 	cmp.w	sl, #57	; 0x39
 80056ca:	d02a      	beq.n	8005722 <_dtoa_r+0xaa2>
 80056cc:	9b03      	ldr	r3, [sp, #12]
 80056ce:	2b00      	cmp	r3, #0
 80056d0:	dd02      	ble.n	80056d8 <_dtoa_r+0xa58>
 80056d2:	9b02      	ldr	r3, [sp, #8]
 80056d4:	f103 0a31 	add.w	sl, r3, #49	; 0x31
 80056d8:	f88b a000 	strb.w	sl, [fp]
 80056dc:	e775      	b.n	80055ca <_dtoa_r+0x94a>
 80056de:	4638      	mov	r0, r7
 80056e0:	e7ba      	b.n	8005658 <_dtoa_r+0x9d8>
 80056e2:	2201      	movs	r2, #1
 80056e4:	e7e2      	b.n	80056ac <_dtoa_r+0xa2c>
 80056e6:	9b03      	ldr	r3, [sp, #12]
 80056e8:	2b00      	cmp	r3, #0
 80056ea:	db04      	blt.n	80056f6 <_dtoa_r+0xa76>
 80056ec:	9906      	ldr	r1, [sp, #24]
 80056ee:	430b      	orrs	r3, r1
 80056f0:	9904      	ldr	r1, [sp, #16]
 80056f2:	430b      	orrs	r3, r1
 80056f4:	d122      	bne.n	800573c <_dtoa_r+0xabc>
 80056f6:	2a00      	cmp	r2, #0
 80056f8:	ddee      	ble.n	80056d8 <_dtoa_r+0xa58>
 80056fa:	ee18 1a10 	vmov	r1, s16
 80056fe:	2201      	movs	r2, #1
 8005700:	4620      	mov	r0, r4
 8005702:	f000 fcf7 	bl	80060f4 <__lshift>
 8005706:	4631      	mov	r1, r6
 8005708:	ee08 0a10 	vmov	s16, r0
 800570c:	f000 fd62 	bl	80061d4 <__mcmp>
 8005710:	2800      	cmp	r0, #0
 8005712:	dc03      	bgt.n	800571c <_dtoa_r+0xa9c>
 8005714:	d1e0      	bne.n	80056d8 <_dtoa_r+0xa58>
 8005716:	f01a 0f01 	tst.w	sl, #1
 800571a:	d0dd      	beq.n	80056d8 <_dtoa_r+0xa58>
 800571c:	f1ba 0f39 	cmp.w	sl, #57	; 0x39
 8005720:	d1d7      	bne.n	80056d2 <_dtoa_r+0xa52>
 8005722:	2339      	movs	r3, #57	; 0x39
 8005724:	f88b 3000 	strb.w	r3, [fp]
 8005728:	462b      	mov	r3, r5
 800572a:	461d      	mov	r5, r3
 800572c:	3b01      	subs	r3, #1
 800572e:	f815 2c01 	ldrb.w	r2, [r5, #-1]
 8005732:	2a39      	cmp	r2, #57	; 0x39
 8005734:	d071      	beq.n	800581a <_dtoa_r+0xb9a>
 8005736:	3201      	adds	r2, #1
 8005738:	701a      	strb	r2, [r3, #0]
 800573a:	e746      	b.n	80055ca <_dtoa_r+0x94a>
 800573c:	2a00      	cmp	r2, #0
 800573e:	dd07      	ble.n	8005750 <_dtoa_r+0xad0>
 8005740:	f1ba 0f39 	cmp.w	sl, #57	; 0x39
 8005744:	d0ed      	beq.n	8005722 <_dtoa_r+0xaa2>
 8005746:	f10a 0301 	add.w	r3, sl, #1
 800574a:	f88b 3000 	strb.w	r3, [fp]
 800574e:	e73c      	b.n	80055ca <_dtoa_r+0x94a>
 8005750:	9b05      	ldr	r3, [sp, #20]
 8005752:	f809 ac01 	strb.w	sl, [r9, #-1]
 8005756:	4599      	cmp	r9, r3
 8005758:	d047      	beq.n	80057ea <_dtoa_r+0xb6a>
 800575a:	ee18 1a10 	vmov	r1, s16
 800575e:	2300      	movs	r3, #0
 8005760:	220a      	movs	r2, #10
 8005762:	4620      	mov	r0, r4
 8005764:	f000 fb16 	bl	8005d94 <__multadd>
 8005768:	45b8      	cmp	r8, r7
 800576a:	ee08 0a10 	vmov	s16, r0
 800576e:	f04f 0300 	mov.w	r3, #0
 8005772:	f04f 020a 	mov.w	r2, #10
 8005776:	4641      	mov	r1, r8
 8005778:	4620      	mov	r0, r4
 800577a:	d106      	bne.n	800578a <_dtoa_r+0xb0a>
 800577c:	f000 fb0a 	bl	8005d94 <__multadd>
 8005780:	4680      	mov	r8, r0
 8005782:	4607      	mov	r7, r0
 8005784:	f109 0901 	add.w	r9, r9, #1
 8005788:	e772      	b.n	8005670 <_dtoa_r+0x9f0>
 800578a:	f000 fb03 	bl	8005d94 <__multadd>
 800578e:	4639      	mov	r1, r7
 8005790:	4680      	mov	r8, r0
 8005792:	2300      	movs	r3, #0
 8005794:	220a      	movs	r2, #10
 8005796:	4620      	mov	r0, r4
 8005798:	f000 fafc 	bl	8005d94 <__multadd>
 800579c:	4607      	mov	r7, r0
 800579e:	e7f1      	b.n	8005784 <_dtoa_r+0xb04>
 80057a0:	9b03      	ldr	r3, [sp, #12]
 80057a2:	9302      	str	r3, [sp, #8]
 80057a4:	9d01      	ldr	r5, [sp, #4]
 80057a6:	ee18 0a10 	vmov	r0, s16
 80057aa:	4631      	mov	r1, r6
 80057ac:	f7ff f9da 	bl	8004b64 <quorem>
 80057b0:	f100 0a30 	add.w	sl, r0, #48	; 0x30
 80057b4:	9b01      	ldr	r3, [sp, #4]
 80057b6:	f805 ab01 	strb.w	sl, [r5], #1
 80057ba:	1aea      	subs	r2, r5, r3
 80057bc:	9b02      	ldr	r3, [sp, #8]
 80057be:	4293      	cmp	r3, r2
 80057c0:	dd09      	ble.n	80057d6 <_dtoa_r+0xb56>
 80057c2:	ee18 1a10 	vmov	r1, s16
 80057c6:	2300      	movs	r3, #0
 80057c8:	220a      	movs	r2, #10
 80057ca:	4620      	mov	r0, r4
 80057cc:	f000 fae2 	bl	8005d94 <__multadd>
 80057d0:	ee08 0a10 	vmov	s16, r0
 80057d4:	e7e7      	b.n	80057a6 <_dtoa_r+0xb26>
 80057d6:	9b02      	ldr	r3, [sp, #8]
 80057d8:	2b00      	cmp	r3, #0
 80057da:	bfc8      	it	gt
 80057dc:	461d      	movgt	r5, r3
 80057de:	9b01      	ldr	r3, [sp, #4]
 80057e0:	bfd8      	it	le
 80057e2:	2501      	movle	r5, #1
 80057e4:	441d      	add	r5, r3
 80057e6:	f04f 0800 	mov.w	r8, #0
 80057ea:	ee18 1a10 	vmov	r1, s16
 80057ee:	2201      	movs	r2, #1
 80057f0:	4620      	mov	r0, r4
 80057f2:	f000 fc7f 	bl	80060f4 <__lshift>
 80057f6:	4631      	mov	r1, r6
 80057f8:	ee08 0a10 	vmov	s16, r0
 80057fc:	f000 fcea 	bl	80061d4 <__mcmp>
 8005800:	2800      	cmp	r0, #0
 8005802:	dc91      	bgt.n	8005728 <_dtoa_r+0xaa8>
 8005804:	d102      	bne.n	800580c <_dtoa_r+0xb8c>
 8005806:	f01a 0f01 	tst.w	sl, #1
 800580a:	d18d      	bne.n	8005728 <_dtoa_r+0xaa8>
 800580c:	462b      	mov	r3, r5
 800580e:	461d      	mov	r5, r3
 8005810:	f813 2d01 	ldrb.w	r2, [r3, #-1]!
 8005814:	2a30      	cmp	r2, #48	; 0x30
 8005816:	d0fa      	beq.n	800580e <_dtoa_r+0xb8e>
 8005818:	e6d7      	b.n	80055ca <_dtoa_r+0x94a>
 800581a:	9a01      	ldr	r2, [sp, #4]
 800581c:	429a      	cmp	r2, r3
 800581e:	d184      	bne.n	800572a <_dtoa_r+0xaaa>
 8005820:	9b00      	ldr	r3, [sp, #0]
 8005822:	3301      	adds	r3, #1
 8005824:	9300      	str	r3, [sp, #0]
 8005826:	2331      	movs	r3, #49	; 0x31
 8005828:	7013      	strb	r3, [r2, #0]
 800582a:	e6ce      	b.n	80055ca <_dtoa_r+0x94a>
 800582c:	4b09      	ldr	r3, [pc, #36]	; (8005854 <_dtoa_r+0xbd4>)
 800582e:	f7ff ba95 	b.w	8004d5c <_dtoa_r+0xdc>
 8005832:	9b21      	ldr	r3, [sp, #132]	; 0x84
 8005834:	2b00      	cmp	r3, #0
 8005836:	f47f aa6e 	bne.w	8004d16 <_dtoa_r+0x96>
 800583a:	4b07      	ldr	r3, [pc, #28]	; (8005858 <_dtoa_r+0xbd8>)
 800583c:	f7ff ba8e 	b.w	8004d5c <_dtoa_r+0xdc>
 8005840:	9b02      	ldr	r3, [sp, #8]
 8005842:	2b00      	cmp	r3, #0
 8005844:	dcae      	bgt.n	80057a4 <_dtoa_r+0xb24>
 8005846:	9b06      	ldr	r3, [sp, #24]
 8005848:	2b02      	cmp	r3, #2
 800584a:	f73f aea8 	bgt.w	800559e <_dtoa_r+0x91e>
 800584e:	e7a9      	b.n	80057a4 <_dtoa_r+0xb24>
 8005850:	08006d6f 	.word	0x08006d6f
 8005854:	08006ccc 	.word	0x08006ccc
 8005858:	08006cf0 	.word	0x08006cf0

0800585c <__sflush_r>:
 800585c:	898a      	ldrh	r2, [r1, #12]
 800585e:	e92d 41f0 	stmdb	sp!, {r4, r5, r6, r7, r8, lr}
 8005862:	4605      	mov	r5, r0
 8005864:	0710      	lsls	r0, r2, #28
 8005866:	460c      	mov	r4, r1
 8005868:	d458      	bmi.n	800591c <__sflush_r+0xc0>
 800586a:	684b      	ldr	r3, [r1, #4]
 800586c:	2b00      	cmp	r3, #0
 800586e:	dc05      	bgt.n	800587c <__sflush_r+0x20>
 8005870:	6c0b      	ldr	r3, [r1, #64]	; 0x40
 8005872:	2b00      	cmp	r3, #0
 8005874:	dc02      	bgt.n	800587c <__sflush_r+0x20>
 8005876:	2000      	movs	r0, #0
 8005878:	e8bd 81f0 	ldmia.w	sp!, {r4, r5, r6, r7, r8, pc}
 800587c:	6ae6      	ldr	r6, [r4, #44]	; 0x2c
 800587e:	2e00      	cmp	r6, #0
 8005880:	d0f9      	beq.n	8005876 <__sflush_r+0x1a>
 8005882:	2300      	movs	r3, #0
 8005884:	f412 5280 	ands.w	r2, r2, #4096	; 0x1000
 8005888:	682f      	ldr	r7, [r5, #0]
 800588a:	602b      	str	r3, [r5, #0]
 800588c:	d032      	beq.n	80058f4 <__sflush_r+0x98>
 800588e:	6d60      	ldr	r0, [r4, #84]	; 0x54
 8005890:	89a3      	ldrh	r3, [r4, #12]
 8005892:	075a      	lsls	r2, r3, #29
 8005894:	d505      	bpl.n	80058a2 <__sflush_r+0x46>
 8005896:	6863      	ldr	r3, [r4, #4]
 8005898:	1ac0      	subs	r0, r0, r3
 800589a:	6b63      	ldr	r3, [r4, #52]	; 0x34
 800589c:	b10b      	cbz	r3, 80058a2 <__sflush_r+0x46>
 800589e:	6c23      	ldr	r3, [r4, #64]	; 0x40
 80058a0:	1ac0      	subs	r0, r0, r3
 80058a2:	2300      	movs	r3, #0
 80058a4:	4602      	mov	r2, r0
 80058a6:	6ae6      	ldr	r6, [r4, #44]	; 0x2c
 80058a8:	6a21      	ldr	r1, [r4, #32]
 80058aa:	4628      	mov	r0, r5
 80058ac:	47b0      	blx	r6
 80058ae:	1c43      	adds	r3, r0, #1
 80058b0:	89a3      	ldrh	r3, [r4, #12]
 80058b2:	d106      	bne.n	80058c2 <__sflush_r+0x66>
 80058b4:	6829      	ldr	r1, [r5, #0]
 80058b6:	291d      	cmp	r1, #29
 80058b8:	d82c      	bhi.n	8005914 <__sflush_r+0xb8>
 80058ba:	4a2a      	ldr	r2, [pc, #168]	; (8005964 <__sflush_r+0x108>)
 80058bc:	40ca      	lsrs	r2, r1
 80058be:	07d6      	lsls	r6, r2, #31
 80058c0:	d528      	bpl.n	8005914 <__sflush_r+0xb8>
 80058c2:	2200      	movs	r2, #0
 80058c4:	6062      	str	r2, [r4, #4]
 80058c6:	04d9      	lsls	r1, r3, #19
 80058c8:	6922      	ldr	r2, [r4, #16]
 80058ca:	6022      	str	r2, [r4, #0]
 80058cc:	d504      	bpl.n	80058d8 <__sflush_r+0x7c>
 80058ce:	1c42      	adds	r2, r0, #1
 80058d0:	d101      	bne.n	80058d6 <__sflush_r+0x7a>
 80058d2:	682b      	ldr	r3, [r5, #0]
 80058d4:	b903      	cbnz	r3, 80058d8 <__sflush_r+0x7c>
 80058d6:	6560      	str	r0, [r4, #84]	; 0x54
 80058d8:	6b61      	ldr	r1, [r4, #52]	; 0x34
 80058da:	602f      	str	r7, [r5, #0]
 80058dc:	2900      	cmp	r1, #0
 80058de:	d0ca      	beq.n	8005876 <__sflush_r+0x1a>
 80058e0:	f104 0344 	add.w	r3, r4, #68	; 0x44
 80058e4:	4299      	cmp	r1, r3
 80058e6:	d002      	beq.n	80058ee <__sflush_r+0x92>
 80058e8:	4628      	mov	r0, r5
 80058ea:	f000 fd8b 	bl	8006404 <_free_r>
 80058ee:	2000      	movs	r0, #0
 80058f0:	6360      	str	r0, [r4, #52]	; 0x34
 80058f2:	e7c1      	b.n	8005878 <__sflush_r+0x1c>
 80058f4:	6a21      	ldr	r1, [r4, #32]
 80058f6:	2301      	movs	r3, #1
 80058f8:	4628      	mov	r0, r5
 80058fa:	47b0      	blx	r6
 80058fc:	1c41      	adds	r1, r0, #1
 80058fe:	d1c7      	bne.n	8005890 <__sflush_r+0x34>
 8005900:	682b      	ldr	r3, [r5, #0]
 8005902:	2b00      	cmp	r3, #0
 8005904:	d0c4      	beq.n	8005890 <__sflush_r+0x34>
 8005906:	2b1d      	cmp	r3, #29
 8005908:	d001      	beq.n	800590e <__sflush_r+0xb2>
 800590a:	2b16      	cmp	r3, #22
 800590c:	d101      	bne.n	8005912 <__sflush_r+0xb6>
 800590e:	602f      	str	r7, [r5, #0]
 8005910:	e7b1      	b.n	8005876 <__sflush_r+0x1a>
 8005912:	89a3      	ldrh	r3, [r4, #12]
 8005914:	f043 0340 	orr.w	r3, r3, #64	; 0x40
 8005918:	81a3      	strh	r3, [r4, #12]
 800591a:	e7ad      	b.n	8005878 <__sflush_r+0x1c>
 800591c:	690f      	ldr	r7, [r1, #16]
 800591e:	2f00      	cmp	r7, #0
 8005920:	d0a9      	beq.n	8005876 <__sflush_r+0x1a>
 8005922:	0793      	lsls	r3, r2, #30
 8005924:	680e      	ldr	r6, [r1, #0]
 8005926:	bf08      	it	eq
 8005928:	694b      	ldreq	r3, [r1, #20]
 800592a:	600f      	str	r7, [r1, #0]
 800592c:	bf18      	it	ne
 800592e:	2300      	movne	r3, #0
 8005930:	eba6 0807 	sub.w	r8, r6, r7
 8005934:	608b      	str	r3, [r1, #8]
 8005936:	f1b8 0f00 	cmp.w	r8, #0
 800593a:	dd9c      	ble.n	8005876 <__sflush_r+0x1a>
 800593c:	6a21      	ldr	r1, [r4, #32]
 800593e:	6aa6      	ldr	r6, [r4, #40]	; 0x28
 8005940:	4643      	mov	r3, r8
 8005942:	463a      	mov	r2, r7
 8005944:	4628      	mov	r0, r5
 8005946:	47b0      	blx	r6
 8005948:	2800      	cmp	r0, #0
 800594a:	dc06      	bgt.n	800595a <__sflush_r+0xfe>
 800594c:	89a3      	ldrh	r3, [r4, #12]
 800594e:	f043 0340 	orr.w	r3, r3, #64	; 0x40
 8005952:	81a3      	strh	r3, [r4, #12]
 8005954:	f04f 30ff 	mov.w	r0, #4294967295
 8005958:	e78e      	b.n	8005878 <__sflush_r+0x1c>
 800595a:	4407      	add	r7, r0
 800595c:	eba8 0800 	sub.w	r8, r8, r0
 8005960:	e7e9      	b.n	8005936 <__sflush_r+0xda>
 8005962:	bf00      	nop
 8005964:	20400001 	.word	0x20400001

08005968 <_fflush_r>:
 8005968:	b538      	push	{r3, r4, r5, lr}
 800596a:	690b      	ldr	r3, [r1, #16]
 800596c:	4605      	mov	r5, r0
 800596e:	460c      	mov	r4, r1
 8005970:	b913      	cbnz	r3, 8005978 <_fflush_r+0x10>
 8005972:	2500      	movs	r5, #0
 8005974:	4628      	mov	r0, r5
 8005976:	bd38      	pop	{r3, r4, r5, pc}
 8005978:	b118      	cbz	r0, 8005982 <_fflush_r+0x1a>
 800597a:	6983      	ldr	r3, [r0, #24]
 800597c:	b90b      	cbnz	r3, 8005982 <_fflush_r+0x1a>
 800597e:	f000 f887 	bl	8005a90 <__sinit>
 8005982:	4b14      	ldr	r3, [pc, #80]	; (80059d4 <_fflush_r+0x6c>)
 8005984:	429c      	cmp	r4, r3
 8005986:	d11b      	bne.n	80059c0 <_fflush_r+0x58>
 8005988:	686c      	ldr	r4, [r5, #4]
 800598a:	f9b4 300c 	ldrsh.w	r3, [r4, #12]
 800598e:	2b00      	cmp	r3, #0
 8005990:	d0ef      	beq.n	8005972 <_fflush_r+0xa>
 8005992:	6e62      	ldr	r2, [r4, #100]	; 0x64
 8005994:	07d0      	lsls	r0, r2, #31
 8005996:	d404      	bmi.n	80059a2 <_fflush_r+0x3a>
 8005998:	0599      	lsls	r1, r3, #22
 800599a:	d402      	bmi.n	80059a2 <_fflush_r+0x3a>
 800599c:	6da0      	ldr	r0, [r4, #88]	; 0x58
 800599e:	f000 f91a 	bl	8005bd6 <__retarget_lock_acquire_recursive>
 80059a2:	4628      	mov	r0, r5
 80059a4:	4621      	mov	r1, r4
 80059a6:	f7ff ff59 	bl	800585c <__sflush_r>
 80059aa:	6e63      	ldr	r3, [r4, #100]	; 0x64
 80059ac:	07da      	lsls	r2, r3, #31
 80059ae:	4605      	mov	r5, r0
 80059b0:	d4e0      	bmi.n	8005974 <_fflush_r+0xc>
 80059b2:	89a3      	ldrh	r3, [r4, #12]
 80059b4:	059b      	lsls	r3, r3, #22
 80059b6:	d4dd      	bmi.n	8005974 <_fflush_r+0xc>
 80059b8:	6da0      	ldr	r0, [r4, #88]	; 0x58
 80059ba:	f000 f90d 	bl	8005bd8 <__retarget_lock_release_recursive>
 80059be:	e7d9      	b.n	8005974 <_fflush_r+0xc>
 80059c0:	4b05      	ldr	r3, [pc, #20]	; (80059d8 <_fflush_r+0x70>)
 80059c2:	429c      	cmp	r4, r3
 80059c4:	d101      	bne.n	80059ca <_fflush_r+0x62>
 80059c6:	68ac      	ldr	r4, [r5, #8]
 80059c8:	e7df      	b.n	800598a <_fflush_r+0x22>
 80059ca:	4b04      	ldr	r3, [pc, #16]	; (80059dc <_fflush_r+0x74>)
 80059cc:	429c      	cmp	r4, r3
 80059ce:	bf08      	it	eq
 80059d0:	68ec      	ldreq	r4, [r5, #12]
 80059d2:	e7da      	b.n	800598a <_fflush_r+0x22>
 80059d4:	08006da0 	.word	0x08006da0
 80059d8:	08006dc0 	.word	0x08006dc0
 80059dc:	08006d80 	.word	0x08006d80

080059e0 <std>:
 80059e0:	2300      	movs	r3, #0
 80059e2:	b510      	push	{r4, lr}
 80059e4:	4604      	mov	r4, r0
 80059e6:	e9c0 3300 	strd	r3, r3, [r0]
 80059ea:	e9c0 3304 	strd	r3, r3, [r0, #16]
 80059ee:	6083      	str	r3, [r0, #8]
 80059f0:	8181      	strh	r1, [r0, #12]
 80059f2:	6643      	str	r3, [r0, #100]	; 0x64
 80059f4:	81c2      	strh	r2, [r0, #14]
 80059f6:	6183      	str	r3, [r0, #24]
 80059f8:	4619      	mov	r1, r3
 80059fa:	2208      	movs	r2, #8
 80059fc:	305c      	adds	r0, #92	; 0x5c
 80059fe:	f7fe faf1 	bl	8003fe4 <memset>
 8005a02:	4b05      	ldr	r3, [pc, #20]	; (8005a18 <std+0x38>)
 8005a04:	6263      	str	r3, [r4, #36]	; 0x24
 8005a06:	4b05      	ldr	r3, [pc, #20]	; (8005a1c <std+0x3c>)
 8005a08:	62a3      	str	r3, [r4, #40]	; 0x28
 8005a0a:	4b05      	ldr	r3, [pc, #20]	; (8005a20 <std+0x40>)
 8005a0c:	62e3      	str	r3, [r4, #44]	; 0x2c
 8005a0e:	4b05      	ldr	r3, [pc, #20]	; (8005a24 <std+0x44>)
 8005a10:	6224      	str	r4, [r4, #32]
 8005a12:	6323      	str	r3, [r4, #48]	; 0x30
 8005a14:	bd10      	pop	{r4, pc}
 8005a16:	bf00      	nop
 8005a18:	08006899 	.word	0x08006899
 8005a1c:	080068bb 	.word	0x080068bb
 8005a20:	080068f3 	.word	0x080068f3
 8005a24:	08006917 	.word	0x08006917

08005a28 <_cleanup_r>:
 8005a28:	4901      	ldr	r1, [pc, #4]	; (8005a30 <_cleanup_r+0x8>)
 8005a2a:	f000 b8af 	b.w	8005b8c <_fwalk_reent>
 8005a2e:	bf00      	nop
 8005a30:	08005969 	.word	0x08005969

08005a34 <__sfmoreglue>:
 8005a34:	b570      	push	{r4, r5, r6, lr}
 8005a36:	2268      	movs	r2, #104	; 0x68
 8005a38:	1e4d      	subs	r5, r1, #1
 8005a3a:	4355      	muls	r5, r2
 8005a3c:	460e      	mov	r6, r1
 8005a3e:	f105 0174 	add.w	r1, r5, #116	; 0x74
 8005a42:	f000 fd4b 	bl	80064dc <_malloc_r>
 8005a46:	4604      	mov	r4, r0
 8005a48:	b140      	cbz	r0, 8005a5c <__sfmoreglue+0x28>
 8005a4a:	2100      	movs	r1, #0
 8005a4c:	e9c0 1600 	strd	r1, r6, [r0]
 8005a50:	300c      	adds	r0, #12
 8005a52:	60a0      	str	r0, [r4, #8]
 8005a54:	f105 0268 	add.w	r2, r5, #104	; 0x68
 8005a58:	f7fe fac4 	bl	8003fe4 <memset>
 8005a5c:	4620      	mov	r0, r4
 8005a5e:	bd70      	pop	{r4, r5, r6, pc}

08005a60 <__sfp_lock_acquire>:
 8005a60:	4801      	ldr	r0, [pc, #4]	; (8005a68 <__sfp_lock_acquire+0x8>)
 8005a62:	f000 b8b8 	b.w	8005bd6 <__retarget_lock_acquire_recursive>
 8005a66:	bf00      	nop
 8005a68:	2000030d 	.word	0x2000030d

08005a6c <__sfp_lock_release>:
 8005a6c:	4801      	ldr	r0, [pc, #4]	; (8005a74 <__sfp_lock_release+0x8>)
 8005a6e:	f000 b8b3 	b.w	8005bd8 <__retarget_lock_release_recursive>
 8005a72:	bf00      	nop
 8005a74:	2000030d 	.word	0x2000030d

08005a78 <__sinit_lock_acquire>:
 8005a78:	4801      	ldr	r0, [pc, #4]	; (8005a80 <__sinit_lock_acquire+0x8>)
 8005a7a:	f000 b8ac 	b.w	8005bd6 <__retarget_lock_acquire_recursive>
 8005a7e:	bf00      	nop
 8005a80:	2000030e 	.word	0x2000030e

08005a84 <__sinit_lock_release>:
 8005a84:	4801      	ldr	r0, [pc, #4]	; (8005a8c <__sinit_lock_release+0x8>)
 8005a86:	f000 b8a7 	b.w	8005bd8 <__retarget_lock_release_recursive>
 8005a8a:	bf00      	nop
 8005a8c:	2000030e 	.word	0x2000030e

08005a90 <__sinit>:
 8005a90:	b510      	push	{r4, lr}
 8005a92:	4604      	mov	r4, r0
 8005a94:	f7ff fff0 	bl	8005a78 <__sinit_lock_acquire>
 8005a98:	69a3      	ldr	r3, [r4, #24]
 8005a9a:	b11b      	cbz	r3, 8005aa4 <__sinit+0x14>
 8005a9c:	e8bd 4010 	ldmia.w	sp!, {r4, lr}
 8005aa0:	f7ff bff0 	b.w	8005a84 <__sinit_lock_release>
 8005aa4:	e9c4 3312 	strd	r3, r3, [r4, #72]	; 0x48
 8005aa8:	6523      	str	r3, [r4, #80]	; 0x50
 8005aaa:	4b13      	ldr	r3, [pc, #76]	; (8005af8 <__sinit+0x68>)
 8005aac:	4a13      	ldr	r2, [pc, #76]	; (8005afc <__sinit+0x6c>)
 8005aae:	681b      	ldr	r3, [r3, #0]
 8005ab0:	62a2      	str	r2, [r4, #40]	; 0x28
 8005ab2:	42a3      	cmp	r3, r4
 8005ab4:	bf04      	itt	eq
 8005ab6:	2301      	moveq	r3, #1
 8005ab8:	61a3      	streq	r3, [r4, #24]
 8005aba:	4620      	mov	r0, r4
 8005abc:	f000 f820 	bl	8005b00 <__sfp>
 8005ac0:	6060      	str	r0, [r4, #4]
 8005ac2:	4620      	mov	r0, r4
 8005ac4:	f000 f81c 	bl	8005b00 <__sfp>
 8005ac8:	60a0      	str	r0, [r4, #8]
 8005aca:	4620      	mov	r0, r4
 8005acc:	f000 f818 	bl	8005b00 <__sfp>
 8005ad0:	2200      	movs	r2, #0
 8005ad2:	60e0      	str	r0, [r4, #12]
 8005ad4:	2104      	movs	r1, #4
 8005ad6:	6860      	ldr	r0, [r4, #4]
 8005ad8:	f7ff ff82 	bl	80059e0 <std>
 8005adc:	68a0      	ldr	r0, [r4, #8]
 8005ade:	2201      	movs	r2, #1
 8005ae0:	2109      	movs	r1, #9
 8005ae2:	f7ff ff7d 	bl	80059e0 <std>
 8005ae6:	68e0      	ldr	r0, [r4, #12]
 8005ae8:	2202      	movs	r2, #2
 8005aea:	2112      	movs	r1, #18
 8005aec:	f7ff ff78 	bl	80059e0 <std>
 8005af0:	2301      	movs	r3, #1
 8005af2:	61a3      	str	r3, [r4, #24]
 8005af4:	e7d2      	b.n	8005a9c <__sinit+0xc>
 8005af6:	bf00      	nop
 8005af8:	08006cb8 	.word	0x08006cb8
 8005afc:	08005a29 	.word	0x08005a29

08005b00 <__sfp>:
 8005b00:	b5f8      	push	{r3, r4, r5, r6, r7, lr}
 8005b02:	4607      	mov	r7, r0
 8005b04:	f7ff ffac 	bl	8005a60 <__sfp_lock_acquire>
 8005b08:	4b1e      	ldr	r3, [pc, #120]	; (8005b84 <__sfp+0x84>)
 8005b0a:	681e      	ldr	r6, [r3, #0]
 8005b0c:	69b3      	ldr	r3, [r6, #24]
 8005b0e:	b913      	cbnz	r3, 8005b16 <__sfp+0x16>
 8005b10:	4630      	mov	r0, r6
 8005b12:	f7ff ffbd 	bl	8005a90 <__sinit>
 8005b16:	3648      	adds	r6, #72	; 0x48
 8005b18:	e9d6 3401 	ldrd	r3, r4, [r6, #4]
 8005b1c:	3b01      	subs	r3, #1
 8005b1e:	d503      	bpl.n	8005b28 <__sfp+0x28>
 8005b20:	6833      	ldr	r3, [r6, #0]
 8005b22:	b30b      	cbz	r3, 8005b68 <__sfp+0x68>
 8005b24:	6836      	ldr	r6, [r6, #0]
 8005b26:	e7f7      	b.n	8005b18 <__sfp+0x18>
 8005b28:	f9b4 500c 	ldrsh.w	r5, [r4, #12]
 8005b2c:	b9d5      	cbnz	r5, 8005b64 <__sfp+0x64>
 8005b2e:	4b16      	ldr	r3, [pc, #88]	; (8005b88 <__sfp+0x88>)
 8005b30:	60e3      	str	r3, [r4, #12]
 8005b32:	f104 0058 	add.w	r0, r4, #88	; 0x58
 8005b36:	6665      	str	r5, [r4, #100]	; 0x64
 8005b38:	f000 f84c 	bl	8005bd4 <__retarget_lock_init_recursive>
 8005b3c:	f7ff ff96 	bl	8005a6c <__sfp_lock_release>
 8005b40:	e9c4 5501 	strd	r5, r5, [r4, #4]
 8005b44:	e9c4 5504 	strd	r5, r5, [r4, #16]
 8005b48:	6025      	str	r5, [r4, #0]
 8005b4a:	61a5      	str	r5, [r4, #24]
 8005b4c:	2208      	movs	r2, #8
 8005b4e:	4629      	mov	r1, r5
 8005b50:	f104 005c 	add.w	r0, r4, #92	; 0x5c
 8005b54:	f7fe fa46 	bl	8003fe4 <memset>
 8005b58:	e9c4 550d 	strd	r5, r5, [r4, #52]	; 0x34
 8005b5c:	e9c4 5512 	strd	r5, r5, [r4, #72]	; 0x48
 8005b60:	4620      	mov	r0, r4
 8005b62:	bdf8      	pop	{r3, r4, r5, r6, r7, pc}
 8005b64:	3468      	adds	r4, #104	; 0x68
 8005b66:	e7d9      	b.n	8005b1c <__sfp+0x1c>
 8005b68:	2104      	movs	r1, #4
 8005b6a:	4638      	mov	r0, r7
 8005b6c:	f7ff ff62 	bl	8005a34 <__sfmoreglue>
 8005b70:	4604      	mov	r4, r0
 8005b72:	6030      	str	r0, [r6, #0]
 8005b74:	2800      	cmp	r0, #0
 8005b76:	d1d5      	bne.n	8005b24 <__sfp+0x24>
 8005b78:	f7ff ff78 	bl	8005a6c <__sfp_lock_release>
 8005b7c:	230c      	movs	r3, #12
 8005b7e:	603b      	str	r3, [r7, #0]
 8005b80:	e7ee      	b.n	8005b60 <__sfp+0x60>
 8005b82:	bf00      	nop
 8005b84:	08006cb8 	.word	0x08006cb8
 8005b88:	ffff0001 	.word	0xffff0001

08005b8c <_fwalk_reent>:
 8005b8c:	e92d 43f8 	stmdb	sp!, {r3, r4, r5, r6, r7, r8, r9, lr}
 8005b90:	4606      	mov	r6, r0
 8005b92:	4688      	mov	r8, r1
 8005b94:	f100 0448 	add.w	r4, r0, #72	; 0x48
 8005b98:	2700      	movs	r7, #0
 8005b9a:	e9d4 9501 	ldrd	r9, r5, [r4, #4]
 8005b9e:	f1b9 0901 	subs.w	r9, r9, #1
 8005ba2:	d505      	bpl.n	8005bb0 <_fwalk_reent+0x24>
 8005ba4:	6824      	ldr	r4, [r4, #0]
 8005ba6:	2c00      	cmp	r4, #0
 8005ba8:	d1f7      	bne.n	8005b9a <_fwalk_reent+0xe>
 8005baa:	4638      	mov	r0, r7
 8005bac:	e8bd 83f8 	ldmia.w	sp!, {r3, r4, r5, r6, r7, r8, r9, pc}
 8005bb0:	89ab      	ldrh	r3, [r5, #12]
 8005bb2:	2b01      	cmp	r3, #1
 8005bb4:	d907      	bls.n	8005bc6 <_fwalk_reent+0x3a>
 8005bb6:	f9b5 300e 	ldrsh.w	r3, [r5, #14]
 8005bba:	3301      	adds	r3, #1
 8005bbc:	d003      	beq.n	8005bc6 <_fwalk_reent+0x3a>
 8005bbe:	4629      	mov	r1, r5
 8005bc0:	4630      	mov	r0, r6
 8005bc2:	47c0      	blx	r8
 8005bc4:	4307      	orrs	r7, r0
 8005bc6:	3568      	adds	r5, #104	; 0x68
 8005bc8:	e7e9      	b.n	8005b9e <_fwalk_reent+0x12>
	...

08005bcc <_localeconv_r>:
 8005bcc:	4800      	ldr	r0, [pc, #0]	; (8005bd0 <_localeconv_r+0x4>)
 8005bce:	4770      	bx	lr
 8005bd0:	20000170 	.word	0x20000170

08005bd4 <__retarget_lock_init_recursive>:
 8005bd4:	4770      	bx	lr

08005bd6 <__retarget_lock_acquire_recursive>:
 8005bd6:	4770      	bx	lr

08005bd8 <__retarget_lock_release_recursive>:
 8005bd8:	4770      	bx	lr

08005bda <__swhatbuf_r>:
 8005bda:	b570      	push	{r4, r5, r6, lr}
 8005bdc:	460e      	mov	r6, r1
 8005bde:	f9b1 100e 	ldrsh.w	r1, [r1, #14]
 8005be2:	2900      	cmp	r1, #0
 8005be4:	b096      	sub	sp, #88	; 0x58
 8005be6:	4614      	mov	r4, r2
 8005be8:	461d      	mov	r5, r3
 8005bea:	da08      	bge.n	8005bfe <__swhatbuf_r+0x24>
 8005bec:	f9b6 300c 	ldrsh.w	r3, [r6, #12]
 8005bf0:	2200      	movs	r2, #0
 8005bf2:	602a      	str	r2, [r5, #0]
 8005bf4:	061a      	lsls	r2, r3, #24
 8005bf6:	d410      	bmi.n	8005c1a <__swhatbuf_r+0x40>
 8005bf8:	f44f 6380 	mov.w	r3, #1024	; 0x400
 8005bfc:	e00e      	b.n	8005c1c <__swhatbuf_r+0x42>
 8005bfe:	466a      	mov	r2, sp
 8005c00:	f000 fee0 	bl	80069c4 <_fstat_r>
 8005c04:	2800      	cmp	r0, #0
 8005c06:	dbf1      	blt.n	8005bec <__swhatbuf_r+0x12>
 8005c08:	9a01      	ldr	r2, [sp, #4]
 8005c0a:	f402 4270 	and.w	r2, r2, #61440	; 0xf000
 8005c0e:	f5a2 5300 	sub.w	r3, r2, #8192	; 0x2000
 8005c12:	425a      	negs	r2, r3
 8005c14:	415a      	adcs	r2, r3
 8005c16:	602a      	str	r2, [r5, #0]
 8005c18:	e7ee      	b.n	8005bf8 <__swhatbuf_r+0x1e>
 8005c1a:	2340      	movs	r3, #64	; 0x40
 8005c1c:	2000      	movs	r0, #0
 8005c1e:	6023      	str	r3, [r4, #0]
 8005c20:	b016      	add	sp, #88	; 0x58
 8005c22:	bd70      	pop	{r4, r5, r6, pc}

08005c24 <__smakebuf_r>:
 8005c24:	898b      	ldrh	r3, [r1, #12]
 8005c26:	b573      	push	{r0, r1, r4, r5, r6, lr}
 8005c28:	079d      	lsls	r5, r3, #30
 8005c2a:	4606      	mov	r6, r0
 8005c2c:	460c      	mov	r4, r1
 8005c2e:	d507      	bpl.n	8005c40 <__smakebuf_r+0x1c>
 8005c30:	f104 0347 	add.w	r3, r4, #71	; 0x47
 8005c34:	6023      	str	r3, [r4, #0]
 8005c36:	6123      	str	r3, [r4, #16]
 8005c38:	2301      	movs	r3, #1
 8005c3a:	6163      	str	r3, [r4, #20]
 8005c3c:	b002      	add	sp, #8
 8005c3e:	bd70      	pop	{r4, r5, r6, pc}
 8005c40:	ab01      	add	r3, sp, #4
 8005c42:	466a      	mov	r2, sp
 8005c44:	f7ff ffc9 	bl	8005bda <__swhatbuf_r>
 8005c48:	9900      	ldr	r1, [sp, #0]
 8005c4a:	4605      	mov	r5, r0
 8005c4c:	4630      	mov	r0, r6
 8005c4e:	f000 fc45 	bl	80064dc <_malloc_r>
 8005c52:	b948      	cbnz	r0, 8005c68 <__smakebuf_r+0x44>
 8005c54:	f9b4 300c 	ldrsh.w	r3, [r4, #12]
 8005c58:	059a      	lsls	r2, r3, #22
 8005c5a:	d4ef      	bmi.n	8005c3c <__smakebuf_r+0x18>
 8005c5c:	f023 0303 	bic.w	r3, r3, #3
 8005c60:	f043 0302 	orr.w	r3, r3, #2
 8005c64:	81a3      	strh	r3, [r4, #12]
 8005c66:	e7e3      	b.n	8005c30 <__smakebuf_r+0xc>
 8005c68:	4b0d      	ldr	r3, [pc, #52]	; (8005ca0 <__smakebuf_r+0x7c>)
 8005c6a:	62b3      	str	r3, [r6, #40]	; 0x28
 8005c6c:	89a3      	ldrh	r3, [r4, #12]
 8005c6e:	6020      	str	r0, [r4, #0]
 8005c70:	f043 0380 	orr.w	r3, r3, #128	; 0x80
 8005c74:	81a3      	strh	r3, [r4, #12]
 8005c76:	9b00      	ldr	r3, [sp, #0]
 8005c78:	6163      	str	r3, [r4, #20]
 8005c7a:	9b01      	ldr	r3, [sp, #4]
 8005c7c:	6120      	str	r0, [r4, #16]
 8005c7e:	b15b      	cbz	r3, 8005c98 <__smakebuf_r+0x74>
 8005c80:	f9b4 100e 	ldrsh.w	r1, [r4, #14]
 8005c84:	4630      	mov	r0, r6
 8005c86:	f000 feaf 	bl	80069e8 <_isatty_r>
 8005c8a:	b128      	cbz	r0, 8005c98 <__smakebuf_r+0x74>
 8005c8c:	89a3      	ldrh	r3, [r4, #12]
 8005c8e:	f023 0303 	bic.w	r3, r3, #3
 8005c92:	f043 0301 	orr.w	r3, r3, #1
 8005c96:	81a3      	strh	r3, [r4, #12]
 8005c98:	89a0      	ldrh	r0, [r4, #12]
 8005c9a:	4305      	orrs	r5, r0
 8005c9c:	81a5      	strh	r5, [r4, #12]
 8005c9e:	e7cd      	b.n	8005c3c <__smakebuf_r+0x18>
 8005ca0:	08005a29 	.word	0x08005a29

08005ca4 <malloc>:
 8005ca4:	4b02      	ldr	r3, [pc, #8]	; (8005cb0 <malloc+0xc>)
 8005ca6:	4601      	mov	r1, r0
 8005ca8:	6818      	ldr	r0, [r3, #0]
 8005caa:	f000 bc17 	b.w	80064dc <_malloc_r>
 8005cae:	bf00      	nop
 8005cb0:	2000001c 	.word	0x2000001c

08005cb4 <memcpy>:
 8005cb4:	440a      	add	r2, r1
 8005cb6:	4291      	cmp	r1, r2
 8005cb8:	f100 33ff 	add.w	r3, r0, #4294967295
 8005cbc:	d100      	bne.n	8005cc0 <memcpy+0xc>
 8005cbe:	4770      	bx	lr
 8005cc0:	b510      	push	{r4, lr}
 8005cc2:	f811 4b01 	ldrb.w	r4, [r1], #1
 8005cc6:	f803 4f01 	strb.w	r4, [r3, #1]!
 8005cca:	4291      	cmp	r1, r2
 8005ccc:	d1f9      	bne.n	8005cc2 <memcpy+0xe>
 8005cce:	bd10      	pop	{r4, pc}

08005cd0 <_Balloc>:
 8005cd0:	b570      	push	{r4, r5, r6, lr}
 8005cd2:	6a46      	ldr	r6, [r0, #36]	; 0x24
 8005cd4:	4604      	mov	r4, r0
 8005cd6:	460d      	mov	r5, r1
 8005cd8:	b976      	cbnz	r6, 8005cf8 <_Balloc+0x28>
 8005cda:	2010      	movs	r0, #16
 8005cdc:	f7ff ffe2 	bl	8005ca4 <malloc>
 8005ce0:	4602      	mov	r2, r0
 8005ce2:	6260      	str	r0, [r4, #36]	; 0x24
 8005ce4:	b920      	cbnz	r0, 8005cf0 <_Balloc+0x20>
 8005ce6:	4b18      	ldr	r3, [pc, #96]	; (8005d48 <_Balloc+0x78>)
 8005ce8:	4818      	ldr	r0, [pc, #96]	; (8005d4c <_Balloc+0x7c>)
 8005cea:	2166      	movs	r1, #102	; 0x66
 8005cec:	f000 fe2a 	bl	8006944 <__assert_func>
 8005cf0:	e9c0 6601 	strd	r6, r6, [r0, #4]
 8005cf4:	6006      	str	r6, [r0, #0]
 8005cf6:	60c6      	str	r6, [r0, #12]
 8005cf8:	6a66      	ldr	r6, [r4, #36]	; 0x24
 8005cfa:	68f3      	ldr	r3, [r6, #12]
 8005cfc:	b183      	cbz	r3, 8005d20 <_Balloc+0x50>
 8005cfe:	6a63      	ldr	r3, [r4, #36]	; 0x24
 8005d00:	68db      	ldr	r3, [r3, #12]
 8005d02:	f853 0025 	ldr.w	r0, [r3, r5, lsl #2]
 8005d06:	b9b8      	cbnz	r0, 8005d38 <_Balloc+0x68>
 8005d08:	2101      	movs	r1, #1
 8005d0a:	fa01 f605 	lsl.w	r6, r1, r5
 8005d0e:	1d72      	adds	r2, r6, #5
 8005d10:	0092      	lsls	r2, r2, #2
 8005d12:	4620      	mov	r0, r4
 8005d14:	f000 fb60 	bl	80063d8 <_calloc_r>
 8005d18:	b160      	cbz	r0, 8005d34 <_Balloc+0x64>
 8005d1a:	e9c0 5601 	strd	r5, r6, [r0, #4]
 8005d1e:	e00e      	b.n	8005d3e <_Balloc+0x6e>
 8005d20:	2221      	movs	r2, #33	; 0x21
 8005d22:	2104      	movs	r1, #4
 8005d24:	4620      	mov	r0, r4
 8005d26:	f000 fb57 	bl	80063d8 <_calloc_r>
 8005d2a:	6a63      	ldr	r3, [r4, #36]	; 0x24
 8005d2c:	60f0      	str	r0, [r6, #12]
 8005d2e:	68db      	ldr	r3, [r3, #12]
 8005d30:	2b00      	cmp	r3, #0
 8005d32:	d1e4      	bne.n	8005cfe <_Balloc+0x2e>
 8005d34:	2000      	movs	r0, #0
 8005d36:	bd70      	pop	{r4, r5, r6, pc}
 8005d38:	6802      	ldr	r2, [r0, #0]
 8005d3a:	f843 2025 	str.w	r2, [r3, r5, lsl #2]
 8005d3e:	2300      	movs	r3, #0
 8005d40:	e9c0 3303 	strd	r3, r3, [r0, #12]
 8005d44:	e7f7      	b.n	8005d36 <_Balloc+0x66>
 8005d46:	bf00      	nop
 8005d48:	08006cfd 	.word	0x08006cfd
 8005d4c:	08006de0 	.word	0x08006de0

08005d50 <_Bfree>:
 8005d50:	b570      	push	{r4, r5, r6, lr}
 8005d52:	6a46      	ldr	r6, [r0, #36]	; 0x24
 8005d54:	4605      	mov	r5, r0
 8005d56:	460c      	mov	r4, r1
 8005d58:	b976      	cbnz	r6, 8005d78 <_Bfree+0x28>
 8005d5a:	2010      	movs	r0, #16
 8005d5c:	f7ff ffa2 	bl	8005ca4 <malloc>
 8005d60:	4602      	mov	r2, r0
 8005d62:	6268      	str	r0, [r5, #36]	; 0x24
 8005d64:	b920      	cbnz	r0, 8005d70 <_Bfree+0x20>
 8005d66:	4b09      	ldr	r3, [pc, #36]	; (8005d8c <_Bfree+0x3c>)
 8005d68:	4809      	ldr	r0, [pc, #36]	; (8005d90 <_Bfree+0x40>)
 8005d6a:	218a      	movs	r1, #138	; 0x8a
 8005d6c:	f000 fdea 	bl	8006944 <__assert_func>
 8005d70:	e9c0 6601 	strd	r6, r6, [r0, #4]
 8005d74:	6006      	str	r6, [r0, #0]
 8005d76:	60c6      	str	r6, [r0, #12]
 8005d78:	b13c      	cbz	r4, 8005d8a <_Bfree+0x3a>
 8005d7a:	6a6b      	ldr	r3, [r5, #36]	; 0x24
 8005d7c:	6862      	ldr	r2, [r4, #4]
 8005d7e:	68db      	ldr	r3, [r3, #12]
 8005d80:	f853 1022 	ldr.w	r1, [r3, r2, lsl #2]
 8005d84:	6021      	str	r1, [r4, #0]
 8005d86:	f843 4022 	str.w	r4, [r3, r2, lsl #2]
 8005d8a:	bd70      	pop	{r4, r5, r6, pc}
 8005d8c:	08006cfd 	.word	0x08006cfd
 8005d90:	08006de0 	.word	0x08006de0

08005d94 <__multadd>:
 8005d94:	e92d 41f0 	stmdb	sp!, {r4, r5, r6, r7, r8, lr}
 8005d98:	690d      	ldr	r5, [r1, #16]
 8005d9a:	4607      	mov	r7, r0
 8005d9c:	460c      	mov	r4, r1
 8005d9e:	461e      	mov	r6, r3
 8005da0:	f101 0c14 	add.w	ip, r1, #20
 8005da4:	2000      	movs	r0, #0
 8005da6:	f8dc 3000 	ldr.w	r3, [ip]
 8005daa:	b299      	uxth	r1, r3
 8005dac:	fb02 6101 	mla	r1, r2, r1, r6
 8005db0:	0c1e      	lsrs	r6, r3, #16
 8005db2:	0c0b      	lsrs	r3, r1, #16
 8005db4:	fb02 3306 	mla	r3, r2, r6, r3
 8005db8:	b289      	uxth	r1, r1
 8005dba:	3001      	adds	r0, #1
 8005dbc:	eb01 4103 	add.w	r1, r1, r3, lsl #16
 8005dc0:	4285      	cmp	r5, r0
 8005dc2:	f84c 1b04 	str.w	r1, [ip], #4
 8005dc6:	ea4f 4613 	mov.w	r6, r3, lsr #16
 8005dca:	dcec      	bgt.n	8005da6 <__multadd+0x12>
 8005dcc:	b30e      	cbz	r6, 8005e12 <__multadd+0x7e>
 8005dce:	68a3      	ldr	r3, [r4, #8]
 8005dd0:	42ab      	cmp	r3, r5
 8005dd2:	dc19      	bgt.n	8005e08 <__multadd+0x74>
 8005dd4:	6861      	ldr	r1, [r4, #4]
 8005dd6:	4638      	mov	r0, r7
 8005dd8:	3101      	adds	r1, #1
 8005dda:	f7ff ff79 	bl	8005cd0 <_Balloc>
 8005dde:	4680      	mov	r8, r0
 8005de0:	b928      	cbnz	r0, 8005dee <__multadd+0x5a>
 8005de2:	4602      	mov	r2, r0
 8005de4:	4b0c      	ldr	r3, [pc, #48]	; (8005e18 <__multadd+0x84>)
 8005de6:	480d      	ldr	r0, [pc, #52]	; (8005e1c <__multadd+0x88>)
 8005de8:	21b5      	movs	r1, #181	; 0xb5
 8005dea:	f000 fdab 	bl	8006944 <__assert_func>
 8005dee:	6922      	ldr	r2, [r4, #16]
 8005df0:	3202      	adds	r2, #2
 8005df2:	f104 010c 	add.w	r1, r4, #12
 8005df6:	0092      	lsls	r2, r2, #2
 8005df8:	300c      	adds	r0, #12
 8005dfa:	f7ff ff5b 	bl	8005cb4 <memcpy>
 8005dfe:	4621      	mov	r1, r4
 8005e00:	4638      	mov	r0, r7
 8005e02:	f7ff ffa5 	bl	8005d50 <_Bfree>
 8005e06:	4644      	mov	r4, r8
 8005e08:	eb04 0385 	add.w	r3, r4, r5, lsl #2
 8005e0c:	3501      	adds	r5, #1
 8005e0e:	615e      	str	r6, [r3, #20]
 8005e10:	6125      	str	r5, [r4, #16]
 8005e12:	4620      	mov	r0, r4
 8005e14:	e8bd 81f0 	ldmia.w	sp!, {r4, r5, r6, r7, r8, pc}
 8005e18:	08006d6f 	.word	0x08006d6f
 8005e1c:	08006de0 	.word	0x08006de0

08005e20 <__hi0bits>:
 8005e20:	0c03      	lsrs	r3, r0, #16
 8005e22:	041b      	lsls	r3, r3, #16
 8005e24:	b9d3      	cbnz	r3, 8005e5c <__hi0bits+0x3c>
 8005e26:	0400      	lsls	r0, r0, #16
 8005e28:	2310      	movs	r3, #16
 8005e2a:	f010 4f7f 	tst.w	r0, #4278190080	; 0xff000000
 8005e2e:	bf04      	itt	eq
 8005e30:	0200      	lsleq	r0, r0, #8
 8005e32:	3308      	addeq	r3, #8
 8005e34:	f010 4f70 	tst.w	r0, #4026531840	; 0xf0000000
 8005e38:	bf04      	itt	eq
 8005e3a:	0100      	lsleq	r0, r0, #4
 8005e3c:	3304      	addeq	r3, #4
 8005e3e:	f010 4f40 	tst.w	r0, #3221225472	; 0xc0000000
 8005e42:	bf04      	itt	eq
 8005e44:	0080      	lsleq	r0, r0, #2
 8005e46:	3302      	addeq	r3, #2
 8005e48:	2800      	cmp	r0, #0
 8005e4a:	db05      	blt.n	8005e58 <__hi0bits+0x38>
 8005e4c:	f010 4f80 	tst.w	r0, #1073741824	; 0x40000000
 8005e50:	f103 0301 	add.w	r3, r3, #1
 8005e54:	bf08      	it	eq
 8005e56:	2320      	moveq	r3, #32
 8005e58:	4618      	mov	r0, r3
 8005e5a:	4770      	bx	lr
 8005e5c:	2300      	movs	r3, #0
 8005e5e:	e7e4      	b.n	8005e2a <__hi0bits+0xa>

08005e60 <__lo0bits>:
 8005e60:	6803      	ldr	r3, [r0, #0]
 8005e62:	f013 0207 	ands.w	r2, r3, #7
 8005e66:	4601      	mov	r1, r0
 8005e68:	d00b      	beq.n	8005e82 <__lo0bits+0x22>
 8005e6a:	07da      	lsls	r2, r3, #31
 8005e6c:	d423      	bmi.n	8005eb6 <__lo0bits+0x56>
 8005e6e:	0798      	lsls	r0, r3, #30
 8005e70:	bf49      	itett	mi
 8005e72:	085b      	lsrmi	r3, r3, #1
 8005e74:	089b      	lsrpl	r3, r3, #2
 8005e76:	2001      	movmi	r0, #1
 8005e78:	600b      	strmi	r3, [r1, #0]
 8005e7a:	bf5c      	itt	pl
 8005e7c:	600b      	strpl	r3, [r1, #0]
 8005e7e:	2002      	movpl	r0, #2
 8005e80:	4770      	bx	lr
 8005e82:	b298      	uxth	r0, r3
 8005e84:	b9a8      	cbnz	r0, 8005eb2 <__lo0bits+0x52>
 8005e86:	0c1b      	lsrs	r3, r3, #16
 8005e88:	2010      	movs	r0, #16
 8005e8a:	b2da      	uxtb	r2, r3
 8005e8c:	b90a      	cbnz	r2, 8005e92 <__lo0bits+0x32>
 8005e8e:	3008      	adds	r0, #8
 8005e90:	0a1b      	lsrs	r3, r3, #8
 8005e92:	071a      	lsls	r2, r3, #28
 8005e94:	bf04      	itt	eq
 8005e96:	091b      	lsreq	r3, r3, #4
 8005e98:	3004      	addeq	r0, #4
 8005e9a:	079a      	lsls	r2, r3, #30
 8005e9c:	bf04      	itt	eq
 8005e9e:	089b      	lsreq	r3, r3, #2
 8005ea0:	3002      	addeq	r0, #2
 8005ea2:	07da      	lsls	r2, r3, #31
 8005ea4:	d403      	bmi.n	8005eae <__lo0bits+0x4e>
 8005ea6:	085b      	lsrs	r3, r3, #1
 8005ea8:	f100 0001 	add.w	r0, r0, #1
 8005eac:	d005      	beq.n	8005eba <__lo0bits+0x5a>
 8005eae:	600b      	str	r3, [r1, #0]
 8005eb0:	4770      	bx	lr
 8005eb2:	4610      	mov	r0, r2
 8005eb4:	e7e9      	b.n	8005e8a <__lo0bits+0x2a>
 8005eb6:	2000      	movs	r0, #0
 8005eb8:	4770      	bx	lr
 8005eba:	2020      	movs	r0, #32
 8005ebc:	4770      	bx	lr
	...

08005ec0 <__i2b>:
 8005ec0:	b510      	push	{r4, lr}
 8005ec2:	460c      	mov	r4, r1
 8005ec4:	2101      	movs	r1, #1
 8005ec6:	f7ff ff03 	bl	8005cd0 <_Balloc>
 8005eca:	4602      	mov	r2, r0
 8005ecc:	b928      	cbnz	r0, 8005eda <__i2b+0x1a>
 8005ece:	4b05      	ldr	r3, [pc, #20]	; (8005ee4 <__i2b+0x24>)
 8005ed0:	4805      	ldr	r0, [pc, #20]	; (8005ee8 <__i2b+0x28>)
 8005ed2:	f44f 71a0 	mov.w	r1, #320	; 0x140
 8005ed6:	f000 fd35 	bl	8006944 <__assert_func>
 8005eda:	2301      	movs	r3, #1
 8005edc:	6144      	str	r4, [r0, #20]
 8005ede:	6103      	str	r3, [r0, #16]
 8005ee0:	bd10      	pop	{r4, pc}
 8005ee2:	bf00      	nop
 8005ee4:	08006d6f 	.word	0x08006d6f
 8005ee8:	08006de0 	.word	0x08006de0

08005eec <__multiply>:
 8005eec:	e92d 4ff0 	stmdb	sp!, {r4, r5, r6, r7, r8, r9, sl, fp, lr}
 8005ef0:	4691      	mov	r9, r2
 8005ef2:	690a      	ldr	r2, [r1, #16]
 8005ef4:	f8d9 3010 	ldr.w	r3, [r9, #16]
 8005ef8:	429a      	cmp	r2, r3
 8005efa:	bfb8      	it	lt
 8005efc:	460b      	movlt	r3, r1
 8005efe:	460c      	mov	r4, r1
 8005f00:	bfbc      	itt	lt
 8005f02:	464c      	movlt	r4, r9
 8005f04:	4699      	movlt	r9, r3
 8005f06:	6927      	ldr	r7, [r4, #16]
 8005f08:	f8d9 a010 	ldr.w	sl, [r9, #16]
 8005f0c:	68a3      	ldr	r3, [r4, #8]
 8005f0e:	6861      	ldr	r1, [r4, #4]
 8005f10:	eb07 060a 	add.w	r6, r7, sl
 8005f14:	42b3      	cmp	r3, r6
 8005f16:	b085      	sub	sp, #20
 8005f18:	bfb8      	it	lt
 8005f1a:	3101      	addlt	r1, #1
 8005f1c:	f7ff fed8 	bl	8005cd0 <_Balloc>
 8005f20:	b930      	cbnz	r0, 8005f30 <__multiply+0x44>
 8005f22:	4602      	mov	r2, r0
 8005f24:	4b44      	ldr	r3, [pc, #272]	; (8006038 <__multiply+0x14c>)
 8005f26:	4845      	ldr	r0, [pc, #276]	; (800603c <__multiply+0x150>)
 8005f28:	f240 115d 	movw	r1, #349	; 0x15d
 8005f2c:	f000 fd0a 	bl	8006944 <__assert_func>
 8005f30:	f100 0514 	add.w	r5, r0, #20
 8005f34:	eb05 0886 	add.w	r8, r5, r6, lsl #2
 8005f38:	462b      	mov	r3, r5
 8005f3a:	2200      	movs	r2, #0
 8005f3c:	4543      	cmp	r3, r8
 8005f3e:	d321      	bcc.n	8005f84 <__multiply+0x98>
 8005f40:	f104 0314 	add.w	r3, r4, #20
 8005f44:	eb03 0787 	add.w	r7, r3, r7, lsl #2
 8005f48:	f109 0314 	add.w	r3, r9, #20
 8005f4c:	eb03 028a 	add.w	r2, r3, sl, lsl #2
 8005f50:	9202      	str	r2, [sp, #8]
 8005f52:	1b3a      	subs	r2, r7, r4
 8005f54:	3a15      	subs	r2, #21
 8005f56:	f022 0203 	bic.w	r2, r2, #3
 8005f5a:	3204      	adds	r2, #4
 8005f5c:	f104 0115 	add.w	r1, r4, #21
 8005f60:	428f      	cmp	r7, r1
 8005f62:	bf38      	it	cc
 8005f64:	2204      	movcc	r2, #4
 8005f66:	9201      	str	r2, [sp, #4]
 8005f68:	9a02      	ldr	r2, [sp, #8]
 8005f6a:	9303      	str	r3, [sp, #12]
 8005f6c:	429a      	cmp	r2, r3
 8005f6e:	d80c      	bhi.n	8005f8a <__multiply+0x9e>
 8005f70:	2e00      	cmp	r6, #0
 8005f72:	dd03      	ble.n	8005f7c <__multiply+0x90>
 8005f74:	f858 3d04 	ldr.w	r3, [r8, #-4]!
 8005f78:	2b00      	cmp	r3, #0
 8005f7a:	d05a      	beq.n	8006032 <__multiply+0x146>
 8005f7c:	6106      	str	r6, [r0, #16]
 8005f7e:	b005      	add	sp, #20
 8005f80:	e8bd 8ff0 	ldmia.w	sp!, {r4, r5, r6, r7, r8, r9, sl, fp, pc}
 8005f84:	f843 2b04 	str.w	r2, [r3], #4
 8005f88:	e7d8      	b.n	8005f3c <__multiply+0x50>
 8005f8a:	f8b3 a000 	ldrh.w	sl, [r3]
 8005f8e:	f1ba 0f00 	cmp.w	sl, #0
 8005f92:	d024      	beq.n	8005fde <__multiply+0xf2>
 8005f94:	f104 0e14 	add.w	lr, r4, #20
 8005f98:	46a9      	mov	r9, r5
 8005f9a:	f04f 0c00 	mov.w	ip, #0
 8005f9e:	f85e 2b04 	ldr.w	r2, [lr], #4
 8005fa2:	f8d9 1000 	ldr.w	r1, [r9]
 8005fa6:	fa1f fb82 	uxth.w	fp, r2
 8005faa:	b289      	uxth	r1, r1
 8005fac:	fb0a 110b 	mla	r1, sl, fp, r1
 8005fb0:	ea4f 4b12 	mov.w	fp, r2, lsr #16
 8005fb4:	f8d9 2000 	ldr.w	r2, [r9]
 8005fb8:	4461      	add	r1, ip
 8005fba:	ea4f 4c12 	mov.w	ip, r2, lsr #16
 8005fbe:	fb0a c20b 	mla	r2, sl, fp, ip
 8005fc2:	eb02 4211 	add.w	r2, r2, r1, lsr #16
 8005fc6:	b289      	uxth	r1, r1
 8005fc8:	ea41 4102 	orr.w	r1, r1, r2, lsl #16
 8005fcc:	4577      	cmp	r7, lr
 8005fce:	f849 1b04 	str.w	r1, [r9], #4
 8005fd2:	ea4f 4c12 	mov.w	ip, r2, lsr #16
 8005fd6:	d8e2      	bhi.n	8005f9e <__multiply+0xb2>
 8005fd8:	9a01      	ldr	r2, [sp, #4]
 8005fda:	f845 c002 	str.w	ip, [r5, r2]
 8005fde:	9a03      	ldr	r2, [sp, #12]
 8005fe0:	f8b2 9002 	ldrh.w	r9, [r2, #2]
 8005fe4:	3304      	adds	r3, #4
 8005fe6:	f1b9 0f00 	cmp.w	r9, #0
 8005fea:	d020      	beq.n	800602e <__multiply+0x142>
 8005fec:	6829      	ldr	r1, [r5, #0]
 8005fee:	f104 0c14 	add.w	ip, r4, #20
 8005ff2:	46ae      	mov	lr, r5
 8005ff4:	f04f 0a00 	mov.w	sl, #0
 8005ff8:	f8bc b000 	ldrh.w	fp, [ip]
 8005ffc:	f8be 2002 	ldrh.w	r2, [lr, #2]
 8006000:	fb09 220b 	mla	r2, r9, fp, r2
 8006004:	4492      	add	sl, r2
 8006006:	b289      	uxth	r1, r1
 8006008:	ea41 410a 	orr.w	r1, r1, sl, lsl #16
 800600c:	f84e 1b04 	str.w	r1, [lr], #4
 8006010:	f85c 2b04 	ldr.w	r2, [ip], #4
 8006014:	f8be 1000 	ldrh.w	r1, [lr]
 8006018:	0c12      	lsrs	r2, r2, #16
 800601a:	fb09 1102 	mla	r1, r9, r2, r1
 800601e:	eb01 411a 	add.w	r1, r1, sl, lsr #16
 8006022:	4567      	cmp	r7, ip
 8006024:	ea4f 4a11 	mov.w	sl, r1, lsr #16
 8006028:	d8e6      	bhi.n	8005ff8 <__multiply+0x10c>
 800602a:	9a01      	ldr	r2, [sp, #4]
 800602c:	50a9      	str	r1, [r5, r2]
 800602e:	3504      	adds	r5, #4
 8006030:	e79a      	b.n	8005f68 <__multiply+0x7c>
 8006032:	3e01      	subs	r6, #1
 8006034:	e79c      	b.n	8005f70 <__multiply+0x84>
 8006036:	bf00      	nop
 8006038:	08006d6f 	.word	0x08006d6f
 800603c:	08006de0 	.word	0x08006de0

08006040 <__pow5mult>:
 8006040:	e92d 43f8 	stmdb	sp!, {r3, r4, r5, r6, r7, r8, r9, lr}
 8006044:	4615      	mov	r5, r2
 8006046:	f012 0203 	ands.w	r2, r2, #3
 800604a:	4606      	mov	r6, r0
 800604c:	460f      	mov	r7, r1
 800604e:	d007      	beq.n	8006060 <__pow5mult+0x20>
 8006050:	4c25      	ldr	r4, [pc, #148]	; (80060e8 <__pow5mult+0xa8>)
 8006052:	3a01      	subs	r2, #1
 8006054:	2300      	movs	r3, #0
 8006056:	f854 2022 	ldr.w	r2, [r4, r2, lsl #2]
 800605a:	f7ff fe9b 	bl	8005d94 <__multadd>
 800605e:	4607      	mov	r7, r0
 8006060:	10ad      	asrs	r5, r5, #2
 8006062:	d03d      	beq.n	80060e0 <__pow5mult+0xa0>
 8006064:	6a74      	ldr	r4, [r6, #36]	; 0x24
 8006066:	b97c      	cbnz	r4, 8006088 <__pow5mult+0x48>
 8006068:	2010      	movs	r0, #16
 800606a:	f7ff fe1b 	bl	8005ca4 <malloc>
 800606e:	4602      	mov	r2, r0
 8006070:	6270      	str	r0, [r6, #36]	; 0x24
 8006072:	b928      	cbnz	r0, 8006080 <__pow5mult+0x40>
 8006074:	4b1d      	ldr	r3, [pc, #116]	; (80060ec <__pow5mult+0xac>)
 8006076:	481e      	ldr	r0, [pc, #120]	; (80060f0 <__pow5mult+0xb0>)
 8006078:	f44f 71d7 	mov.w	r1, #430	; 0x1ae
 800607c:	f000 fc62 	bl	8006944 <__assert_func>
 8006080:	e9c0 4401 	strd	r4, r4, [r0, #4]
 8006084:	6004      	str	r4, [r0, #0]
 8006086:	60c4      	str	r4, [r0, #12]
 8006088:	f8d6 8024 	ldr.w	r8, [r6, #36]	; 0x24
 800608c:	f8d8 4008 	ldr.w	r4, [r8, #8]
 8006090:	b94c      	cbnz	r4, 80060a6 <__pow5mult+0x66>
 8006092:	f240 2171 	movw	r1, #625	; 0x271
 8006096:	4630      	mov	r0, r6
 8006098:	f7ff ff12 	bl	8005ec0 <__i2b>
 800609c:	2300      	movs	r3, #0
 800609e:	f8c8 0008 	str.w	r0, [r8, #8]
 80060a2:	4604      	mov	r4, r0
 80060a4:	6003      	str	r3, [r0, #0]
 80060a6:	f04f 0900 	mov.w	r9, #0
 80060aa:	07eb      	lsls	r3, r5, #31
 80060ac:	d50a      	bpl.n	80060c4 <__pow5mult+0x84>
 80060ae:	4639      	mov	r1, r7
 80060b0:	4622      	mov	r2, r4
 80060b2:	4630      	mov	r0, r6
 80060b4:	f7ff ff1a 	bl	8005eec <__multiply>
 80060b8:	4639      	mov	r1, r7
 80060ba:	4680      	mov	r8, r0
 80060bc:	4630      	mov	r0, r6
 80060be:	f7ff fe47 	bl	8005d50 <_Bfree>
 80060c2:	4647      	mov	r7, r8
 80060c4:	106d      	asrs	r5, r5, #1
 80060c6:	d00b      	beq.n	80060e0 <__pow5mult+0xa0>
 80060c8:	6820      	ldr	r0, [r4, #0]
 80060ca:	b938      	cbnz	r0, 80060dc <__pow5mult+0x9c>
 80060cc:	4622      	mov	r2, r4
 80060ce:	4621      	mov	r1, r4
 80060d0:	4630      	mov	r0, r6
 80060d2:	f7ff ff0b 	bl	8005eec <__multiply>
 80060d6:	6020      	str	r0, [r4, #0]
 80060d8:	f8c0 9000 	str.w	r9, [r0]
 80060dc:	4604      	mov	r4, r0
 80060de:	e7e4      	b.n	80060aa <__pow5mult+0x6a>
 80060e0:	4638      	mov	r0, r7
 80060e2:	e8bd 83f8 	ldmia.w	sp!, {r3, r4, r5, r6, r7, r8, r9, pc}
 80060e6:	bf00      	nop
 80060e8:	08006f30 	.word	0x08006f30
 80060ec:	08006cfd 	.word	0x08006cfd
 80060f0:	08006de0 	.word	0x08006de0

080060f4 <__lshift>:
 80060f4:	e92d 47f0 	stmdb	sp!, {r4, r5, r6, r7, r8, r9, sl, lr}
 80060f8:	460c      	mov	r4, r1
 80060fa:	6849      	ldr	r1, [r1, #4]
 80060fc:	6923      	ldr	r3, [r4, #16]
 80060fe:	eb03 1862 	add.w	r8, r3, r2, asr #5
 8006102:	68a3      	ldr	r3, [r4, #8]
 8006104:	4607      	mov	r7, r0
 8006106:	4691      	mov	r9, r2
 8006108:	ea4f 1a62 	mov.w	sl, r2, asr #5
 800610c:	f108 0601 	add.w	r6, r8, #1
 8006110:	42b3      	cmp	r3, r6
 8006112:	db0b      	blt.n	800612c <__lshift+0x38>
 8006114:	4638      	mov	r0, r7
 8006116:	f7ff fddb 	bl	8005cd0 <_Balloc>
 800611a:	4605      	mov	r5, r0
 800611c:	b948      	cbnz	r0, 8006132 <__lshift+0x3e>
 800611e:	4602      	mov	r2, r0
 8006120:	4b2a      	ldr	r3, [pc, #168]	; (80061cc <__lshift+0xd8>)
 8006122:	482b      	ldr	r0, [pc, #172]	; (80061d0 <__lshift+0xdc>)
 8006124:	f240 11d9 	movw	r1, #473	; 0x1d9
 8006128:	f000 fc0c 	bl	8006944 <__assert_func>
 800612c:	3101      	adds	r1, #1
 800612e:	005b      	lsls	r3, r3, #1
 8006130:	e7ee      	b.n	8006110 <__lshift+0x1c>
 8006132:	2300      	movs	r3, #0
 8006134:	f100 0114 	add.w	r1, r0, #20
 8006138:	f100 0210 	add.w	r2, r0, #16
 800613c:	4618      	mov	r0, r3
 800613e:	4553      	cmp	r3, sl
 8006140:	db37      	blt.n	80061b2 <__lshift+0xbe>
 8006142:	6920      	ldr	r0, [r4, #16]
 8006144:	ea2a 7aea 	bic.w	sl, sl, sl, asr #31
 8006148:	f104 0314 	add.w	r3, r4, #20
 800614c:	f019 091f 	ands.w	r9, r9, #31
 8006150:	eb01 018a 	add.w	r1, r1, sl, lsl #2
 8006154:	eb03 0080 	add.w	r0, r3, r0, lsl #2
 8006158:	d02f      	beq.n	80061ba <__lshift+0xc6>
 800615a:	f1c9 0e20 	rsb	lr, r9, #32
 800615e:	468a      	mov	sl, r1
 8006160:	f04f 0c00 	mov.w	ip, #0
 8006164:	681a      	ldr	r2, [r3, #0]
 8006166:	fa02 f209 	lsl.w	r2, r2, r9
 800616a:	ea42 020c 	orr.w	r2, r2, ip
 800616e:	f84a 2b04 	str.w	r2, [sl], #4
 8006172:	f853 2b04 	ldr.w	r2, [r3], #4
 8006176:	4298      	cmp	r0, r3
 8006178:	fa22 fc0e 	lsr.w	ip, r2, lr
 800617c:	d8f2      	bhi.n	8006164 <__lshift+0x70>
 800617e:	1b03      	subs	r3, r0, r4
 8006180:	3b15      	subs	r3, #21
 8006182:	f023 0303 	bic.w	r3, r3, #3
 8006186:	3304      	adds	r3, #4
 8006188:	f104 0215 	add.w	r2, r4, #21
 800618c:	4290      	cmp	r0, r2
 800618e:	bf38      	it	cc
 8006190:	2304      	movcc	r3, #4
 8006192:	f841 c003 	str.w	ip, [r1, r3]
 8006196:	f1bc 0f00 	cmp.w	ip, #0
 800619a:	d001      	beq.n	80061a0 <__lshift+0xac>
 800619c:	f108 0602 	add.w	r6, r8, #2
 80061a0:	3e01      	subs	r6, #1
 80061a2:	4638      	mov	r0, r7
 80061a4:	612e      	str	r6, [r5, #16]
 80061a6:	4621      	mov	r1, r4
 80061a8:	f7ff fdd2 	bl	8005d50 <_Bfree>
 80061ac:	4628      	mov	r0, r5
 80061ae:	e8bd 87f0 	ldmia.w	sp!, {r4, r5, r6, r7, r8, r9, sl, pc}
 80061b2:	f842 0f04 	str.w	r0, [r2, #4]!
 80061b6:	3301      	adds	r3, #1
 80061b8:	e7c1      	b.n	800613e <__lshift+0x4a>
 80061ba:	3904      	subs	r1, #4
 80061bc:	f853 2b04 	ldr.w	r2, [r3], #4
 80061c0:	f841 2f04 	str.w	r2, [r1, #4]!
 80061c4:	4298      	cmp	r0, r3
 80061c6:	d8f9      	bhi.n	80061bc <__lshift+0xc8>
 80061c8:	e7ea      	b.n	80061a0 <__lshift+0xac>
 80061ca:	bf00      	nop
 80061cc:	08006d6f 	.word	0x08006d6f
 80061d0:	08006de0 	.word	0x08006de0

080061d4 <__mcmp>:
 80061d4:	b530      	push	{r4, r5, lr}
 80061d6:	6902      	ldr	r2, [r0, #16]
 80061d8:	690c      	ldr	r4, [r1, #16]
 80061da:	1b12      	subs	r2, r2, r4
 80061dc:	d10e      	bne.n	80061fc <__mcmp+0x28>
 80061de:	f100 0314 	add.w	r3, r0, #20
 80061e2:	3114      	adds	r1, #20
 80061e4:	eb03 0084 	add.w	r0, r3, r4, lsl #2
 80061e8:	eb01 0184 	add.w	r1, r1, r4, lsl #2
 80061ec:	f850 5d04 	ldr.w	r5, [r0, #-4]!
 80061f0:	f851 4d04 	ldr.w	r4, [r1, #-4]!
 80061f4:	42a5      	cmp	r5, r4
 80061f6:	d003      	beq.n	8006200 <__mcmp+0x2c>
 80061f8:	d305      	bcc.n	8006206 <__mcmp+0x32>
 80061fa:	2201      	movs	r2, #1
 80061fc:	4610      	mov	r0, r2
 80061fe:	bd30      	pop	{r4, r5, pc}
 8006200:	4283      	cmp	r3, r0
 8006202:	d3f3      	bcc.n	80061ec <__mcmp+0x18>
 8006204:	e7fa      	b.n	80061fc <__mcmp+0x28>
 8006206:	f04f 32ff 	mov.w	r2, #4294967295
 800620a:	e7f7      	b.n	80061fc <__mcmp+0x28>

0800620c <__mdiff>:
 800620c:	e92d 4ff8 	stmdb	sp!, {r3, r4, r5, r6, r7, r8, r9, sl, fp, lr}
 8006210:	460c      	mov	r4, r1
 8006212:	4606      	mov	r6, r0
 8006214:	4611      	mov	r1, r2
 8006216:	4620      	mov	r0, r4
 8006218:	4690      	mov	r8, r2
 800621a:	f7ff ffdb 	bl	80061d4 <__mcmp>
 800621e:	1e05      	subs	r5, r0, #0
 8006220:	d110      	bne.n	8006244 <__mdiff+0x38>
 8006222:	4629      	mov	r1, r5
 8006224:	4630      	mov	r0, r6
 8006226:	f7ff fd53 	bl	8005cd0 <_Balloc>
 800622a:	b930      	cbnz	r0, 800623a <__mdiff+0x2e>
 800622c:	4b3a      	ldr	r3, [pc, #232]	; (8006318 <__mdiff+0x10c>)
 800622e:	4602      	mov	r2, r0
 8006230:	f240 2132 	movw	r1, #562	; 0x232
 8006234:	4839      	ldr	r0, [pc, #228]	; (800631c <__mdiff+0x110>)
 8006236:	f000 fb85 	bl	8006944 <__assert_func>
 800623a:	2301      	movs	r3, #1
 800623c:	e9c0 3504 	strd	r3, r5, [r0, #16]
 8006240:	e8bd 8ff8 	ldmia.w	sp!, {r3, r4, r5, r6, r7, r8, r9, sl, fp, pc}
 8006244:	bfa4      	itt	ge
 8006246:	4643      	movge	r3, r8
 8006248:	46a0      	movge	r8, r4
 800624a:	4630      	mov	r0, r6
 800624c:	f8d8 1004 	ldr.w	r1, [r8, #4]
 8006250:	bfa6      	itte	ge
 8006252:	461c      	movge	r4, r3
 8006254:	2500      	movge	r5, #0
 8006256:	2501      	movlt	r5, #1
 8006258:	f7ff fd3a 	bl	8005cd0 <_Balloc>
 800625c:	b920      	cbnz	r0, 8006268 <__mdiff+0x5c>
 800625e:	4b2e      	ldr	r3, [pc, #184]	; (8006318 <__mdiff+0x10c>)
 8006260:	4602      	mov	r2, r0
 8006262:	f44f 7110 	mov.w	r1, #576	; 0x240
 8006266:	e7e5      	b.n	8006234 <__mdiff+0x28>
 8006268:	f8d8 7010 	ldr.w	r7, [r8, #16]
 800626c:	6926      	ldr	r6, [r4, #16]
 800626e:	60c5      	str	r5, [r0, #12]
 8006270:	f104 0914 	add.w	r9, r4, #20
 8006274:	f108 0514 	add.w	r5, r8, #20
 8006278:	f100 0e14 	add.w	lr, r0, #20
 800627c:	eb05 0c87 	add.w	ip, r5, r7, lsl #2
 8006280:	eb09 0686 	add.w	r6, r9, r6, lsl #2
 8006284:	f108 0210 	add.w	r2, r8, #16
 8006288:	46f2      	mov	sl, lr
 800628a:	2100      	movs	r1, #0
 800628c:	f859 3b04 	ldr.w	r3, [r9], #4
 8006290:	f852 bf04 	ldr.w	fp, [r2, #4]!
 8006294:	fa1f f883 	uxth.w	r8, r3
 8006298:	fa11 f18b 	uxtah	r1, r1, fp
 800629c:	0c1b      	lsrs	r3, r3, #16
 800629e:	eba1 0808 	sub.w	r8, r1, r8
 80062a2:	ebc3 431b 	rsb	r3, r3, fp, lsr #16
 80062a6:	eb03 4328 	add.w	r3, r3, r8, asr #16
 80062aa:	fa1f f888 	uxth.w	r8, r8
 80062ae:	1419      	asrs	r1, r3, #16
 80062b0:	454e      	cmp	r6, r9
 80062b2:	ea48 4303 	orr.w	r3, r8, r3, lsl #16
 80062b6:	f84a 3b04 	str.w	r3, [sl], #4
 80062ba:	d8e7      	bhi.n	800628c <__mdiff+0x80>
 80062bc:	1b33      	subs	r3, r6, r4
 80062be:	3b15      	subs	r3, #21
 80062c0:	f023 0303 	bic.w	r3, r3, #3
 80062c4:	3304      	adds	r3, #4
 80062c6:	3415      	adds	r4, #21
 80062c8:	42a6      	cmp	r6, r4
 80062ca:	bf38      	it	cc
 80062cc:	2304      	movcc	r3, #4
 80062ce:	441d      	add	r5, r3
 80062d0:	4473      	add	r3, lr
 80062d2:	469e      	mov	lr, r3
 80062d4:	462e      	mov	r6, r5
 80062d6:	4566      	cmp	r6, ip
 80062d8:	d30e      	bcc.n	80062f8 <__mdiff+0xec>
 80062da:	f10c 0203 	add.w	r2, ip, #3
 80062de:	1b52      	subs	r2, r2, r5
 80062e0:	f022 0203 	bic.w	r2, r2, #3
 80062e4:	3d03      	subs	r5, #3
 80062e6:	45ac      	cmp	ip, r5
 80062e8:	bf38      	it	cc
 80062ea:	2200      	movcc	r2, #0
 80062ec:	441a      	add	r2, r3
 80062ee:	f852 3d04 	ldr.w	r3, [r2, #-4]!
 80062f2:	b17b      	cbz	r3, 8006314 <__mdiff+0x108>
 80062f4:	6107      	str	r7, [r0, #16]
 80062f6:	e7a3      	b.n	8006240 <__mdiff+0x34>
 80062f8:	f856 8b04 	ldr.w	r8, [r6], #4
 80062fc:	fa11 f288 	uxtah	r2, r1, r8
 8006300:	1414      	asrs	r4, r2, #16
 8006302:	eb04 4418 	add.w	r4, r4, r8, lsr #16
 8006306:	b292      	uxth	r2, r2
 8006308:	ea42 4204 	orr.w	r2, r2, r4, lsl #16
 800630c:	f84e 2b04 	str.w	r2, [lr], #4
 8006310:	1421      	asrs	r1, r4, #16
 8006312:	e7e0      	b.n	80062d6 <__mdiff+0xca>
 8006314:	3f01      	subs	r7, #1
 8006316:	e7ea      	b.n	80062ee <__mdiff+0xe2>
 8006318:	08006d6f 	.word	0x08006d6f
 800631c:	08006de0 	.word	0x08006de0

08006320 <__d2b>:
 8006320:	e92d 43f7 	stmdb	sp!, {r0, r1, r2, r4, r5, r6, r7, r8, r9, lr}
 8006324:	4689      	mov	r9, r1
 8006326:	2101      	movs	r1, #1
 8006328:	ec57 6b10 	vmov	r6, r7, d0
 800632c:	4690      	mov	r8, r2
 800632e:	f7ff fccf 	bl	8005cd0 <_Balloc>
 8006332:	4604      	mov	r4, r0
 8006334:	b930      	cbnz	r0, 8006344 <__d2b+0x24>
 8006336:	4602      	mov	r2, r0
 8006338:	4b25      	ldr	r3, [pc, #148]	; (80063d0 <__d2b+0xb0>)
 800633a:	4826      	ldr	r0, [pc, #152]	; (80063d4 <__d2b+0xb4>)
 800633c:	f240 310a 	movw	r1, #778	; 0x30a
 8006340:	f000 fb00 	bl	8006944 <__assert_func>
 8006344:	f3c7 550a 	ubfx	r5, r7, #20, #11
 8006348:	f3c7 0313 	ubfx	r3, r7, #0, #20
 800634c:	bb35      	cbnz	r5, 800639c <__d2b+0x7c>
 800634e:	2e00      	cmp	r6, #0
 8006350:	9301      	str	r3, [sp, #4]
 8006352:	d028      	beq.n	80063a6 <__d2b+0x86>
 8006354:	4668      	mov	r0, sp
 8006356:	9600      	str	r6, [sp, #0]
 8006358:	f7ff fd82 	bl	8005e60 <__lo0bits>
 800635c:	9900      	ldr	r1, [sp, #0]
 800635e:	b300      	cbz	r0, 80063a2 <__d2b+0x82>
 8006360:	9a01      	ldr	r2, [sp, #4]
 8006362:	f1c0 0320 	rsb	r3, r0, #32
 8006366:	fa02 f303 	lsl.w	r3, r2, r3
 800636a:	430b      	orrs	r3, r1
 800636c:	40c2      	lsrs	r2, r0
 800636e:	6163      	str	r3, [r4, #20]
 8006370:	9201      	str	r2, [sp, #4]
 8006372:	9b01      	ldr	r3, [sp, #4]
 8006374:	61a3      	str	r3, [r4, #24]
 8006376:	2b00      	cmp	r3, #0
 8006378:	bf14      	ite	ne
 800637a:	2202      	movne	r2, #2
 800637c:	2201      	moveq	r2, #1
 800637e:	6122      	str	r2, [r4, #16]
 8006380:	b1d5      	cbz	r5, 80063b8 <__d2b+0x98>
 8006382:	f2a5 4533 	subw	r5, r5, #1075	; 0x433
 8006386:	4405      	add	r5, r0
 8006388:	f8c9 5000 	str.w	r5, [r9]
 800638c:	f1c0 0035 	rsb	r0, r0, #53	; 0x35
 8006390:	f8c8 0000 	str.w	r0, [r8]
 8006394:	4620      	mov	r0, r4
 8006396:	b003      	add	sp, #12
 8006398:	e8bd 83f0 	ldmia.w	sp!, {r4, r5, r6, r7, r8, r9, pc}
 800639c:	f443 1380 	orr.w	r3, r3, #1048576	; 0x100000
 80063a0:	e7d5      	b.n	800634e <__d2b+0x2e>
 80063a2:	6161      	str	r1, [r4, #20]
 80063a4:	e7e5      	b.n	8006372 <__d2b+0x52>
 80063a6:	a801      	add	r0, sp, #4
 80063a8:	f7ff fd5a 	bl	8005e60 <__lo0bits>
 80063ac:	9b01      	ldr	r3, [sp, #4]
 80063ae:	6163      	str	r3, [r4, #20]
 80063b0:	2201      	movs	r2, #1
 80063b2:	6122      	str	r2, [r4, #16]
 80063b4:	3020      	adds	r0, #32
 80063b6:	e7e3      	b.n	8006380 <__d2b+0x60>
 80063b8:	eb04 0382 	add.w	r3, r4, r2, lsl #2
 80063bc:	f2a0 4032 	subw	r0, r0, #1074	; 0x432
 80063c0:	f8c9 0000 	str.w	r0, [r9]
 80063c4:	6918      	ldr	r0, [r3, #16]
 80063c6:	f7ff fd2b 	bl	8005e20 <__hi0bits>
 80063ca:	ebc0 1042 	rsb	r0, r0, r2, lsl #5
 80063ce:	e7df      	b.n	8006390 <__d2b+0x70>
 80063d0:	08006d6f 	.word	0x08006d6f
 80063d4:	08006de0 	.word	0x08006de0

080063d8 <_calloc_r>:
 80063d8:	b537      	push	{r0, r1, r2, r4, r5, lr}
 80063da:	fba1 2402 	umull	r2, r4, r1, r2
 80063de:	b94c      	cbnz	r4, 80063f4 <_calloc_r+0x1c>
 80063e0:	4611      	mov	r1, r2
 80063e2:	9201      	str	r2, [sp, #4]
 80063e4:	f000 f87a 	bl	80064dc <_malloc_r>
 80063e8:	9a01      	ldr	r2, [sp, #4]
 80063ea:	4605      	mov	r5, r0
 80063ec:	b930      	cbnz	r0, 80063fc <_calloc_r+0x24>
 80063ee:	4628      	mov	r0, r5
 80063f0:	b003      	add	sp, #12
 80063f2:	bd30      	pop	{r4, r5, pc}
 80063f4:	220c      	movs	r2, #12
 80063f6:	6002      	str	r2, [r0, #0]
 80063f8:	2500      	movs	r5, #0
 80063fa:	e7f8      	b.n	80063ee <_calloc_r+0x16>
 80063fc:	4621      	mov	r1, r4
 80063fe:	f7fd fdf1 	bl	8003fe4 <memset>
 8006402:	e7f4      	b.n	80063ee <_calloc_r+0x16>

08006404 <_free_r>:
 8006404:	b537      	push	{r0, r1, r2, r4, r5, lr}
 8006406:	2900      	cmp	r1, #0
 8006408:	d044      	beq.n	8006494 <_free_r+0x90>
 800640a:	f851 3c04 	ldr.w	r3, [r1, #-4]
 800640e:	9001      	str	r0, [sp, #4]
 8006410:	2b00      	cmp	r3, #0
 8006412:	f1a1 0404 	sub.w	r4, r1, #4
 8006416:	bfb8      	it	lt
 8006418:	18e4      	addlt	r4, r4, r3
 800641a:	f000 fb19 	bl	8006a50 <__malloc_lock>
 800641e:	4a1e      	ldr	r2, [pc, #120]	; (8006498 <_free_r+0x94>)
 8006420:	9801      	ldr	r0, [sp, #4]
 8006422:	6813      	ldr	r3, [r2, #0]
 8006424:	b933      	cbnz	r3, 8006434 <_free_r+0x30>
 8006426:	6063      	str	r3, [r4, #4]
 8006428:	6014      	str	r4, [r2, #0]
 800642a:	b003      	add	sp, #12
 800642c:	e8bd 4030 	ldmia.w	sp!, {r4, r5, lr}
 8006430:	f000 bb14 	b.w	8006a5c <__malloc_unlock>
 8006434:	42a3      	cmp	r3, r4
 8006436:	d908      	bls.n	800644a <_free_r+0x46>
 8006438:	6825      	ldr	r5, [r4, #0]
 800643a:	1961      	adds	r1, r4, r5
 800643c:	428b      	cmp	r3, r1
 800643e:	bf01      	itttt	eq
 8006440:	6819      	ldreq	r1, [r3, #0]
 8006442:	685b      	ldreq	r3, [r3, #4]
 8006444:	1949      	addeq	r1, r1, r5
 8006446:	6021      	streq	r1, [r4, #0]
 8006448:	e7ed      	b.n	8006426 <_free_r+0x22>
 800644a:	461a      	mov	r2, r3
 800644c:	685b      	ldr	r3, [r3, #4]
 800644e:	b10b      	cbz	r3, 8006454 <_free_r+0x50>
 8006450:	42a3      	cmp	r3, r4
 8006452:	d9fa      	bls.n	800644a <_free_r+0x46>
 8006454:	6811      	ldr	r1, [r2, #0]
 8006456:	1855      	adds	r5, r2, r1
 8006458:	42a5      	cmp	r5, r4
 800645a:	d10b      	bne.n	8006474 <_free_r+0x70>
 800645c:	6824      	ldr	r4, [r4, #0]
 800645e:	4421      	add	r1, r4
 8006460:	1854      	adds	r4, r2, r1
 8006462:	42a3      	cmp	r3, r4
 8006464:	6011      	str	r1, [r2, #0]
 8006466:	d1e0      	bne.n	800642a <_free_r+0x26>
 8006468:	681c      	ldr	r4, [r3, #0]
 800646a:	685b      	ldr	r3, [r3, #4]
 800646c:	6053      	str	r3, [r2, #4]
 800646e:	4421      	add	r1, r4
 8006470:	6011      	str	r1, [r2, #0]
 8006472:	e7da      	b.n	800642a <_free_r+0x26>
 8006474:	d902      	bls.n	800647c <_free_r+0x78>
 8006476:	230c      	movs	r3, #12
 8006478:	6003      	str	r3, [r0, #0]
 800647a:	e7d6      	b.n	800642a <_free_r+0x26>
 800647c:	6825      	ldr	r5, [r4, #0]
 800647e:	1961      	adds	r1, r4, r5
 8006480:	428b      	cmp	r3, r1
 8006482:	bf04      	itt	eq
 8006484:	6819      	ldreq	r1, [r3, #0]
 8006486:	685b      	ldreq	r3, [r3, #4]
 8006488:	6063      	str	r3, [r4, #4]
 800648a:	bf04      	itt	eq
 800648c:	1949      	addeq	r1, r1, r5
 800648e:	6021      	streq	r1, [r4, #0]
 8006490:	6054      	str	r4, [r2, #4]
 8006492:	e7ca      	b.n	800642a <_free_r+0x26>
 8006494:	b003      	add	sp, #12
 8006496:	bd30      	pop	{r4, r5, pc}
 8006498:	20000310 	.word	0x20000310

0800649c <sbrk_aligned>:
 800649c:	b570      	push	{r4, r5, r6, lr}
 800649e:	4e0e      	ldr	r6, [pc, #56]	; (80064d8 <sbrk_aligned+0x3c>)
 80064a0:	460c      	mov	r4, r1
 80064a2:	6831      	ldr	r1, [r6, #0]
 80064a4:	4605      	mov	r5, r0
 80064a6:	b911      	cbnz	r1, 80064ae <sbrk_aligned+0x12>
 80064a8:	f000 f9e6 	bl	8006878 <_sbrk_r>
 80064ac:	6030      	str	r0, [r6, #0]
 80064ae:	4621      	mov	r1, r4
 80064b0:	4628      	mov	r0, r5
 80064b2:	f000 f9e1 	bl	8006878 <_sbrk_r>
 80064b6:	1c43      	adds	r3, r0, #1
 80064b8:	d00a      	beq.n	80064d0 <sbrk_aligned+0x34>
 80064ba:	1cc4      	adds	r4, r0, #3
 80064bc:	f024 0403 	bic.w	r4, r4, #3
 80064c0:	42a0      	cmp	r0, r4
 80064c2:	d007      	beq.n	80064d4 <sbrk_aligned+0x38>
 80064c4:	1a21      	subs	r1, r4, r0
 80064c6:	4628      	mov	r0, r5
 80064c8:	f000 f9d6 	bl	8006878 <_sbrk_r>
 80064cc:	3001      	adds	r0, #1
 80064ce:	d101      	bne.n	80064d4 <sbrk_aligned+0x38>
 80064d0:	f04f 34ff 	mov.w	r4, #4294967295
 80064d4:	4620      	mov	r0, r4
 80064d6:	bd70      	pop	{r4, r5, r6, pc}
 80064d8:	20000314 	.word	0x20000314

080064dc <_malloc_r>:
 80064dc:	e92d 41f0 	stmdb	sp!, {r4, r5, r6, r7, r8, lr}
 80064e0:	1ccd      	adds	r5, r1, #3
 80064e2:	f025 0503 	bic.w	r5, r5, #3
 80064e6:	3508      	adds	r5, #8
 80064e8:	2d0c      	cmp	r5, #12
 80064ea:	bf38      	it	cc
 80064ec:	250c      	movcc	r5, #12
 80064ee:	2d00      	cmp	r5, #0
 80064f0:	4607      	mov	r7, r0
 80064f2:	db01      	blt.n	80064f8 <_malloc_r+0x1c>
 80064f4:	42a9      	cmp	r1, r5
 80064f6:	d905      	bls.n	8006504 <_malloc_r+0x28>
 80064f8:	230c      	movs	r3, #12
 80064fa:	603b      	str	r3, [r7, #0]
 80064fc:	2600      	movs	r6, #0
 80064fe:	4630      	mov	r0, r6
 8006500:	e8bd 81f0 	ldmia.w	sp!, {r4, r5, r6, r7, r8, pc}
 8006504:	4e2e      	ldr	r6, [pc, #184]	; (80065c0 <_malloc_r+0xe4>)
 8006506:	f000 faa3 	bl	8006a50 <__malloc_lock>
 800650a:	6833      	ldr	r3, [r6, #0]
 800650c:	461c      	mov	r4, r3
 800650e:	bb34      	cbnz	r4, 800655e <_malloc_r+0x82>
 8006510:	4629      	mov	r1, r5
 8006512:	4638      	mov	r0, r7
 8006514:	f7ff ffc2 	bl	800649c <sbrk_aligned>
 8006518:	1c43      	adds	r3, r0, #1
 800651a:	4604      	mov	r4, r0
 800651c:	d14d      	bne.n	80065ba <_malloc_r+0xde>
 800651e:	6834      	ldr	r4, [r6, #0]
 8006520:	4626      	mov	r6, r4
 8006522:	2e00      	cmp	r6, #0
 8006524:	d140      	bne.n	80065a8 <_malloc_r+0xcc>
 8006526:	6823      	ldr	r3, [r4, #0]
 8006528:	4631      	mov	r1, r6
 800652a:	4638      	mov	r0, r7
 800652c:	eb04 0803 	add.w	r8, r4, r3
 8006530:	f000 f9a2 	bl	8006878 <_sbrk_r>
 8006534:	4580      	cmp	r8, r0
 8006536:	d13a      	bne.n	80065ae <_malloc_r+0xd2>
 8006538:	6821      	ldr	r1, [r4, #0]
 800653a:	3503      	adds	r5, #3
 800653c:	1a6d      	subs	r5, r5, r1
 800653e:	f025 0503 	bic.w	r5, r5, #3
 8006542:	3508      	adds	r5, #8
 8006544:	2d0c      	cmp	r5, #12
 8006546:	bf38      	it	cc
 8006548:	250c      	movcc	r5, #12
 800654a:	4629      	mov	r1, r5
 800654c:	4638      	mov	r0, r7
 800654e:	f7ff ffa5 	bl	800649c <sbrk_aligned>
 8006552:	3001      	adds	r0, #1
 8006554:	d02b      	beq.n	80065ae <_malloc_r+0xd2>
 8006556:	6823      	ldr	r3, [r4, #0]
 8006558:	442b      	add	r3, r5
 800655a:	6023      	str	r3, [r4, #0]
 800655c:	e00e      	b.n	800657c <_malloc_r+0xa0>
 800655e:	6822      	ldr	r2, [r4, #0]
 8006560:	1b52      	subs	r2, r2, r5
 8006562:	d41e      	bmi.n	80065a2 <_malloc_r+0xc6>
 8006564:	2a0b      	cmp	r2, #11
 8006566:	d916      	bls.n	8006596 <_malloc_r+0xba>
 8006568:	1961      	adds	r1, r4, r5
 800656a:	42a3      	cmp	r3, r4
 800656c:	6025      	str	r5, [r4, #0]
 800656e:	bf18      	it	ne
 8006570:	6059      	strne	r1, [r3, #4]
 8006572:	6863      	ldr	r3, [r4, #4]
 8006574:	bf08      	it	eq
 8006576:	6031      	streq	r1, [r6, #0]
 8006578:	5162      	str	r2, [r4, r5]
 800657a:	604b      	str	r3, [r1, #4]
 800657c:	4638      	mov	r0, r7
 800657e:	f104 060b 	add.w	r6, r4, #11
 8006582:	f000 fa6b 	bl	8006a5c <__malloc_unlock>
 8006586:	f026 0607 	bic.w	r6, r6, #7
 800658a:	1d23      	adds	r3, r4, #4
 800658c:	1af2      	subs	r2, r6, r3
 800658e:	d0b6      	beq.n	80064fe <_malloc_r+0x22>
 8006590:	1b9b      	subs	r3, r3, r6
 8006592:	50a3      	str	r3, [r4, r2]
 8006594:	e7b3      	b.n	80064fe <_malloc_r+0x22>
 8006596:	6862      	ldr	r2, [r4, #4]
 8006598:	42a3      	cmp	r3, r4
 800659a:	bf0c      	ite	eq
 800659c:	6032      	streq	r2, [r6, #0]
 800659e:	605a      	strne	r2, [r3, #4]
 80065a0:	e7ec      	b.n	800657c <_malloc_r+0xa0>
 80065a2:	4623      	mov	r3, r4
 80065a4:	6864      	ldr	r4, [r4, #4]
 80065a6:	e7b2      	b.n	800650e <_malloc_r+0x32>
 80065a8:	4634      	mov	r4, r6
 80065aa:	6876      	ldr	r6, [r6, #4]
 80065ac:	e7b9      	b.n	8006522 <_malloc_r+0x46>
 80065ae:	230c      	movs	r3, #12
 80065b0:	603b      	str	r3, [r7, #0]
 80065b2:	4638      	mov	r0, r7
 80065b4:	f000 fa52 	bl	8006a5c <__malloc_unlock>
 80065b8:	e7a1      	b.n	80064fe <_malloc_r+0x22>
 80065ba:	6025      	str	r5, [r4, #0]
 80065bc:	e7de      	b.n	800657c <_malloc_r+0xa0>
 80065be:	bf00      	nop
 80065c0:	20000310 	.word	0x20000310

080065c4 <__sfputc_r>:
 80065c4:	6893      	ldr	r3, [r2, #8]
 80065c6:	3b01      	subs	r3, #1
 80065c8:	2b00      	cmp	r3, #0
 80065ca:	b410      	push	{r4}
 80065cc:	6093      	str	r3, [r2, #8]
 80065ce:	da08      	bge.n	80065e2 <__sfputc_r+0x1e>
 80065d0:	6994      	ldr	r4, [r2, #24]
 80065d2:	42a3      	cmp	r3, r4
 80065d4:	db01      	blt.n	80065da <__sfputc_r+0x16>
 80065d6:	290a      	cmp	r1, #10
 80065d8:	d103      	bne.n	80065e2 <__sfputc_r+0x1e>
 80065da:	f85d 4b04 	ldr.w	r4, [sp], #4
 80065de:	f7fe ba01 	b.w	80049e4 <__swbuf_r>
 80065e2:	6813      	ldr	r3, [r2, #0]
 80065e4:	1c58      	adds	r0, r3, #1
 80065e6:	6010      	str	r0, [r2, #0]
 80065e8:	7019      	strb	r1, [r3, #0]
 80065ea:	4608      	mov	r0, r1
 80065ec:	f85d 4b04 	ldr.w	r4, [sp], #4
 80065f0:	4770      	bx	lr

080065f2 <__sfputs_r>:
 80065f2:	b5f8      	push	{r3, r4, r5, r6, r7, lr}
 80065f4:	4606      	mov	r6, r0
 80065f6:	460f      	mov	r7, r1
 80065f8:	4614      	mov	r4, r2
 80065fa:	18d5      	adds	r5, r2, r3
 80065fc:	42ac      	cmp	r4, r5
 80065fe:	d101      	bne.n	8006604 <__sfputs_r+0x12>
 8006600:	2000      	movs	r0, #0
 8006602:	e007      	b.n	8006614 <__sfputs_r+0x22>
 8006604:	f814 1b01 	ldrb.w	r1, [r4], #1
 8006608:	463a      	mov	r2, r7
 800660a:	4630      	mov	r0, r6
 800660c:	f7ff ffda 	bl	80065c4 <__sfputc_r>
 8006610:	1c43      	adds	r3, r0, #1
 8006612:	d1f3      	bne.n	80065fc <__sfputs_r+0xa>
 8006614:	bdf8      	pop	{r3, r4, r5, r6, r7, pc}
	...

08006618 <_vfiprintf_r>:
 8006618:	e92d 4ff0 	stmdb	sp!, {r4, r5, r6, r7, r8, r9, sl, fp, lr}
 800661c:	460d      	mov	r5, r1
 800661e:	b09d      	sub	sp, #116	; 0x74
 8006620:	4614      	mov	r4, r2
 8006622:	4698      	mov	r8, r3
 8006624:	4606      	mov	r6, r0
 8006626:	b118      	cbz	r0, 8006630 <_vfiprintf_r+0x18>
 8006628:	6983      	ldr	r3, [r0, #24]
 800662a:	b90b      	cbnz	r3, 8006630 <_vfiprintf_r+0x18>
 800662c:	f7ff fa30 	bl	8005a90 <__sinit>
 8006630:	4b89      	ldr	r3, [pc, #548]	; (8006858 <_vfiprintf_r+0x240>)
 8006632:	429d      	cmp	r5, r3
 8006634:	d11b      	bne.n	800666e <_vfiprintf_r+0x56>
 8006636:	6875      	ldr	r5, [r6, #4]
 8006638:	6e6b      	ldr	r3, [r5, #100]	; 0x64
 800663a:	07d9      	lsls	r1, r3, #31
 800663c:	d405      	bmi.n	800664a <_vfiprintf_r+0x32>
 800663e:	89ab      	ldrh	r3, [r5, #12]
 8006640:	059a      	lsls	r2, r3, #22
 8006642:	d402      	bmi.n	800664a <_vfiprintf_r+0x32>
 8006644:	6da8      	ldr	r0, [r5, #88]	; 0x58
 8006646:	f7ff fac6 	bl	8005bd6 <__retarget_lock_acquire_recursive>
 800664a:	89ab      	ldrh	r3, [r5, #12]
 800664c:	071b      	lsls	r3, r3, #28
 800664e:	d501      	bpl.n	8006654 <_vfiprintf_r+0x3c>
 8006650:	692b      	ldr	r3, [r5, #16]
 8006652:	b9eb      	cbnz	r3, 8006690 <_vfiprintf_r+0x78>
 8006654:	4629      	mov	r1, r5
 8006656:	4630      	mov	r0, r6
 8006658:	f7fe fa16 	bl	8004a88 <__swsetup_r>
 800665c:	b1c0      	cbz	r0, 8006690 <_vfiprintf_r+0x78>
 800665e:	6e6b      	ldr	r3, [r5, #100]	; 0x64
 8006660:	07dc      	lsls	r4, r3, #31
 8006662:	d50e      	bpl.n	8006682 <_vfiprintf_r+0x6a>
 8006664:	f04f 30ff 	mov.w	r0, #4294967295
 8006668:	b01d      	add	sp, #116	; 0x74
 800666a:	e8bd 8ff0 	ldmia.w	sp!, {r4, r5, r6, r7, r8, r9, sl, fp, pc}
 800666e:	4b7b      	ldr	r3, [pc, #492]	; (800685c <_vfiprintf_r+0x244>)
 8006670:	429d      	cmp	r5, r3
 8006672:	d101      	bne.n	8006678 <_vfiprintf_r+0x60>
 8006674:	68b5      	ldr	r5, [r6, #8]
 8006676:	e7df      	b.n	8006638 <_vfiprintf_r+0x20>
 8006678:	4b79      	ldr	r3, [pc, #484]	; (8006860 <_vfiprintf_r+0x248>)
 800667a:	429d      	cmp	r5, r3
 800667c:	bf08      	it	eq
 800667e:	68f5      	ldreq	r5, [r6, #12]
 8006680:	e7da      	b.n	8006638 <_vfiprintf_r+0x20>
 8006682:	89ab      	ldrh	r3, [r5, #12]
 8006684:	0598      	lsls	r0, r3, #22
 8006686:	d4ed      	bmi.n	8006664 <_vfiprintf_r+0x4c>
 8006688:	6da8      	ldr	r0, [r5, #88]	; 0x58
 800668a:	f7ff faa5 	bl	8005bd8 <__retarget_lock_release_recursive>
 800668e:	e7e9      	b.n	8006664 <_vfiprintf_r+0x4c>
 8006690:	2300      	movs	r3, #0
 8006692:	9309      	str	r3, [sp, #36]	; 0x24
 8006694:	2320      	movs	r3, #32
 8006696:	f88d 3029 	strb.w	r3, [sp, #41]	; 0x29
 800669a:	f8cd 800c 	str.w	r8, [sp, #12]
 800669e:	2330      	movs	r3, #48	; 0x30
 80066a0:	f8df 81c0 	ldr.w	r8, [pc, #448]	; 8006864 <_vfiprintf_r+0x24c>
 80066a4:	f88d 302a 	strb.w	r3, [sp, #42]	; 0x2a
 80066a8:	f04f 0901 	mov.w	r9, #1
 80066ac:	4623      	mov	r3, r4
 80066ae:	469a      	mov	sl, r3
 80066b0:	f813 2b01 	ldrb.w	r2, [r3], #1
 80066b4:	b10a      	cbz	r2, 80066ba <_vfiprintf_r+0xa2>
 80066b6:	2a25      	cmp	r2, #37	; 0x25
 80066b8:	d1f9      	bne.n	80066ae <_vfiprintf_r+0x96>
 80066ba:	ebba 0b04 	subs.w	fp, sl, r4
 80066be:	d00b      	beq.n	80066d8 <_vfiprintf_r+0xc0>
 80066c0:	465b      	mov	r3, fp
 80066c2:	4622      	mov	r2, r4
 80066c4:	4629      	mov	r1, r5
 80066c6:	4630      	mov	r0, r6
 80066c8:	f7ff ff93 	bl	80065f2 <__sfputs_r>
 80066cc:	3001      	adds	r0, #1
 80066ce:	f000 80aa 	beq.w	8006826 <_vfiprintf_r+0x20e>
 80066d2:	9a09      	ldr	r2, [sp, #36]	; 0x24
 80066d4:	445a      	add	r2, fp
 80066d6:	9209      	str	r2, [sp, #36]	; 0x24
 80066d8:	f89a 3000 	ldrb.w	r3, [sl]
 80066dc:	2b00      	cmp	r3, #0
 80066de:	f000 80a2 	beq.w	8006826 <_vfiprintf_r+0x20e>
 80066e2:	2300      	movs	r3, #0
 80066e4:	f04f 32ff 	mov.w	r2, #4294967295
 80066e8:	e9cd 2305 	strd	r2, r3, [sp, #20]
 80066ec:	f10a 0a01 	add.w	sl, sl, #1
 80066f0:	9304      	str	r3, [sp, #16]
 80066f2:	9307      	str	r3, [sp, #28]
 80066f4:	f88d 3053 	strb.w	r3, [sp, #83]	; 0x53
 80066f8:	931a      	str	r3, [sp, #104]	; 0x68
 80066fa:	4654      	mov	r4, sl
 80066fc:	2205      	movs	r2, #5
 80066fe:	f814 1b01 	ldrb.w	r1, [r4], #1
 8006702:	4858      	ldr	r0, [pc, #352]	; (8006864 <_vfiprintf_r+0x24c>)
 8006704:	f7f9 fd7c 	bl	8000200 <memchr>
 8006708:	9a04      	ldr	r2, [sp, #16]
 800670a:	b9d8      	cbnz	r0, 8006744 <_vfiprintf_r+0x12c>
 800670c:	06d1      	lsls	r1, r2, #27
 800670e:	bf44      	itt	mi
 8006710:	2320      	movmi	r3, #32
 8006712:	f88d 3053 	strbmi.w	r3, [sp, #83]	; 0x53
 8006716:	0713      	lsls	r3, r2, #28
 8006718:	bf44      	itt	mi
 800671a:	232b      	movmi	r3, #43	; 0x2b
 800671c:	f88d 3053 	strbmi.w	r3, [sp, #83]	; 0x53
 8006720:	f89a 3000 	ldrb.w	r3, [sl]
 8006724:	2b2a      	cmp	r3, #42	; 0x2a
 8006726:	d015      	beq.n	8006754 <_vfiprintf_r+0x13c>
 8006728:	9a07      	ldr	r2, [sp, #28]
 800672a:	4654      	mov	r4, sl
 800672c:	2000      	movs	r0, #0
 800672e:	f04f 0c0a 	mov.w	ip, #10
 8006732:	4621      	mov	r1, r4
 8006734:	f811 3b01 	ldrb.w	r3, [r1], #1
 8006738:	3b30      	subs	r3, #48	; 0x30
 800673a:	2b09      	cmp	r3, #9
 800673c:	d94e      	bls.n	80067dc <_vfiprintf_r+0x1c4>
 800673e:	b1b0      	cbz	r0, 800676e <_vfiprintf_r+0x156>
 8006740:	9207      	str	r2, [sp, #28]
 8006742:	e014      	b.n	800676e <_vfiprintf_r+0x156>
 8006744:	eba0 0308 	sub.w	r3, r0, r8
 8006748:	fa09 f303 	lsl.w	r3, r9, r3
 800674c:	4313      	orrs	r3, r2
 800674e:	9304      	str	r3, [sp, #16]
 8006750:	46a2      	mov	sl, r4
 8006752:	e7d2      	b.n	80066fa <_vfiprintf_r+0xe2>
 8006754:	9b03      	ldr	r3, [sp, #12]
 8006756:	1d19      	adds	r1, r3, #4
 8006758:	681b      	ldr	r3, [r3, #0]
 800675a:	9103      	str	r1, [sp, #12]
 800675c:	2b00      	cmp	r3, #0
 800675e:	bfbb      	ittet	lt
 8006760:	425b      	neglt	r3, r3
 8006762:	f042 0202 	orrlt.w	r2, r2, #2
 8006766:	9307      	strge	r3, [sp, #28]
 8006768:	9307      	strlt	r3, [sp, #28]
 800676a:	bfb8      	it	lt
 800676c:	9204      	strlt	r2, [sp, #16]
 800676e:	7823      	ldrb	r3, [r4, #0]
 8006770:	2b2e      	cmp	r3, #46	; 0x2e
 8006772:	d10c      	bne.n	800678e <_vfiprintf_r+0x176>
 8006774:	7863      	ldrb	r3, [r4, #1]
 8006776:	2b2a      	cmp	r3, #42	; 0x2a
 8006778:	d135      	bne.n	80067e6 <_vfiprintf_r+0x1ce>
 800677a:	9b03      	ldr	r3, [sp, #12]
 800677c:	1d1a      	adds	r2, r3, #4
 800677e:	681b      	ldr	r3, [r3, #0]
 8006780:	9203      	str	r2, [sp, #12]
 8006782:	2b00      	cmp	r3, #0
 8006784:	bfb8      	it	lt
 8006786:	f04f 33ff 	movlt.w	r3, #4294967295
 800678a:	3402      	adds	r4, #2
 800678c:	9305      	str	r3, [sp, #20]
 800678e:	f8df a0e4 	ldr.w	sl, [pc, #228]	; 8006874 <_vfiprintf_r+0x25c>
 8006792:	7821      	ldrb	r1, [r4, #0]
 8006794:	2203      	movs	r2, #3
 8006796:	4650      	mov	r0, sl
 8006798:	f7f9 fd32 	bl	8000200 <memchr>
 800679c:	b140      	cbz	r0, 80067b0 <_vfiprintf_r+0x198>
 800679e:	2340      	movs	r3, #64	; 0x40
 80067a0:	eba0 000a 	sub.w	r0, r0, sl
 80067a4:	fa03 f000 	lsl.w	r0, r3, r0
 80067a8:	9b04      	ldr	r3, [sp, #16]
 80067aa:	4303      	orrs	r3, r0
 80067ac:	3401      	adds	r4, #1
 80067ae:	9304      	str	r3, [sp, #16]
 80067b0:	f814 1b01 	ldrb.w	r1, [r4], #1
 80067b4:	482c      	ldr	r0, [pc, #176]	; (8006868 <_vfiprintf_r+0x250>)
 80067b6:	f88d 1028 	strb.w	r1, [sp, #40]	; 0x28
 80067ba:	2206      	movs	r2, #6
 80067bc:	f7f9 fd20 	bl	8000200 <memchr>
 80067c0:	2800      	cmp	r0, #0
 80067c2:	d03f      	beq.n	8006844 <_vfiprintf_r+0x22c>
 80067c4:	4b29      	ldr	r3, [pc, #164]	; (800686c <_vfiprintf_r+0x254>)
 80067c6:	bb1b      	cbnz	r3, 8006810 <_vfiprintf_r+0x1f8>
 80067c8:	9b03      	ldr	r3, [sp, #12]
 80067ca:	3307      	adds	r3, #7
 80067cc:	f023 0307 	bic.w	r3, r3, #7
 80067d0:	3308      	adds	r3, #8
 80067d2:	9303      	str	r3, [sp, #12]
 80067d4:	9b09      	ldr	r3, [sp, #36]	; 0x24
 80067d6:	443b      	add	r3, r7
 80067d8:	9309      	str	r3, [sp, #36]	; 0x24
 80067da:	e767      	b.n	80066ac <_vfiprintf_r+0x94>
 80067dc:	fb0c 3202 	mla	r2, ip, r2, r3
 80067e0:	460c      	mov	r4, r1
 80067e2:	2001      	movs	r0, #1
 80067e4:	e7a5      	b.n	8006732 <_vfiprintf_r+0x11a>
 80067e6:	2300      	movs	r3, #0
 80067e8:	3401      	adds	r4, #1
 80067ea:	9305      	str	r3, [sp, #20]
 80067ec:	4619      	mov	r1, r3
 80067ee:	f04f 0c0a 	mov.w	ip, #10
 80067f2:	4620      	mov	r0, r4
 80067f4:	f810 2b01 	ldrb.w	r2, [r0], #1
 80067f8:	3a30      	subs	r2, #48	; 0x30
 80067fa:	2a09      	cmp	r2, #9
 80067fc:	d903      	bls.n	8006806 <_vfiprintf_r+0x1ee>
 80067fe:	2b00      	cmp	r3, #0
 8006800:	d0c5      	beq.n	800678e <_vfiprintf_r+0x176>
 8006802:	9105      	str	r1, [sp, #20]
 8006804:	e7c3      	b.n	800678e <_vfiprintf_r+0x176>
 8006806:	fb0c 2101 	mla	r1, ip, r1, r2
 800680a:	4604      	mov	r4, r0
 800680c:	2301      	movs	r3, #1
 800680e:	e7f0      	b.n	80067f2 <_vfiprintf_r+0x1da>
 8006810:	ab03      	add	r3, sp, #12
 8006812:	9300      	str	r3, [sp, #0]
 8006814:	462a      	mov	r2, r5
 8006816:	4b16      	ldr	r3, [pc, #88]	; (8006870 <_vfiprintf_r+0x258>)
 8006818:	a904      	add	r1, sp, #16
 800681a:	4630      	mov	r0, r6
 800681c:	f7fd fc8a 	bl	8004134 <_printf_float>
 8006820:	4607      	mov	r7, r0
 8006822:	1c78      	adds	r0, r7, #1
 8006824:	d1d6      	bne.n	80067d4 <_vfiprintf_r+0x1bc>
 8006826:	6e6b      	ldr	r3, [r5, #100]	; 0x64
 8006828:	07d9      	lsls	r1, r3, #31
 800682a:	d405      	bmi.n	8006838 <_vfiprintf_r+0x220>
 800682c:	89ab      	ldrh	r3, [r5, #12]
 800682e:	059a      	lsls	r2, r3, #22
 8006830:	d402      	bmi.n	8006838 <_vfiprintf_r+0x220>
 8006832:	6da8      	ldr	r0, [r5, #88]	; 0x58
 8006834:	f7ff f9d0 	bl	8005bd8 <__retarget_lock_release_recursive>
 8006838:	89ab      	ldrh	r3, [r5, #12]
 800683a:	065b      	lsls	r3, r3, #25
 800683c:	f53f af12 	bmi.w	8006664 <_vfiprintf_r+0x4c>
 8006840:	9809      	ldr	r0, [sp, #36]	; 0x24
 8006842:	e711      	b.n	8006668 <_vfiprintf_r+0x50>
 8006844:	ab03      	add	r3, sp, #12
 8006846:	9300      	str	r3, [sp, #0]
 8006848:	462a      	mov	r2, r5
 800684a:	4b09      	ldr	r3, [pc, #36]	; (8006870 <_vfiprintf_r+0x258>)
 800684c:	a904      	add	r1, sp, #16
 800684e:	4630      	mov	r0, r6
 8006850:	f7fd ff14 	bl	800467c <_printf_i>
 8006854:	e7e4      	b.n	8006820 <_vfiprintf_r+0x208>
 8006856:	bf00      	nop
 8006858:	08006da0 	.word	0x08006da0
 800685c:	08006dc0 	.word	0x08006dc0
 8006860:	08006d80 	.word	0x08006d80
 8006864:	08006f3c 	.word	0x08006f3c
 8006868:	08006f46 	.word	0x08006f46
 800686c:	08004135 	.word	0x08004135
 8006870:	080065f3 	.word	0x080065f3
 8006874:	08006f42 	.word	0x08006f42

08006878 <_sbrk_r>:
 8006878:	b538      	push	{r3, r4, r5, lr}
 800687a:	4d06      	ldr	r5, [pc, #24]	; (8006894 <_sbrk_r+0x1c>)
 800687c:	2300      	movs	r3, #0
 800687e:	4604      	mov	r4, r0
 8006880:	4608      	mov	r0, r1
 8006882:	602b      	str	r3, [r5, #0]
 8006884:	f7fa fe92 	bl	80015ac <_sbrk>
 8006888:	1c43      	adds	r3, r0, #1
 800688a:	d102      	bne.n	8006892 <_sbrk_r+0x1a>
 800688c:	682b      	ldr	r3, [r5, #0]
 800688e:	b103      	cbz	r3, 8006892 <_sbrk_r+0x1a>
 8006890:	6023      	str	r3, [r4, #0]
 8006892:	bd38      	pop	{r3, r4, r5, pc}
 8006894:	20000318 	.word	0x20000318

08006898 <__sread>:
 8006898:	b510      	push	{r4, lr}
 800689a:	460c      	mov	r4, r1
 800689c:	f9b1 100e 	ldrsh.w	r1, [r1, #14]
 80068a0:	f000 f8e2 	bl	8006a68 <_read_r>
 80068a4:	2800      	cmp	r0, #0
 80068a6:	bfab      	itete	ge
 80068a8:	6d63      	ldrge	r3, [r4, #84]	; 0x54
 80068aa:	89a3      	ldrhlt	r3, [r4, #12]
 80068ac:	181b      	addge	r3, r3, r0
 80068ae:	f423 5380 	biclt.w	r3, r3, #4096	; 0x1000
 80068b2:	bfac      	ite	ge
 80068b4:	6563      	strge	r3, [r4, #84]	; 0x54
 80068b6:	81a3      	strhlt	r3, [r4, #12]
 80068b8:	bd10      	pop	{r4, pc}

080068ba <__swrite>:
 80068ba:	e92d 41f0 	stmdb	sp!, {r4, r5, r6, r7, r8, lr}
 80068be:	461f      	mov	r7, r3
 80068c0:	898b      	ldrh	r3, [r1, #12]
 80068c2:	05db      	lsls	r3, r3, #23
 80068c4:	4605      	mov	r5, r0
 80068c6:	460c      	mov	r4, r1
 80068c8:	4616      	mov	r6, r2
 80068ca:	d505      	bpl.n	80068d8 <__swrite+0x1e>
 80068cc:	f9b1 100e 	ldrsh.w	r1, [r1, #14]
 80068d0:	2302      	movs	r3, #2
 80068d2:	2200      	movs	r2, #0
 80068d4:	f000 f898 	bl	8006a08 <_lseek_r>
 80068d8:	89a3      	ldrh	r3, [r4, #12]
 80068da:	f9b4 100e 	ldrsh.w	r1, [r4, #14]
 80068de:	f423 5380 	bic.w	r3, r3, #4096	; 0x1000
 80068e2:	81a3      	strh	r3, [r4, #12]
 80068e4:	4632      	mov	r2, r6
 80068e6:	463b      	mov	r3, r7
 80068e8:	4628      	mov	r0, r5
 80068ea:	e8bd 41f0 	ldmia.w	sp!, {r4, r5, r6, r7, r8, lr}
 80068ee:	f000 b817 	b.w	8006920 <_write_r>

080068f2 <__sseek>:
 80068f2:	b510      	push	{r4, lr}
 80068f4:	460c      	mov	r4, r1
 80068f6:	f9b1 100e 	ldrsh.w	r1, [r1, #14]
 80068fa:	f000 f885 	bl	8006a08 <_lseek_r>
 80068fe:	1c43      	adds	r3, r0, #1
 8006900:	89a3      	ldrh	r3, [r4, #12]
 8006902:	bf15      	itete	ne
 8006904:	6560      	strne	r0, [r4, #84]	; 0x54
 8006906:	f423 5380 	biceq.w	r3, r3, #4096	; 0x1000
 800690a:	f443 5380 	orrne.w	r3, r3, #4096	; 0x1000
 800690e:	81a3      	strheq	r3, [r4, #12]
 8006910:	bf18      	it	ne
 8006912:	81a3      	strhne	r3, [r4, #12]
 8006914:	bd10      	pop	{r4, pc}

08006916 <__sclose>:
 8006916:	f9b1 100e 	ldrsh.w	r1, [r1, #14]
 800691a:	f000 b831 	b.w	8006980 <_close_r>
	...

08006920 <_write_r>:
 8006920:	b538      	push	{r3, r4, r5, lr}
 8006922:	4d07      	ldr	r5, [pc, #28]	; (8006940 <_write_r+0x20>)
 8006924:	4604      	mov	r4, r0
 8006926:	4608      	mov	r0, r1
 8006928:	4611      	mov	r1, r2
 800692a:	2200      	movs	r2, #0
 800692c:	602a      	str	r2, [r5, #0]
 800692e:	461a      	mov	r2, r3
 8006930:	f7fa fdeb 	bl	800150a <_write>
 8006934:	1c43      	adds	r3, r0, #1
 8006936:	d102      	bne.n	800693e <_write_r+0x1e>
 8006938:	682b      	ldr	r3, [r5, #0]
 800693a:	b103      	cbz	r3, 800693e <_write_r+0x1e>
 800693c:	6023      	str	r3, [r4, #0]
 800693e:	bd38      	pop	{r3, r4, r5, pc}
 8006940:	20000318 	.word	0x20000318

08006944 <__assert_func>:
 8006944:	b51f      	push	{r0, r1, r2, r3, r4, lr}
 8006946:	4614      	mov	r4, r2
 8006948:	461a      	mov	r2, r3
 800694a:	4b09      	ldr	r3, [pc, #36]	; (8006970 <__assert_func+0x2c>)
 800694c:	681b      	ldr	r3, [r3, #0]
 800694e:	4605      	mov	r5, r0
 8006950:	68d8      	ldr	r0, [r3, #12]
 8006952:	b14c      	cbz	r4, 8006968 <__assert_func+0x24>
 8006954:	4b07      	ldr	r3, [pc, #28]	; (8006974 <__assert_func+0x30>)
 8006956:	9100      	str	r1, [sp, #0]
 8006958:	e9cd 3401 	strd	r3, r4, [sp, #4]
 800695c:	4906      	ldr	r1, [pc, #24]	; (8006978 <__assert_func+0x34>)
 800695e:	462b      	mov	r3, r5
 8006960:	f000 f81e 	bl	80069a0 <fiprintf>
 8006964:	f000 f89f 	bl	8006aa6 <abort>
 8006968:	4b04      	ldr	r3, [pc, #16]	; (800697c <__assert_func+0x38>)
 800696a:	461c      	mov	r4, r3
 800696c:	e7f3      	b.n	8006956 <__assert_func+0x12>
 800696e:	bf00      	nop
 8006970:	2000001c 	.word	0x2000001c
 8006974:	08006f4d 	.word	0x08006f4d
 8006978:	08006f5a 	.word	0x08006f5a
 800697c:	08006f88 	.word	0x08006f88

08006980 <_close_r>:
 8006980:	b538      	push	{r3, r4, r5, lr}
 8006982:	4d06      	ldr	r5, [pc, #24]	; (800699c <_close_r+0x1c>)
 8006984:	2300      	movs	r3, #0
 8006986:	4604      	mov	r4, r0
 8006988:	4608      	mov	r0, r1
 800698a:	602b      	str	r3, [r5, #0]
 800698c:	f7fa fdd9 	bl	8001542 <_close>
 8006990:	1c43      	adds	r3, r0, #1
 8006992:	d102      	bne.n	800699a <_close_r+0x1a>
 8006994:	682b      	ldr	r3, [r5, #0]
 8006996:	b103      	cbz	r3, 800699a <_close_r+0x1a>
 8006998:	6023      	str	r3, [r4, #0]
 800699a:	bd38      	pop	{r3, r4, r5, pc}
 800699c:	20000318 	.word	0x20000318

080069a0 <fiprintf>:
 80069a0:	b40e      	push	{r1, r2, r3}
 80069a2:	b503      	push	{r0, r1, lr}
 80069a4:	4601      	mov	r1, r0
 80069a6:	ab03      	add	r3, sp, #12
 80069a8:	4805      	ldr	r0, [pc, #20]	; (80069c0 <fiprintf+0x20>)
 80069aa:	f853 2b04 	ldr.w	r2, [r3], #4
 80069ae:	6800      	ldr	r0, [r0, #0]
 80069b0:	9301      	str	r3, [sp, #4]
 80069b2:	f7ff fe31 	bl	8006618 <_vfiprintf_r>
 80069b6:	b002      	add	sp, #8
 80069b8:	f85d eb04 	ldr.w	lr, [sp], #4
 80069bc:	b003      	add	sp, #12
 80069be:	4770      	bx	lr
 80069c0:	2000001c 	.word	0x2000001c

080069c4 <_fstat_r>:
 80069c4:	b538      	push	{r3, r4, r5, lr}
 80069c6:	4d07      	ldr	r5, [pc, #28]	; (80069e4 <_fstat_r+0x20>)
 80069c8:	2300      	movs	r3, #0
 80069ca:	4604      	mov	r4, r0
 80069cc:	4608      	mov	r0, r1
 80069ce:	4611      	mov	r1, r2
 80069d0:	602b      	str	r3, [r5, #0]
 80069d2:	f7fa fdc2 	bl	800155a <_fstat>
 80069d6:	1c43      	adds	r3, r0, #1
 80069d8:	d102      	bne.n	80069e0 <_fstat_r+0x1c>
 80069da:	682b      	ldr	r3, [r5, #0]
 80069dc:	b103      	cbz	r3, 80069e0 <_fstat_r+0x1c>
 80069de:	6023      	str	r3, [r4, #0]
 80069e0:	bd38      	pop	{r3, r4, r5, pc}
 80069e2:	bf00      	nop
 80069e4:	20000318 	.word	0x20000318

080069e8 <_isatty_r>:
 80069e8:	b538      	push	{r3, r4, r5, lr}
 80069ea:	4d06      	ldr	r5, [pc, #24]	; (8006a04 <_isatty_r+0x1c>)
 80069ec:	2300      	movs	r3, #0
 80069ee:	4604      	mov	r4, r0
 80069f0:	4608      	mov	r0, r1
 80069f2:	602b      	str	r3, [r5, #0]
 80069f4:	f7fa fdc1 	bl	800157a <_isatty>
 80069f8:	1c43      	adds	r3, r0, #1
 80069fa:	d102      	bne.n	8006a02 <_isatty_r+0x1a>
 80069fc:	682b      	ldr	r3, [r5, #0]
 80069fe:	b103      	cbz	r3, 8006a02 <_isatty_r+0x1a>
 8006a00:	6023      	str	r3, [r4, #0]
 8006a02:	bd38      	pop	{r3, r4, r5, pc}
 8006a04:	20000318 	.word	0x20000318

08006a08 <_lseek_r>:
 8006a08:	b538      	push	{r3, r4, r5, lr}
 8006a0a:	4d07      	ldr	r5, [pc, #28]	; (8006a28 <_lseek_r+0x20>)
 8006a0c:	4604      	mov	r4, r0
 8006a0e:	4608      	mov	r0, r1
 8006a10:	4611      	mov	r1, r2
 8006a12:	2200      	movs	r2, #0
 8006a14:	602a      	str	r2, [r5, #0]
 8006a16:	461a      	mov	r2, r3
 8006a18:	f7fa fdba 	bl	8001590 <_lseek>
 8006a1c:	1c43      	adds	r3, r0, #1
 8006a1e:	d102      	bne.n	8006a26 <_lseek_r+0x1e>
 8006a20:	682b      	ldr	r3, [r5, #0]
 8006a22:	b103      	cbz	r3, 8006a26 <_lseek_r+0x1e>
 8006a24:	6023      	str	r3, [r4, #0]
 8006a26:	bd38      	pop	{r3, r4, r5, pc}
 8006a28:	20000318 	.word	0x20000318

08006a2c <__ascii_mbtowc>:
 8006a2c:	b082      	sub	sp, #8
 8006a2e:	b901      	cbnz	r1, 8006a32 <__ascii_mbtowc+0x6>
 8006a30:	a901      	add	r1, sp, #4
 8006a32:	b142      	cbz	r2, 8006a46 <__ascii_mbtowc+0x1a>
 8006a34:	b14b      	cbz	r3, 8006a4a <__ascii_mbtowc+0x1e>
 8006a36:	7813      	ldrb	r3, [r2, #0]
 8006a38:	600b      	str	r3, [r1, #0]
 8006a3a:	7812      	ldrb	r2, [r2, #0]
 8006a3c:	1e10      	subs	r0, r2, #0
 8006a3e:	bf18      	it	ne
 8006a40:	2001      	movne	r0, #1
 8006a42:	b002      	add	sp, #8
 8006a44:	4770      	bx	lr
 8006a46:	4610      	mov	r0, r2
 8006a48:	e7fb      	b.n	8006a42 <__ascii_mbtowc+0x16>
 8006a4a:	f06f 0001 	mvn.w	r0, #1
 8006a4e:	e7f8      	b.n	8006a42 <__ascii_mbtowc+0x16>

08006a50 <__malloc_lock>:
 8006a50:	4801      	ldr	r0, [pc, #4]	; (8006a58 <__malloc_lock+0x8>)
 8006a52:	f7ff b8c0 	b.w	8005bd6 <__retarget_lock_acquire_recursive>
 8006a56:	bf00      	nop
 8006a58:	2000030c 	.word	0x2000030c

08006a5c <__malloc_unlock>:
 8006a5c:	4801      	ldr	r0, [pc, #4]	; (8006a64 <__malloc_unlock+0x8>)
 8006a5e:	f7ff b8bb 	b.w	8005bd8 <__retarget_lock_release_recursive>
 8006a62:	bf00      	nop
 8006a64:	2000030c 	.word	0x2000030c

08006a68 <_read_r>:
 8006a68:	b538      	push	{r3, r4, r5, lr}
 8006a6a:	4d07      	ldr	r5, [pc, #28]	; (8006a88 <_read_r+0x20>)
 8006a6c:	4604      	mov	r4, r0
 8006a6e:	4608      	mov	r0, r1
 8006a70:	4611      	mov	r1, r2
 8006a72:	2200      	movs	r2, #0
 8006a74:	602a      	str	r2, [r5, #0]
 8006a76:	461a      	mov	r2, r3
 8006a78:	f7fa fd2a 	bl	80014d0 <_read>
 8006a7c:	1c43      	adds	r3, r0, #1
 8006a7e:	d102      	bne.n	8006a86 <_read_r+0x1e>
 8006a80:	682b      	ldr	r3, [r5, #0]
 8006a82:	b103      	cbz	r3, 8006a86 <_read_r+0x1e>
 8006a84:	6023      	str	r3, [r4, #0]
 8006a86:	bd38      	pop	{r3, r4, r5, pc}
 8006a88:	20000318 	.word	0x20000318

08006a8c <__ascii_wctomb>:
 8006a8c:	b149      	cbz	r1, 8006aa2 <__ascii_wctomb+0x16>
 8006a8e:	2aff      	cmp	r2, #255	; 0xff
 8006a90:	bf85      	ittet	hi
 8006a92:	238a      	movhi	r3, #138	; 0x8a
 8006a94:	6003      	strhi	r3, [r0, #0]
 8006a96:	700a      	strbls	r2, [r1, #0]
 8006a98:	f04f 30ff 	movhi.w	r0, #4294967295
 8006a9c:	bf98      	it	ls
 8006a9e:	2001      	movls	r0, #1
 8006aa0:	4770      	bx	lr
 8006aa2:	4608      	mov	r0, r1
 8006aa4:	4770      	bx	lr

08006aa6 <abort>:
 8006aa6:	b508      	push	{r3, lr}
 8006aa8:	2006      	movs	r0, #6
 8006aaa:	f000 f82b 	bl	8006b04 <raise>
 8006aae:	2001      	movs	r0, #1
 8006ab0:	f7fa fd04 	bl	80014bc <_exit>

08006ab4 <_raise_r>:
 8006ab4:	291f      	cmp	r1, #31
 8006ab6:	b538      	push	{r3, r4, r5, lr}
 8006ab8:	4604      	mov	r4, r0
 8006aba:	460d      	mov	r5, r1
 8006abc:	d904      	bls.n	8006ac8 <_raise_r+0x14>
 8006abe:	2316      	movs	r3, #22
 8006ac0:	6003      	str	r3, [r0, #0]
 8006ac2:	f04f 30ff 	mov.w	r0, #4294967295
 8006ac6:	bd38      	pop	{r3, r4, r5, pc}
 8006ac8:	6c42      	ldr	r2, [r0, #68]	; 0x44
 8006aca:	b112      	cbz	r2, 8006ad2 <_raise_r+0x1e>
 8006acc:	f852 3021 	ldr.w	r3, [r2, r1, lsl #2]
 8006ad0:	b94b      	cbnz	r3, 8006ae6 <_raise_r+0x32>
 8006ad2:	4620      	mov	r0, r4
 8006ad4:	f000 f830 	bl	8006b38 <_getpid_r>
 8006ad8:	462a      	mov	r2, r5
 8006ada:	4601      	mov	r1, r0
 8006adc:	4620      	mov	r0, r4
 8006ade:	e8bd 4038 	ldmia.w	sp!, {r3, r4, r5, lr}
 8006ae2:	f000 b817 	b.w	8006b14 <_kill_r>
 8006ae6:	2b01      	cmp	r3, #1
 8006ae8:	d00a      	beq.n	8006b00 <_raise_r+0x4c>
 8006aea:	1c59      	adds	r1, r3, #1
 8006aec:	d103      	bne.n	8006af6 <_raise_r+0x42>
 8006aee:	2316      	movs	r3, #22
 8006af0:	6003      	str	r3, [r0, #0]
 8006af2:	2001      	movs	r0, #1
 8006af4:	e7e7      	b.n	8006ac6 <_raise_r+0x12>
 8006af6:	2400      	movs	r4, #0
 8006af8:	f842 4025 	str.w	r4, [r2, r5, lsl #2]
 8006afc:	4628      	mov	r0, r5
 8006afe:	4798      	blx	r3
 8006b00:	2000      	movs	r0, #0
 8006b02:	e7e0      	b.n	8006ac6 <_raise_r+0x12>

08006b04 <raise>:
 8006b04:	4b02      	ldr	r3, [pc, #8]	; (8006b10 <raise+0xc>)
 8006b06:	4601      	mov	r1, r0
 8006b08:	6818      	ldr	r0, [r3, #0]
 8006b0a:	f7ff bfd3 	b.w	8006ab4 <_raise_r>
 8006b0e:	bf00      	nop
 8006b10:	2000001c 	.word	0x2000001c

08006b14 <_kill_r>:
 8006b14:	b538      	push	{r3, r4, r5, lr}
 8006b16:	4d07      	ldr	r5, [pc, #28]	; (8006b34 <_kill_r+0x20>)
 8006b18:	2300      	movs	r3, #0
 8006b1a:	4604      	mov	r4, r0
 8006b1c:	4608      	mov	r0, r1
 8006b1e:	4611      	mov	r1, r2
 8006b20:	602b      	str	r3, [r5, #0]
 8006b22:	f7fa fcbb 	bl	800149c <_kill>
 8006b26:	1c43      	adds	r3, r0, #1
 8006b28:	d102      	bne.n	8006b30 <_kill_r+0x1c>
 8006b2a:	682b      	ldr	r3, [r5, #0]
 8006b2c:	b103      	cbz	r3, 8006b30 <_kill_r+0x1c>
 8006b2e:	6023      	str	r3, [r4, #0]
 8006b30:	bd38      	pop	{r3, r4, r5, pc}
 8006b32:	bf00      	nop
 8006b34:	20000318 	.word	0x20000318

08006b38 <_getpid_r>:
 8006b38:	f7fa bca8 	b.w	800148c <_getpid>

08006b3c <_init>:
 8006b3c:	b5f8      	push	{r3, r4, r5, r6, r7, lr}
 8006b3e:	bf00      	nop
 8006b40:	bcf8      	pop	{r3, r4, r5, r6, r7}
 8006b42:	bc08      	pop	{r3}
 8006b44:	469e      	mov	lr, r3
 8006b46:	4770      	bx	lr

08006b48 <_fini>:
 8006b48:	b5f8      	push	{r3, r4, r5, r6, r7, lr}
 8006b4a:	bf00      	nop
 8006b4c:	bcf8      	pop	{r3, r4, r5, r6, r7}
 8006b4e:	bc08      	pop	{r3}
 8006b50:	469e      	mov	lr, r3
 8006b52:	4770      	bx	lr
